TMS320C2000 Assembler PC v20.2.5 Fri Jan  6 17:23:30 2023

Copyright (c) 1996-2018 Texas Instruments Incorporated
drv8301.asm                                                          PAGE    1

       1              ;***************************************************************
       2              ;* TMS320C2000 G3 C/C++ Codegen                               PC v20.2.5.LTS *
       3              ;* Date/Time created: Fri Jan  6 17:23:30 2023                 *
       4              ;***************************************************************
       5                      .compiler_opts --abi=coffabi --cla_support=cla0 --float_support=fpu32 --hll_source=on --mem_model:cod
       6                      .asg    XAR2, FP
       7              
       8              $C$DW$CU        .dwtag  DW_TAG_compile_unit
       9                      .dwattr $C$DW$CU, DW_AT_name("../drv8301.c")
      10                      .dwattr $C$DW$CU, DW_AT_producer("TI TMS320C2000 G3 C/C++ Codegen PC v20.2.5.LTS Copyright (c) 1996-2
      11                      .dwattr $C$DW$CU, DW_AT_TI_version(0x01)
      12                      .dwattr $C$DW$CU, DW_AT_comp_dir("C:\Users\jason\workspace_v10_4\MonoMtrServo_379D\F2837x_RAM")
      13              
      14              $C$DW$1 .dwtag  DW_TAG_subprogram
      15                      .dwattr $C$DW$1, DW_AT_name("DRV8301_SPI_Write")
      16                      .dwattr $C$DW$1, DW_AT_TI_symbol_name("_DRV8301_SPI_Write")
      17                      .dwattr $C$DW$1, DW_AT_type(*$C$DW$T$38)
      18                      .dwattr $C$DW$1, DW_AT_declaration
      19                      .dwattr $C$DW$1, DW_AT_external
      20              $C$DW$2 .dwtag  DW_TAG_formal_parameter
      21                      .dwattr $C$DW$2, DW_AT_type(*$C$DW$T$300)
      22              
      23              $C$DW$3 .dwtag  DW_TAG_formal_parameter
      24                      .dwattr $C$DW$3, DW_AT_type(*$C$DW$T$38)
      25              
      26                      .dwendtag $C$DW$1
      27              
      28              
      29              $C$DW$4 .dwtag  DW_TAG_subprogram
      30                      .dwattr $C$DW$4, DW_AT_name("DRV8301_SPI_Read")
      31                      .dwattr $C$DW$4, DW_AT_TI_symbol_name("_DRV8301_SPI_Read")
      32                      .dwattr $C$DW$4, DW_AT_type(*$C$DW$T$38)
      33                      .dwattr $C$DW$4, DW_AT_declaration
      34                      .dwattr $C$DW$4, DW_AT_external
      35              $C$DW$5 .dwtag  DW_TAG_formal_parameter
      36                      .dwattr $C$DW$5, DW_AT_type(*$C$DW$T$300)
      37              
      38              $C$DW$6 .dwtag  DW_TAG_formal_parameter
      39                      .dwattr $C$DW$6, DW_AT_type(*$C$DW$T$38)
      40              
      41                      .dwendtag $C$DW$4
      42              
      43              ;       C:\ti\ccs1040\ccs\tools\compiler\ti-cgt-c2000_20.2.5.LTS\bin\opt2000.exe C:\\Users\\jason\\AppData\\L
      44              ;       C:\ti\ccs1040\ccs\tools\compiler\ti-cgt-c2000_20.2.5.LTS\bin\ac2000.exe -@C:\\Users\\jason\\AppData\\
      45 00000000               .sect   ".text"
      46                      .clink
      47                      .global _InitDRV8301Regs
      48              
      49              $C$DW$7 .dwtag  DW_TAG_subprogram
      50                      .dwattr $C$DW$7, DW_AT_name("InitDRV8301Regs")
      51                      .dwattr $C$DW$7, DW_AT_low_pc(_InitDRV8301Regs)
      52                      .dwattr $C$DW$7, DW_AT_high_pc(0x00)
      53                      .dwattr $C$DW$7, DW_AT_TI_symbol_name("_InitDRV8301Regs")
      54                      .dwattr $C$DW$7, DW_AT_external
      55                      .dwattr $C$DW$7, DW_AT_TI_begin_file("../drv8301.c")
TMS320C2000 Assembler PC v20.2.5 Fri Jan  6 17:23:30 2023

Copyright (c) 1996-2018 Texas Instruments Incorporated
drv8301.asm                                                          PAGE    2

      56                      .dwattr $C$DW$7, DW_AT_TI_begin_line(0x18)
      57                      .dwattr $C$DW$7, DW_AT_TI_begin_column(0x06)
      58                      .dwattr $C$DW$7, DW_AT_TI_max_frame_size(-4)
      59                      .dwpsn  file "../drv8301.c",line 25,column 1,is_stmt,address _InitDRV8301Regs,isa 0
      60              
      61                      .dwfde $C$DW$CIE, _InitDRV8301Regs
      62              $C$DW$8 .dwtag  DW_TAG_formal_parameter
      63                      .dwattr $C$DW$8, DW_AT_name("motor")
      64                      .dwattr $C$DW$8, DW_AT_TI_symbol_name("_motor")
      65                      .dwattr $C$DW$8, DW_AT_type(*$C$DW$T$300)
      66                      .dwattr $C$DW$8, DW_AT_location[DW_OP_reg12]
      67              
      68              
      69              ;***************************************************************
      70              ;* FNAME: _InitDRV8301Regs              FR SIZE:   2           *
      71              ;*                                                             *
      72              ;* FUNCTION ENVIRONMENT                                        *
      73              ;*                                                             *
      74              ;* FUNCTION PROPERTIES                                         *
      75              ;*                            0 Parameter,  0 Auto,  2 SOE     *
      76              ;***************************************************************
      77              
      78              _InitDRV8301Regs:
      79              ;* AR4   assigned to _motor
      80              $C$DW$9 .dwtag  DW_TAG_variable
      81                      .dwattr $C$DW$9, DW_AT_name("motor")
      82                      .dwattr $C$DW$9, DW_AT_TI_symbol_name("_motor")
      83                      .dwattr $C$DW$9, DW_AT_type(*$C$DW$T$301)
      84                      .dwattr $C$DW$9, DW_AT_location[DW_OP_reg12]
      85              
      86                      .dwcfi  cfa_offset, -2
      87                      .dwcfi  save_reg_to_mem, 26, 0
      88 00000000 B2BD          MOVL      *SP++,XAR1            ; [CPU_ALU] 
      89                      .dwcfi  save_reg_to_mem, 7, 2
      90                      .dwcfi  cfa_offset, -4
      91                      .dwpsn  file "../drv8301.c",line 26,column 2,is_stmt,isa 0
      92 00000001 8D40          MOVL      XAR1,#426             ; [CPU_ALU] |26| 
         00000002 01AA 
      93                      .dwpsn  file "../drv8301.c",line 27,column 2,is_stmt,isa 0
      94 00000003 8D00          MOVL      XAR0,#426             ; [CPU_ALU] |27| 
         00000004 01AA 
      95                      .dwpsn  file "../drv8301.c",line 26,column 2,is_stmt,isa 0
      96 00000005 2B9C          MOV       *+XAR4[AR1],#0        ; [CPU_ALU] |26| 
      97                      .dwpsn  file "../drv8301.c",line 27,column 2,is_stmt,isa 0
      98 00000006 CC94          AND       AL,*+XAR4[AR0],#0xf81c ; [CPU_ALU] |27| 
         00000007 F81C 
      99                      .dwpsn  file "../drv8301.c",line 33,column 2,is_stmt,isa 0
     100 00000008 8D40          MOVL      XAR1,#427             ; [CPU_ALU] |33| 
         00000009 01AB 
     101                      .dwpsn  file "../drv8301.c",line 27,column 2,is_stmt,isa 0
     102 0000000a 5019          ORB       AL,#0x19              ; [CPU_ALU] |27| 
     103 0000000b 9694          MOV       *+XAR4[AR0],AL        ; [CPU_ALU] |27| 
     104                      .dwpsn  file "../drv8301.c",line 32,column 2,is_stmt,isa 0
     105 0000000c 8D00          MOVL      XAR0,#427             ; [CPU_ALU] |32| 
         0000000d 01AB 
TMS320C2000 Assembler PC v20.2.5 Fri Jan  6 17:23:30 2023

Copyright (c) 1996-2018 Texas Instruments Incorporated
drv8301.asm                                                          PAGE    3

     106 0000000e 2B94          MOV       *+XAR4[AR0],#0        ; [CPU_ALU] |32| 
     107                      .dwpsn  file "../drv8301.c",line 33,column 2,is_stmt,isa 0
     108 0000000f CC9C          AND       AL,*+XAR4[AR1],#0xff80 ; [CPU_ALU] |33| 
         00000010 FF80 
     109 00000011 5001          ORB       AL,#0x01              ; [CPU_ALU] |33| 
     110 00000012 9694          MOV       *+XAR4[AR0],AL        ; [CPU_ALU] |33| 
     111 00000013 8BBE          MOVL      XAR1,*--SP            ; [CPU_ALU] 
     112                      .dwcfi  cfa_offset, -2
     113                      .dwcfi  restore_reg, 7
     114              $C$DW$10        .dwtag  DW_TAG_TI_branch
     115                      .dwattr $C$DW$10, DW_AT_low_pc(0x00)
     116                      .dwattr $C$DW$10, DW_AT_TI_return
     117              
     118 00000014 0006          LRETR     ; [CPU_ALU] 
     119                      ; return occurs ; [] 
     120                      .dwattr $C$DW$7, DW_AT_TI_end_file("../drv8301.c")
     121                      .dwattr $C$DW$7, DW_AT_TI_end_line(0x2a)
     122                      .dwattr $C$DW$7, DW_AT_TI_end_column(0x01)
     123                      .dwendentry
     124                      .dwendtag $C$DW$7
     125              
     126 00000015               .sect   ".text"
     127                      .clink
     128                      .global _InitDRV8301
     129              
     130              $C$DW$11        .dwtag  DW_TAG_subprogram
     131                      .dwattr $C$DW$11, DW_AT_name("InitDRV8301")
     132                      .dwattr $C$DW$11, DW_AT_low_pc(_InitDRV8301)
     133                      .dwattr $C$DW$11, DW_AT_high_pc(0x00)
     134                      .dwattr $C$DW$11, DW_AT_TI_symbol_name("_InitDRV8301")
     135                      .dwattr $C$DW$11, DW_AT_external
     136                      .dwattr $C$DW$11, DW_AT_TI_begin_file("../drv8301.c")
     137                      .dwattr $C$DW$11, DW_AT_TI_begin_line(0x58)
     138                      .dwattr $C$DW$11, DW_AT_TI_begin_column(0x06)
     139                      .dwattr $C$DW$11, DW_AT_TI_max_frame_size(-4)
     140                      .dwpsn  file "../drv8301.c",line 89,column 1,is_stmt,address _InitDRV8301,isa 0
     141              
     142                      .dwfde $C$DW$CIE, _InitDRV8301
     143              $C$DW$12        .dwtag  DW_TAG_formal_parameter
     144                      .dwattr $C$DW$12, DW_AT_name("motor")
     145                      .dwattr $C$DW$12, DW_AT_TI_symbol_name("_motor")
     146                      .dwattr $C$DW$12, DW_AT_type(*$C$DW$T$300)
     147                      .dwattr $C$DW$12, DW_AT_location[DW_OP_reg12]
     148              
     149              
     150              ;***************************************************************
     151              ;* FNAME: _InitDRV8301                  FR SIZE:   2           *
     152              ;*                                                             *
     153              ;* FUNCTION ENVIRONMENT                                        *
     154              ;*                                                             *
     155              ;* FUNCTION PROPERTIES                                         *
     156              ;*                            0 Parameter,  0 Auto,  2 SOE     *
     157              ;***************************************************************
     158              
     159              _InitDRV8301:
TMS320C2000 Assembler PC v20.2.5 Fri Jan  6 17:23:30 2023

Copyright (c) 1996-2018 Texas Instruments Incorporated
drv8301.asm                                                          PAGE    4

     160              ;* AL    assigned to $O$T2
     161              ;* AR6   assigned to $O$T3
     162              ;* AR1   assigned to _motor
     163              $C$DW$13        .dwtag  DW_TAG_variable
     164                      .dwattr $C$DW$13, DW_AT_name("motor")
     165                      .dwattr $C$DW$13, DW_AT_TI_symbol_name("_motor")
     166                      .dwattr $C$DW$13, DW_AT_type(*$C$DW$T$301)
     167                      .dwattr $C$DW$13, DW_AT_location[DW_OP_reg6]
     168              
     169              ;* T     assigned to _temp
     170              $C$DW$14        .dwtag  DW_TAG_variable
     171                      .dwattr $C$DW$14, DW_AT_name("temp")
     172                      .dwattr $C$DW$14, DW_AT_TI_symbol_name("_temp")
     173                      .dwattr $C$DW$14, DW_AT_type(*$C$DW$T$38)
     174                      .dwattr $C$DW$14, DW_AT_location[DW_OP_reg22]
     175              
     176              ;* AR4   assigned to _ptr1
     177              $C$DW$15        .dwtag  DW_TAG_variable
     178                      .dwattr $C$DW$15, DW_AT_name("ptr1")
     179                      .dwattr $C$DW$15, DW_AT_TI_symbol_name("_ptr1")
     180                      .dwattr $C$DW$15, DW_AT_type(*$C$DW$T$306)
     181                      .dwattr $C$DW$15, DW_AT_location[DW_OP_reg12]
     182              
     183              ;* AR5   assigned to _ptr2
     184              $C$DW$16        .dwtag  DW_TAG_variable
     185                      .dwattr $C$DW$16, DW_AT_name("ptr2")
     186                      .dwattr $C$DW$16, DW_AT_TI_symbol_name("_ptr2")
     187                      .dwattr $C$DW$16, DW_AT_type(*$C$DW$T$306)
     188                      .dwattr $C$DW$16, DW_AT_location[DW_OP_reg14]
     189              
     190                      .dwcfi  cfa_offset, -2
     191                      .dwcfi  save_reg_to_mem, 26, 0
     192 00000015 B2BD          MOVL      *SP++,XAR1            ; [CPU_ALU] 
     193                      .dwcfi  save_reg_to_mem, 7, 2
     194                      .dwcfi  cfa_offset, -4
     195                      .dwpsn  file "../drv8301.c",line 95,column 2,is_stmt,isa 0
     196 00000016 9A02          MOVB      AL,#2                 ; [CPU_ALU] |95| 
     197                      .dwpsn  file "../drv8301.c",line 89,column 1,is_stmt,isa 0
     198 00000017 8BA4          MOVL      XAR1,XAR4             ; [CPU_ALU] |89| 
     199                      .dwpsn  file "../drv8301.c",line 95,column 2,is_stmt,isa 0
     200              $C$DW$17        .dwtag  DW_TAG_TI_branch
     201                      .dwattr $C$DW$17, DW_AT_low_pc(0x00)
     202                      .dwattr $C$DW$17, DW_AT_name("_DRV8301_SPI_Write")
     203                      .dwattr $C$DW$17, DW_AT_TI_call
     204              
     205 00000018 7640!         LCR       #_DRV8301_SPI_Write   ; [CPU_ALU] |95| 
         00000019 0000 
     206                      ; call occurs [#_DRV8301_SPI_Write] ; [] |95| 
     207 0000001a 8D00          MOVL      XAR0,#424             ; [CPU_ALU] |95| 
         0000001b 01A8 
     208 0000001c 9691          MOV       *+XAR1[AR0],AL        ; [CPU_ALU] |95| 
     209                      .dwpsn  file "../drv8301.c",line 96,column 2,is_stmt,isa 0
     210 0000001d 8AA1          MOVL      XAR4,XAR1             ; [CPU_ALU] |96| 
     211 0000001e 9A03          MOVB      AL,#3                 ; [CPU_ALU] |96| 
     212              $C$DW$18        .dwtag  DW_TAG_TI_branch
TMS320C2000 Assembler PC v20.2.5 Fri Jan  6 17:23:30 2023

Copyright (c) 1996-2018 Texas Instruments Incorporated
drv8301.asm                                                          PAGE    5

     213                      .dwattr $C$DW$18, DW_AT_low_pc(0x00)
     214                      .dwattr $C$DW$18, DW_AT_name("_DRV8301_SPI_Write")
     215                      .dwattr $C$DW$18, DW_AT_TI_call
     216              
     217 0000001f 7640!         LCR       #_DRV8301_SPI_Write   ; [CPU_ALU] |96| 
         00000020 0000 
     218                      ; call occurs [#_DRV8301_SPI_Write] ; [] |96| 
     219 00000021 8D00          MOVL      XAR0,#424             ; [CPU_ALU] |96| 
         00000022 01A8 
     220 00000023 9691          MOV       *+XAR1[AR0],AL        ; [CPU_ALU] |96| 
     221                      .dwpsn  file "../drv8301.c",line 98,column 2,is_stmt,isa 0
     222 00000024 8AA1          MOVL      XAR4,XAR1             ; [CPU_ALU] |98| 
     223 00000025 9A01          MOVB      AL,#1                 ; [CPU_ALU] |98| 
     224              $C$DW$19        .dwtag  DW_TAG_TI_branch
     225                      .dwattr $C$DW$19, DW_AT_low_pc(0x00)
     226                      .dwattr $C$DW$19, DW_AT_name("_DRV8301_SPI_Read")
     227                      .dwattr $C$DW$19, DW_AT_TI_call
     228              
     229 00000026 7640!         LCR       #_DRV8301_SPI_Read    ; [CPU_ALU] |98| 
         00000027 0000 
     230                      ; call occurs [#_DRV8301_SPI_Read] ; [] |98| 
     231 00000028 8D00          MOVL      XAR0,#425             ; [CPU_ALU] |98| 
         00000029 01A9 
     232 0000002a 9080          ANDB      AL,#128               ; [CPU_ALU] |98| 
     233                      .dwpsn  file "../drv8301.c",line 99,column 2,is_stmt,isa 0
     234 0000002b 8AA1          MOVL      XAR4,XAR1             ; [CPU_ALU] |99| 
     235                      .dwpsn  file "../drv8301.c",line 98,column 2,is_stmt,isa 0
     236 0000002c 9691          MOV       *+XAR1[AR0],AL        ; [CPU_ALU] |98| 
     237                      .dwpsn  file "../drv8301.c",line 99,column 2,is_stmt,isa 0
     238 0000002d 9A02          MOVB      AL,#2                 ; [CPU_ALU] |99| 
     239              $C$DW$20        .dwtag  DW_TAG_TI_branch
     240                      .dwattr $C$DW$20, DW_AT_low_pc(0x00)
     241                      .dwattr $C$DW$20, DW_AT_name("_DRV8301_SPI_Read")
     242                      .dwattr $C$DW$20, DW_AT_TI_call
     243              
     244 0000002e 7640!         LCR       #_DRV8301_SPI_Read    ; [CPU_ALU] |99| 
         0000002f 0000 
     245                      ; call occurs [#_DRV8301_SPI_Read] ; [] |99| 
     246 00000030 8D00          MOVL      XAR0,#428             ; [CPU_ALU] |99| 
         00000031 01AC 
     247 00000032 CCA9          AND       AL,AL,#0x07ff         ; [CPU_ALU] |99| 
         00000033 07FF 
     248                      .dwpsn  file "../drv8301.c",line 100,column 2,is_stmt,isa 0
     249 00000034 8AA1          MOVL      XAR4,XAR1             ; [CPU_ALU] |100| 
     250                      .dwpsn  file "../drv8301.c",line 99,column 2,is_stmt,isa 0
     251 00000035 9691          MOV       *+XAR1[AR0],AL        ; [CPU_ALU] |99| 
     252                      .dwpsn  file "../drv8301.c",line 100,column 2,is_stmt,isa 0
     253 00000036 9A03          MOVB      AL,#3                 ; [CPU_ALU] |100| 
     254              $C$DW$21        .dwtag  DW_TAG_TI_branch
     255                      .dwattr $C$DW$21, DW_AT_low_pc(0x00)
     256                      .dwattr $C$DW$21, DW_AT_name("_DRV8301_SPI_Read")
     257                      .dwattr $C$DW$21, DW_AT_TI_call
     258              
     259 00000037 7640!         LCR       #_DRV8301_SPI_Read    ; [CPU_ALU] |100| 
         00000038 0000 
TMS320C2000 Assembler PC v20.2.5 Fri Jan  6 17:23:30 2023

Copyright (c) 1996-2018 Texas Instruments Incorporated
drv8301.asm                                                          PAGE    6

     260                      ; call occurs [#_DRV8301_SPI_Read] ; [] |100| 
     261 00000039 8D00          MOVL      XAR0,#429             ; [CPU_ALU] |100| 
         0000003a 01AD 
     262 0000003b CCA9          AND       AL,AL,#0x07ff         ; [CPU_ALU] |100| 
         0000003c 07FF 
     263                      .dwpsn  file "../drv8301.c",line 110,column 7,is_stmt,isa 0
     264 0000003d 2BAC          MOV       T,#0                  ; [CPU_ALU] |110| 
     265                      .dwpsn  file "../drv8301.c",line 100,column 2,is_stmt,isa 0
     266 0000003e 9691          MOV       *+XAR1[AR0],AL        ; [CPU_ALU] |100| 
     267                      .dwpsn  file "../drv8301.c",line 107,column 2,is_stmt,isa 0
     268 0000003f 8D00          MOVL      XAR0,#430             ; [CPU_ALU] |107| 
         00000040 01AE 
     269                      .dwpsn  file "../drv8301.c",line 105,column 2,is_stmt,isa 0
     270 00000041 B2A9          MOVL      ACC,XAR1              ; [CPU_ALU] |105| 
     271 00000042 FF13          ADD       ACC,#53 << 3          ; [CPU_ALU] |105| 
         00000043 0035 
     272                      .dwpsn  file "../drv8301.c",line 107,column 2,is_stmt,isa 0
     273 00000044 2B91          MOV       *+XAR1[AR0],#0        ; [CPU_ALU] |107| 
     274                      .dwpsn  file "../drv8301.c",line 105,column 2,is_stmt,isa 0
     275 00000045 8AA9          MOVL      XAR4,ACC              ; [CPU_ALU] |105| 
     276                      .dwpsn  file "../drv8301.c",line 106,column 2,is_stmt,isa 0
     277 00000046 B2A9          MOVL      ACC,XAR1              ; [CPU_ALU] |106| 
     278 00000047 FF12          ADD       ACC,#107 << 2         ; [CPU_ALU] |106| 
         00000048 006B 
     279 00000049 83A9          MOVL      XAR5,ACC              ; [CPU_ALU] |106| 
     280 0000004a       $C$L1:    
     281                      .dwpsn  file "../drv8301.c",line 112,column 3,is_stmt,isa 0
     282 0000004a 9284          MOV       AL,*XAR4++            ; [CPU_ALU] |112| 
     283 0000004b 6108          B         $C$L2,EQ              ; [CPU_ALU] |112| 
     284                      ; branchcc occurs ; [] |112| 
     285                      .dwpsn  file "../drv8301.c",line 113,column 4,is_stmt,isa 0
     286 0000004c B2A9          MOVL      ACC,XAR1              ; [CPU_ALU] |113| 
     287 0000004d FF11          ADD       ACC,#215 << 1         ; [CPU_ALU] |113| 
         0000004e 00D7 
     288 0000004f 1EA6          MOVL      XAR6,ACC              ; [CPU_ALU] |113| 
     289 00000050 9A01          MOVB      AL,#1                 ; [CPU_ALU] |113| 
     290 00000051 FF66          LSL       AL,T                  ; [CPU_ALU] |113| 
     291 00000052 98C6          OR        *+XAR6[0],AL          ; [CPU_ALU] |113| 
     292 00000053       $C$L2:    
     293 00000053 92AC          MOV       AL,T                  ; [CPU_ALU] 
     294                      .dwpsn  file "../drv8301.c",line 110,column 27,is_stmt,isa 0
     295 00000054 9C01          ADDB      AL,#1                 ; [CPU_ALU] |110| 
     296 00000055 5201          CMPB      AL,#1                 ; [CPU_ALU] |110| 
     297 00000056 2DA9          MOV       T,AL                  ; [CPU_FPU] |110| 
     298 00000057 69F3          B         $C$L1,LOS             ; [CPU_ALU] |110| 
     299                      ; branchcc occurs ; [] |110| 
     300                      .dwpsn  file "../drv8301.c",line 117,column 9,is_stmt,isa 0
     301 00000058 5203          CMPB      AL,#3                 ; [CPU_ALU] |117| 
     302 00000059 6612          B         $C$L5,HI              ; [CPU_ALU] |117| 
     303                      ; branchcc occurs ; [] |117| 
     304 0000005a       $C$L3:    
     305                      .dwpsn  file "../drv8301.c",line 119,column 3,is_stmt,isa 0
     306 0000005a 8884          MOVZ      AR6,*XAR4++           ; [CPU_ALU] |119| 
     307 0000005b 9285          MOV       AL,*XAR5++            ; [CPU_ALU] |119| 
     308 0000005c 0EA9          MOVU      ACC,AL                ; [CPU_ALU] |119| 
TMS320C2000 Assembler PC v20.2.5 Fri Jan  6 17:23:30 2023

Copyright (c) 1996-2018 Texas Instruments Incorporated
drv8301.asm                                                          PAGE    7

     309 0000005d 0FA6          CMPL      ACC,XAR6              ; [CPU_ALU] |119| 
     310 0000005e 6108          B         $C$L4,EQ              ; [CPU_ALU] |119| 
     311                      ; branchcc occurs ; [] |119| 
     312                      .dwpsn  file "../drv8301.c",line 120,column 4,is_stmt,isa 0
     313 0000005f B2A9          MOVL      ACC,XAR1              ; [CPU_ALU] |120| 
     314 00000060 FF11          ADD       ACC,#215 << 1         ; [CPU_ALU] |120| 
         00000061 00D7 
     315 00000062 1EA6          MOVL      XAR6,ACC              ; [CPU_ALU] |120| 
     316 00000063 9A01          MOVB      AL,#1                 ; [CPU_ALU] |120| 
     317 00000064 FF66          LSL       AL,T                  ; [CPU_ALU] |120| 
     318 00000065 98C6          OR        *+XAR6[0],AL          ; [CPU_ALU] |120| 
     319 00000066       $C$L4:    
     320 00000066 92AC          MOV       AL,T                  ; [CPU_ALU] 
     321                      .dwpsn  file "../drv8301.c",line 117,column 19,is_stmt,isa 0
     322 00000067 9C01          ADDB      AL,#1                 ; [CPU_ALU] |117| 
     323 00000068 5203          CMPB      AL,#3                 ; [CPU_ALU] |117| 
     324 00000069 2DA9          MOV       T,AL                  ; [CPU_FPU] |117| 
     325 0000006a 69F0          B         $C$L3,LOS             ; [CPU_ALU] |117| 
     326                      ; branchcc occurs ; [] |117| 
     327 0000006b       $C$L5:    
     328 0000006b 8BBE          MOVL      XAR1,*--SP            ; [CPU_ALU] 
     329                      .dwcfi  cfa_offset, -2
     330                      .dwcfi  restore_reg, 7
     331              $C$DW$22        .dwtag  DW_TAG_TI_branch
     332                      .dwattr $C$DW$22, DW_AT_low_pc(0x00)
     333                      .dwattr $C$DW$22, DW_AT_TI_return
     334              
     335 0000006c 0006          LRETR     ; [CPU_ALU] 
     336                      ; return occurs ; [] 
     337                      .dwattr $C$DW$11, DW_AT_TI_end_file("../drv8301.c")
     338                      .dwattr $C$DW$11, DW_AT_TI_end_line(0x7c)
     339                      .dwattr $C$DW$11, DW_AT_TI_end_column(0x01)
     340                      .dwendentry
     341                      .dwendtag $C$DW$11
     342              
     343 0000006d               .sect   ".text"
     344                      .clink
     345                      .global _DRV8301_diagnostics
     346              
     347              $C$DW$23        .dwtag  DW_TAG_subprogram
     348                      .dwattr $C$DW$23, DW_AT_name("DRV8301_diagnostics")
     349                      .dwattr $C$DW$23, DW_AT_low_pc(_DRV8301_diagnostics)
     350                      .dwattr $C$DW$23, DW_AT_high_pc(0x00)
     351                      .dwattr $C$DW$23, DW_AT_TI_symbol_name("_DRV8301_diagnostics")
     352                      .dwattr $C$DW$23, DW_AT_external
     353                      .dwattr $C$DW$23, DW_AT_TI_begin_file("../drv8301.c")
     354                      .dwattr $C$DW$23, DW_AT_TI_begin_line(0x83)
     355                      .dwattr $C$DW$23, DW_AT_TI_begin_column(0x06)
     356                      .dwattr $C$DW$23, DW_AT_TI_max_frame_size(-4)
     357                      .dwpsn  file "../drv8301.c",line 132,column 1,is_stmt,address _DRV8301_diagnostics,isa 0
     358              
     359                      .dwfde $C$DW$CIE, _DRV8301_diagnostics
     360              $C$DW$24        .dwtag  DW_TAG_formal_parameter
     361                      .dwattr $C$DW$24, DW_AT_name("motor")
     362                      .dwattr $C$DW$24, DW_AT_TI_symbol_name("_motor")
TMS320C2000 Assembler PC v20.2.5 Fri Jan  6 17:23:30 2023

Copyright (c) 1996-2018 Texas Instruments Incorporated
drv8301.asm                                                          PAGE    8

     363                      .dwattr $C$DW$24, DW_AT_type(*$C$DW$T$300)
     364                      .dwattr $C$DW$24, DW_AT_location[DW_OP_reg12]
     365              
     366              
     367              ;***************************************************************
     368              ;* FNAME: _DRV8301_diagnostics          FR SIZE:   2           *
     369              ;*                                                             *
     370              ;* FUNCTION ENVIRONMENT                                        *
     371              ;*                                                             *
     372              ;* FUNCTION PROPERTIES                                         *
     373              ;*                            0 Parameter,  0 Auto,  2 SOE     *
     374              ;***************************************************************
     375              
     376              _DRV8301_diagnostics:
     377              ;* AR1   assigned to _motor
     378              $C$DW$25        .dwtag  DW_TAG_variable
     379                      .dwattr $C$DW$25, DW_AT_name("motor")
     380                      .dwattr $C$DW$25, DW_AT_TI_symbol_name("_motor")
     381                      .dwattr $C$DW$25, DW_AT_type(*$C$DW$T$301)
     382                      .dwattr $C$DW$25, DW_AT_location[DW_OP_reg6]
     383              
     384                      .dwcfi  cfa_offset, -2
     385                      .dwcfi  save_reg_to_mem, 26, 0
     386 0000006d B2BD          MOVL      *SP++,XAR1            ; [CPU_ALU] 
     387                      .dwcfi  save_reg_to_mem, 7, 2
     388                      .dwcfi  cfa_offset, -4
     389                      .dwpsn  file "../drv8301.c",line 134,column 2,is_stmt,isa 0
     390 0000006e 9A00          MOVB      AL,#0                 ; [CPU_ALU] |134| 
     391                      .dwpsn  file "../drv8301.c",line 132,column 1,is_stmt,isa 0
     392 0000006f 8BA4          MOVL      XAR1,XAR4             ; [CPU_ALU] |132| 
     393                      .dwpsn  file "../drv8301.c",line 134,column 2,is_stmt,isa 0
     394              $C$DW$26        .dwtag  DW_TAG_TI_branch
     395                      .dwattr $C$DW$26, DW_AT_low_pc(0x00)
     396                      .dwattr $C$DW$26, DW_AT_name("_DRV8301_SPI_Read")
     397                      .dwattr $C$DW$26, DW_AT_TI_call
     398              
     399 00000070 7640!         LCR       #_DRV8301_SPI_Read    ; [CPU_ALU] |134| 
         00000071 0000 
     400                      ; call occurs [#_DRV8301_SPI_Read] ; [] |134| 
     401 00000072 8D00          MOVL      XAR0,#424             ; [CPU_ALU] |134| 
         00000073 01A8 
     402 00000074 9691          MOV       *+XAR1[AR0],AL        ; [CPU_ALU] |134| 
     403                      .dwpsn  file "../drv8301.c",line 137,column 2,is_stmt,isa 0
     404 00000075 8AA1          MOVL      XAR4,XAR1             ; [CPU_ALU] |137| 
     405 00000076 9A01          MOVB      AL,#1                 ; [CPU_ALU] |137| 
     406              $C$DW$27        .dwtag  DW_TAG_TI_branch
     407                      .dwattr $C$DW$27, DW_AT_low_pc(0x00)
     408                      .dwattr $C$DW$27, DW_AT_name("_DRV8301_SPI_Read")
     409                      .dwattr $C$DW$27, DW_AT_TI_call
     410              
     411 00000077 7640!         LCR       #_DRV8301_SPI_Read    ; [CPU_ALU] |137| 
         00000078 0000 
     412                      ; call occurs [#_DRV8301_SPI_Read] ; [] |137| 
     413 00000079 8D00          MOVL      XAR0,#425             ; [CPU_ALU] |137| 
         0000007a 01A9 
TMS320C2000 Assembler PC v20.2.5 Fri Jan  6 17:23:30 2023

Copyright (c) 1996-2018 Texas Instruments Incorporated
drv8301.asm                                                          PAGE    9

     414 0000007b 9080          ANDB      AL,#128               ; [CPU_ALU] |137| 
     415 0000007c 9691          MOV       *+XAR1[AR0],AL        ; [CPU_ALU] |137| 
     416 0000007d 8BBE          MOVL      XAR1,*--SP            ; [CPU_ALU] 
     417                      .dwcfi  cfa_offset, -2
     418                      .dwcfi  restore_reg, 7
     419              $C$DW$28        .dwtag  DW_TAG_TI_branch
     420                      .dwattr $C$DW$28, DW_AT_low_pc(0x00)
     421                      .dwattr $C$DW$28, DW_AT_TI_return
     422              
     423 0000007e 0006          LRETR     ; [CPU_ALU] 
     424                      ; return occurs ; [] 
     425                      .dwattr $C$DW$23, DW_AT_TI_end_file("../drv8301.c")
     426                      .dwattr $C$DW$23, DW_AT_TI_end_line(0x96)
     427                      .dwattr $C$DW$23, DW_AT_TI_end_column(0x01)
     428                      .dwendentry
     429                      .dwendtag $C$DW$23
     430              
     431              ;**************************************************************
     432              ;* UNDEFINED EXTERNAL REFERENCES                              *
     433              ;**************************************************************
     434                      .global _DRV8301_SPI_Write
     435                      .global _DRV8301_SPI_Read
     436              
     437              ;***************************************************************
     438              ;* TYPE INFORMATION                                            *
     439              ;***************************************************************
     440              
     441              $C$DW$T$20      .dwtag  DW_TAG_structure_type
     442                      .dwattr $C$DW$T$20, DW_AT_byte_size(0x0a)
     443              $C$DW$29        .dwtag  DW_TAG_member
     444                      .dwattr $C$DW$29, DW_AT_type(*$C$DW$T$19)
     445                      .dwattr $C$DW$29, DW_AT_name("As")
     446                      .dwattr $C$DW$29, DW_AT_TI_symbol_name("_As")
     447                      .dwattr $C$DW$29, DW_AT_data_member_location[DW_OP_plus_uconst 0x0]
     448                      .dwattr $C$DW$29, DW_AT_accessibility(DW_ACCESS_public)
     449              
     450              $C$DW$30        .dwtag  DW_TAG_member
     451                      .dwattr $C$DW$30, DW_AT_type(*$C$DW$T$19)
     452                      .dwattr $C$DW$30, DW_AT_name("Bs")
     453                      .dwattr $C$DW$30, DW_AT_TI_symbol_name("_Bs")
     454                      .dwattr $C$DW$30, DW_AT_data_member_location[DW_OP_plus_uconst 0x2]
     455                      .dwattr $C$DW$30, DW_AT_accessibility(DW_ACCESS_public)
     456              
     457              $C$DW$31        .dwtag  DW_TAG_member
     458                      .dwattr $C$DW$31, DW_AT_type(*$C$DW$T$19)
     459                      .dwattr $C$DW$31, DW_AT_name("Cs")
     460                      .dwattr $C$DW$31, DW_AT_TI_symbol_name("_Cs")
     461                      .dwattr $C$DW$31, DW_AT_data_member_location[DW_OP_plus_uconst 0x4]
     462                      .dwattr $C$DW$31, DW_AT_accessibility(DW_ACCESS_public)
     463              
     464              $C$DW$32        .dwtag  DW_TAG_member
     465                      .dwattr $C$DW$32, DW_AT_type(*$C$DW$T$19)
     466                      .dwattr $C$DW$32, DW_AT_name("Alpha")
     467                      .dwattr $C$DW$32, DW_AT_TI_symbol_name("_Alpha")
     468                      .dwattr $C$DW$32, DW_AT_data_member_location[DW_OP_plus_uconst 0x6]
TMS320C2000 Assembler PC v20.2.5 Fri Jan  6 17:23:30 2023

Copyright (c) 1996-2018 Texas Instruments Incorporated
drv8301.asm                                                          PAGE   10

     469                      .dwattr $C$DW$32, DW_AT_accessibility(DW_ACCESS_public)
     470              
     471              $C$DW$33        .dwtag  DW_TAG_member
     472                      .dwattr $C$DW$33, DW_AT_type(*$C$DW$T$19)
     473                      .dwattr $C$DW$33, DW_AT_name("Beta")
     474                      .dwattr $C$DW$33, DW_AT_TI_symbol_name("_Beta")
     475                      .dwattr $C$DW$33, DW_AT_data_member_location[DW_OP_plus_uconst 0x8]
     476                      .dwattr $C$DW$33, DW_AT_accessibility(DW_ACCESS_public)
     477              
     478                      .dwendtag $C$DW$T$20
     479              
     480              $C$DW$T$75      .dwtag  DW_TAG_typedef
     481                      .dwattr $C$DW$T$75, DW_AT_name("CLARKE")
     482                      .dwattr $C$DW$T$75, DW_AT_type(*$C$DW$T$20)
     483                      .dwattr $C$DW$T$75, DW_AT_language(DW_LANG_C)
     484              
     485              
     486              $C$DW$T$21      .dwtag  DW_TAG_structure_type
     487                      .dwattr $C$DW$T$21, DW_AT_byte_size(0x0e)
     488              $C$DW$34        .dwtag  DW_TAG_member
     489                      .dwattr $C$DW$34, DW_AT_type(*$C$DW$T$19)
     490                      .dwattr $C$DW$34, DW_AT_name("Alpha")
     491                      .dwattr $C$DW$34, DW_AT_TI_symbol_name("_Alpha")
     492                      .dwattr $C$DW$34, DW_AT_data_member_location[DW_OP_plus_uconst 0x0]
     493                      .dwattr $C$DW$34, DW_AT_accessibility(DW_ACCESS_public)
     494              
     495              $C$DW$35        .dwtag  DW_TAG_member
     496                      .dwattr $C$DW$35, DW_AT_type(*$C$DW$T$19)
     497                      .dwattr $C$DW$35, DW_AT_name("Beta")
     498                      .dwattr $C$DW$35, DW_AT_TI_symbol_name("_Beta")
     499                      .dwattr $C$DW$35, DW_AT_data_member_location[DW_OP_plus_uconst 0x2]
     500                      .dwattr $C$DW$35, DW_AT_accessibility(DW_ACCESS_public)
     501              
     502              $C$DW$36        .dwtag  DW_TAG_member
     503                      .dwattr $C$DW$36, DW_AT_type(*$C$DW$T$19)
     504                      .dwattr $C$DW$36, DW_AT_name("Angle")
     505                      .dwattr $C$DW$36, DW_AT_TI_symbol_name("_Angle")
     506                      .dwattr $C$DW$36, DW_AT_data_member_location[DW_OP_plus_uconst 0x4]
     507                      .dwattr $C$DW$36, DW_AT_accessibility(DW_ACCESS_public)
     508              
     509              $C$DW$37        .dwtag  DW_TAG_member
     510                      .dwattr $C$DW$37, DW_AT_type(*$C$DW$T$19)
     511                      .dwattr $C$DW$37, DW_AT_name("Ds")
     512                      .dwattr $C$DW$37, DW_AT_TI_symbol_name("_Ds")
     513                      .dwattr $C$DW$37, DW_AT_data_member_location[DW_OP_plus_uconst 0x6]
     514                      .dwattr $C$DW$37, DW_AT_accessibility(DW_ACCESS_public)
     515              
     516              $C$DW$38        .dwtag  DW_TAG_member
     517                      .dwattr $C$DW$38, DW_AT_type(*$C$DW$T$19)
     518                      .dwattr $C$DW$38, DW_AT_name("Qs")
     519                      .dwattr $C$DW$38, DW_AT_TI_symbol_name("_Qs")
     520                      .dwattr $C$DW$38, DW_AT_data_member_location[DW_OP_plus_uconst 0x8]
     521                      .dwattr $C$DW$38, DW_AT_accessibility(DW_ACCESS_public)
     522              
     523              $C$DW$39        .dwtag  DW_TAG_member
TMS320C2000 Assembler PC v20.2.5 Fri Jan  6 17:23:30 2023

Copyright (c) 1996-2018 Texas Instruments Incorporated
drv8301.asm                                                          PAGE   11

     524                      .dwattr $C$DW$39, DW_AT_type(*$C$DW$T$19)
     525                      .dwattr $C$DW$39, DW_AT_name("Sine")
     526                      .dwattr $C$DW$39, DW_AT_TI_symbol_name("_Sine")
     527                      .dwattr $C$DW$39, DW_AT_data_member_location[DW_OP_plus_uconst 0xa]
     528                      .dwattr $C$DW$39, DW_AT_accessibility(DW_ACCESS_public)
     529              
     530              $C$DW$40        .dwtag  DW_TAG_member
     531                      .dwattr $C$DW$40, DW_AT_type(*$C$DW$T$19)
     532                      .dwattr $C$DW$40, DW_AT_name("Cosine")
     533                      .dwattr $C$DW$40, DW_AT_TI_symbol_name("_Cosine")
     534                      .dwattr $C$DW$40, DW_AT_data_member_location[DW_OP_plus_uconst 0xc]
     535                      .dwattr $C$DW$40, DW_AT_accessibility(DW_ACCESS_public)
     536              
     537                      .dwendtag $C$DW$T$21
     538              
     539              $C$DW$T$76      .dwtag  DW_TAG_typedef
     540                      .dwattr $C$DW$T$76, DW_AT_name("PARK")
     541                      .dwattr $C$DW$T$76, DW_AT_type(*$C$DW$T$21)
     542                      .dwattr $C$DW$T$76, DW_AT_language(DW_LANG_C)
     543              
     544              
     545              $C$DW$T$22      .dwtag  DW_TAG_structure_type
     546                      .dwattr $C$DW$T$22, DW_AT_byte_size(0x0e)
     547              $C$DW$41        .dwtag  DW_TAG_member
     548                      .dwattr $C$DW$41, DW_AT_type(*$C$DW$T$19)
     549                      .dwattr $C$DW$41, DW_AT_name("Alpha")
     550                      .dwattr $C$DW$41, DW_AT_TI_symbol_name("_Alpha")
     551                      .dwattr $C$DW$41, DW_AT_data_member_location[DW_OP_plus_uconst 0x0]
     552                      .dwattr $C$DW$41, DW_AT_accessibility(DW_ACCESS_public)
     553              
     554              $C$DW$42        .dwtag  DW_TAG_member
     555                      .dwattr $C$DW$42, DW_AT_type(*$C$DW$T$19)
     556                      .dwattr $C$DW$42, DW_AT_name("Beta")
     557                      .dwattr $C$DW$42, DW_AT_TI_symbol_name("_Beta")
     558                      .dwattr $C$DW$42, DW_AT_data_member_location[DW_OP_plus_uconst 0x2]
     559                      .dwattr $C$DW$42, DW_AT_accessibility(DW_ACCESS_public)
     560              
     561              $C$DW$43        .dwtag  DW_TAG_member
     562                      .dwattr $C$DW$43, DW_AT_type(*$C$DW$T$19)
     563                      .dwattr $C$DW$43, DW_AT_name("Angle")
     564                      .dwattr $C$DW$43, DW_AT_TI_symbol_name("_Angle")
     565                      .dwattr $C$DW$43, DW_AT_data_member_location[DW_OP_plus_uconst 0x4]
     566                      .dwattr $C$DW$43, DW_AT_accessibility(DW_ACCESS_public)
     567              
     568              $C$DW$44        .dwtag  DW_TAG_member
     569                      .dwattr $C$DW$44, DW_AT_type(*$C$DW$T$19)
     570                      .dwattr $C$DW$44, DW_AT_name("Ds")
     571                      .dwattr $C$DW$44, DW_AT_TI_symbol_name("_Ds")
     572                      .dwattr $C$DW$44, DW_AT_data_member_location[DW_OP_plus_uconst 0x6]
     573                      .dwattr $C$DW$44, DW_AT_accessibility(DW_ACCESS_public)
     574              
     575              $C$DW$45        .dwtag  DW_TAG_member
     576                      .dwattr $C$DW$45, DW_AT_type(*$C$DW$T$19)
     577                      .dwattr $C$DW$45, DW_AT_name("Qs")
     578                      .dwattr $C$DW$45, DW_AT_TI_symbol_name("_Qs")
TMS320C2000 Assembler PC v20.2.5 Fri Jan  6 17:23:30 2023

Copyright (c) 1996-2018 Texas Instruments Incorporated
drv8301.asm                                                          PAGE   12

     579                      .dwattr $C$DW$45, DW_AT_data_member_location[DW_OP_plus_uconst 0x8]
     580                      .dwattr $C$DW$45, DW_AT_accessibility(DW_ACCESS_public)
     581              
     582              $C$DW$46        .dwtag  DW_TAG_member
     583                      .dwattr $C$DW$46, DW_AT_type(*$C$DW$T$19)
     584                      .dwattr $C$DW$46, DW_AT_name("Sine")
     585                      .dwattr $C$DW$46, DW_AT_TI_symbol_name("_Sine")
     586                      .dwattr $C$DW$46, DW_AT_data_member_location[DW_OP_plus_uconst 0xa]
     587                      .dwattr $C$DW$46, DW_AT_accessibility(DW_ACCESS_public)
     588              
     589              $C$DW$47        .dwtag  DW_TAG_member
     590                      .dwattr $C$DW$47, DW_AT_type(*$C$DW$T$19)
     591                      .dwattr $C$DW$47, DW_AT_name("Cosine")
     592                      .dwattr $C$DW$47, DW_AT_TI_symbol_name("_Cosine")
     593                      .dwattr $C$DW$47, DW_AT_data_member_location[DW_OP_plus_uconst 0xc]
     594                      .dwattr $C$DW$47, DW_AT_accessibility(DW_ACCESS_public)
     595              
     596                      .dwendtag $C$DW$T$22
     597              
     598              $C$DW$T$77      .dwtag  DW_TAG_typedef
     599                      .dwattr $C$DW$T$77, DW_AT_name("IPARK")
     600                      .dwattr $C$DW$T$77, DW_AT_type(*$C$DW$T$22)
     601                      .dwattr $C$DW$T$77, DW_AT_language(DW_LANG_C)
     602              
     603              
     604              $C$DW$T$23      .dwtag  DW_TAG_structure_type
     605                      .dwattr $C$DW$T$23, DW_AT_byte_size(0x18)
     606              $C$DW$48        .dwtag  DW_TAG_member
     607                      .dwattr $C$DW$48, DW_AT_type(*$C$DW$T$19)
     608                      .dwattr $C$DW$48, DW_AT_name("Ref")
     609                      .dwattr $C$DW$48, DW_AT_TI_symbol_name("_Ref")
     610                      .dwattr $C$DW$48, DW_AT_data_member_location[DW_OP_plus_uconst 0x0]
     611                      .dwattr $C$DW$48, DW_AT_accessibility(DW_ACCESS_public)
     612              
     613              $C$DW$49        .dwtag  DW_TAG_member
     614                      .dwattr $C$DW$49, DW_AT_type(*$C$DW$T$19)
     615                      .dwattr $C$DW$49, DW_AT_name("Fbk")
     616                      .dwattr $C$DW$49, DW_AT_TI_symbol_name("_Fbk")
     617                      .dwattr $C$DW$49, DW_AT_data_member_location[DW_OP_plus_uconst 0x2]
     618                      .dwattr $C$DW$49, DW_AT_accessibility(DW_ACCESS_public)
     619              
     620              $C$DW$50        .dwtag  DW_TAG_member
     621                      .dwattr $C$DW$50, DW_AT_type(*$C$DW$T$19)
     622                      .dwattr $C$DW$50, DW_AT_name("Out")
     623                      .dwattr $C$DW$50, DW_AT_TI_symbol_name("_Out")
     624                      .dwattr $C$DW$50, DW_AT_data_member_location[DW_OP_plus_uconst 0x4]
     625                      .dwattr $C$DW$50, DW_AT_accessibility(DW_ACCESS_public)
     626              
     627              $C$DW$51        .dwtag  DW_TAG_member
     628                      .dwattr $C$DW$51, DW_AT_type(*$C$DW$T$19)
     629                      .dwattr $C$DW$51, DW_AT_name("Kp")
     630                      .dwattr $C$DW$51, DW_AT_TI_symbol_name("_Kp")
     631                      .dwattr $C$DW$51, DW_AT_data_member_location[DW_OP_plus_uconst 0x6]
     632                      .dwattr $C$DW$51, DW_AT_accessibility(DW_ACCESS_public)
     633              
TMS320C2000 Assembler PC v20.2.5 Fri Jan  6 17:23:30 2023

Copyright (c) 1996-2018 Texas Instruments Incorporated
drv8301.asm                                                          PAGE   13

     634              $C$DW$52        .dwtag  DW_TAG_member
     635                      .dwattr $C$DW$52, DW_AT_type(*$C$DW$T$19)
     636                      .dwattr $C$DW$52, DW_AT_name("Ki")
     637                      .dwattr $C$DW$52, DW_AT_TI_symbol_name("_Ki")
     638                      .dwattr $C$DW$52, DW_AT_data_member_location[DW_OP_plus_uconst 0x8]
     639                      .dwattr $C$DW$52, DW_AT_accessibility(DW_ACCESS_public)
     640              
     641              $C$DW$53        .dwtag  DW_TAG_member
     642                      .dwattr $C$DW$53, DW_AT_type(*$C$DW$T$19)
     643                      .dwattr $C$DW$53, DW_AT_name("Umax")
     644                      .dwattr $C$DW$53, DW_AT_TI_symbol_name("_Umax")
     645                      .dwattr $C$DW$53, DW_AT_data_member_location[DW_OP_plus_uconst 0xa]
     646                      .dwattr $C$DW$53, DW_AT_accessibility(DW_ACCESS_public)
     647              
     648              $C$DW$54        .dwtag  DW_TAG_member
     649                      .dwattr $C$DW$54, DW_AT_type(*$C$DW$T$19)
     650                      .dwattr $C$DW$54, DW_AT_name("Umin")
     651                      .dwattr $C$DW$54, DW_AT_TI_symbol_name("_Umin")
     652                      .dwattr $C$DW$54, DW_AT_data_member_location[DW_OP_plus_uconst 0xc]
     653                      .dwattr $C$DW$54, DW_AT_accessibility(DW_ACCESS_public)
     654              
     655              $C$DW$55        .dwtag  DW_TAG_member
     656                      .dwattr $C$DW$55, DW_AT_type(*$C$DW$T$19)
     657                      .dwattr $C$DW$55, DW_AT_name("up")
     658                      .dwattr $C$DW$55, DW_AT_TI_symbol_name("_up")
     659                      .dwattr $C$DW$55, DW_AT_data_member_location[DW_OP_plus_uconst 0xe]
     660                      .dwattr $C$DW$55, DW_AT_accessibility(DW_ACCESS_public)
     661              
     662              $C$DW$56        .dwtag  DW_TAG_member
     663                      .dwattr $C$DW$56, DW_AT_type(*$C$DW$T$19)
     664                      .dwattr $C$DW$56, DW_AT_name("ui")
     665                      .dwattr $C$DW$56, DW_AT_TI_symbol_name("_ui")
     666                      .dwattr $C$DW$56, DW_AT_data_member_location[DW_OP_plus_uconst 0x10]
     667                      .dwattr $C$DW$56, DW_AT_accessibility(DW_ACCESS_public)
     668              
     669              $C$DW$57        .dwtag  DW_TAG_member
     670                      .dwattr $C$DW$57, DW_AT_type(*$C$DW$T$19)
     671                      .dwattr $C$DW$57, DW_AT_name("v1")
     672                      .dwattr $C$DW$57, DW_AT_TI_symbol_name("_v1")
     673                      .dwattr $C$DW$57, DW_AT_data_member_location[DW_OP_plus_uconst 0x12]
     674                      .dwattr $C$DW$57, DW_AT_accessibility(DW_ACCESS_public)
     675              
     676              $C$DW$58        .dwtag  DW_TAG_member
     677                      .dwattr $C$DW$58, DW_AT_type(*$C$DW$T$19)
     678                      .dwattr $C$DW$58, DW_AT_name("i1")
     679                      .dwattr $C$DW$58, DW_AT_TI_symbol_name("_i1")
     680                      .dwattr $C$DW$58, DW_AT_data_member_location[DW_OP_plus_uconst 0x14]
     681                      .dwattr $C$DW$58, DW_AT_accessibility(DW_ACCESS_public)
     682              
     683              $C$DW$59        .dwtag  DW_TAG_member
     684                      .dwattr $C$DW$59, DW_AT_type(*$C$DW$T$19)
     685                      .dwattr $C$DW$59, DW_AT_name("w1")
     686                      .dwattr $C$DW$59, DW_AT_TI_symbol_name("_w1")
     687                      .dwattr $C$DW$59, DW_AT_data_member_location[DW_OP_plus_uconst 0x16]
     688                      .dwattr $C$DW$59, DW_AT_accessibility(DW_ACCESS_public)
TMS320C2000 Assembler PC v20.2.5 Fri Jan  6 17:23:30 2023

Copyright (c) 1996-2018 Texas Instruments Incorporated
drv8301.asm                                                          PAGE   14

     689              
     690                      .dwendtag $C$DW$T$23
     691              
     692              $C$DW$T$78      .dwtag  DW_TAG_typedef
     693                      .dwattr $C$DW$T$78, DW_AT_name("PI_CONTROLLER")
     694                      .dwattr $C$DW$T$78, DW_AT_type(*$C$DW$T$23)
     695                      .dwattr $C$DW$T$78, DW_AT_language(DW_LANG_C)
     696              
     697              
     698              $C$DW$T$24      .dwtag  DW_TAG_structure_type
     699                      .dwattr $C$DW$T$24, DW_AT_byte_size(0x0a)
     700              $C$DW$60        .dwtag  DW_TAG_member
     701                      .dwattr $C$DW$60, DW_AT_type(*$C$DW$T$19)
     702                      .dwattr $C$DW$60, DW_AT_name("Ref")
     703                      .dwattr $C$DW$60, DW_AT_TI_symbol_name("_Ref")
     704                      .dwattr $C$DW$60, DW_AT_data_member_location[DW_OP_plus_uconst 0x0]
     705                      .dwattr $C$DW$60, DW_AT_accessibility(DW_ACCESS_public)
     706              
     707              $C$DW$61        .dwtag  DW_TAG_member
     708                      .dwattr $C$DW$61, DW_AT_type(*$C$DW$T$19)
     709                      .dwattr $C$DW$61, DW_AT_name("Fbk")
     710                      .dwattr $C$DW$61, DW_AT_TI_symbol_name("_Fbk")
     711                      .dwattr $C$DW$61, DW_AT_data_member_location[DW_OP_plus_uconst 0x2]
     712                      .dwattr $C$DW$61, DW_AT_accessibility(DW_ACCESS_public)
     713              
     714              $C$DW$62        .dwtag  DW_TAG_member
     715                      .dwattr $C$DW$62, DW_AT_type(*$C$DW$T$19)
     716                      .dwattr $C$DW$62, DW_AT_name("Out")
     717                      .dwattr $C$DW$62, DW_AT_TI_symbol_name("_Out")
     718                      .dwattr $C$DW$62, DW_AT_data_member_location[DW_OP_plus_uconst 0x4]
     719                      .dwattr $C$DW$62, DW_AT_accessibility(DW_ACCESS_public)
     720              
     721              $C$DW$63        .dwtag  DW_TAG_member
     722                      .dwattr $C$DW$63, DW_AT_type(*$C$DW$T$19)
     723                      .dwattr $C$DW$63, DW_AT_name("c1")
     724                      .dwattr $C$DW$63, DW_AT_TI_symbol_name("_c1")
     725                      .dwattr $C$DW$63, DW_AT_data_member_location[DW_OP_plus_uconst 0x6]
     726                      .dwattr $C$DW$63, DW_AT_accessibility(DW_ACCESS_public)
     727              
     728              $C$DW$64        .dwtag  DW_TAG_member
     729                      .dwattr $C$DW$64, DW_AT_type(*$C$DW$T$19)
     730                      .dwattr $C$DW$64, DW_AT_name("c2")
     731                      .dwattr $C$DW$64, DW_AT_TI_symbol_name("_c2")
     732                      .dwattr $C$DW$64, DW_AT_data_member_location[DW_OP_plus_uconst 0x8]
     733                      .dwattr $C$DW$64, DW_AT_accessibility(DW_ACCESS_public)
     734              
     735                      .dwendtag $C$DW$T$24
     736              
     737              $C$DW$T$27      .dwtag  DW_TAG_typedef
     738                      .dwattr $C$DW$T$27, DW_AT_name("PID_TERMINALS")
     739                      .dwattr $C$DW$T$27, DW_AT_type(*$C$DW$T$24)
     740                      .dwattr $C$DW$T$27, DW_AT_language(DW_LANG_C)
     741              
     742              
     743              $C$DW$T$25      .dwtag  DW_TAG_structure_type
TMS320C2000 Assembler PC v20.2.5 Fri Jan  6 17:23:30 2023

Copyright (c) 1996-2018 Texas Instruments Incorporated
drv8301.asm                                                          PAGE   15

     744                      .dwattr $C$DW$T$25, DW_AT_byte_size(0x0e)
     745              $C$DW$65        .dwtag  DW_TAG_member
     746                      .dwattr $C$DW$65, DW_AT_type(*$C$DW$T$19)
     747                      .dwattr $C$DW$65, DW_AT_name("Kr")
     748                      .dwattr $C$DW$65, DW_AT_TI_symbol_name("_Kr")
     749                      .dwattr $C$DW$65, DW_AT_data_member_location[DW_OP_plus_uconst 0x0]
     750                      .dwattr $C$DW$65, DW_AT_accessibility(DW_ACCESS_public)
     751              
     752              $C$DW$66        .dwtag  DW_TAG_member
     753                      .dwattr $C$DW$66, DW_AT_type(*$C$DW$T$19)
     754                      .dwattr $C$DW$66, DW_AT_name("Kp")
     755                      .dwattr $C$DW$66, DW_AT_TI_symbol_name("_Kp")
     756                      .dwattr $C$DW$66, DW_AT_data_member_location[DW_OP_plus_uconst 0x2]
     757                      .dwattr $C$DW$66, DW_AT_accessibility(DW_ACCESS_public)
     758              
     759              $C$DW$67        .dwtag  DW_TAG_member
     760                      .dwattr $C$DW$67, DW_AT_type(*$C$DW$T$19)
     761                      .dwattr $C$DW$67, DW_AT_name("Ki")
     762                      .dwattr $C$DW$67, DW_AT_TI_symbol_name("_Ki")
     763                      .dwattr $C$DW$67, DW_AT_data_member_location[DW_OP_plus_uconst 0x4]
     764                      .dwattr $C$DW$67, DW_AT_accessibility(DW_ACCESS_public)
     765              
     766              $C$DW$68        .dwtag  DW_TAG_member
     767                      .dwattr $C$DW$68, DW_AT_type(*$C$DW$T$19)
     768                      .dwattr $C$DW$68, DW_AT_name("Kd")
     769                      .dwattr $C$DW$68, DW_AT_TI_symbol_name("_Kd")
     770                      .dwattr $C$DW$68, DW_AT_data_member_location[DW_OP_plus_uconst 0x6]
     771                      .dwattr $C$DW$68, DW_AT_accessibility(DW_ACCESS_public)
     772              
     773              $C$DW$69        .dwtag  DW_TAG_member
     774                      .dwattr $C$DW$69, DW_AT_type(*$C$DW$T$19)
     775                      .dwattr $C$DW$69, DW_AT_name("Km")
     776                      .dwattr $C$DW$69, DW_AT_TI_symbol_name("_Km")
     777                      .dwattr $C$DW$69, DW_AT_data_member_location[DW_OP_plus_uconst 0x8]
     778                      .dwattr $C$DW$69, DW_AT_accessibility(DW_ACCESS_public)
     779              
     780              $C$DW$70        .dwtag  DW_TAG_member
     781                      .dwattr $C$DW$70, DW_AT_type(*$C$DW$T$19)
     782                      .dwattr $C$DW$70, DW_AT_name("Umax")
     783                      .dwattr $C$DW$70, DW_AT_TI_symbol_name("_Umax")
     784                      .dwattr $C$DW$70, DW_AT_data_member_location[DW_OP_plus_uconst 0xa]
     785                      .dwattr $C$DW$70, DW_AT_accessibility(DW_ACCESS_public)
     786              
     787              $C$DW$71        .dwtag  DW_TAG_member
     788                      .dwattr $C$DW$71, DW_AT_type(*$C$DW$T$19)
     789                      .dwattr $C$DW$71, DW_AT_name("Umin")
     790                      .dwattr $C$DW$71, DW_AT_TI_symbol_name("_Umin")
     791                      .dwattr $C$DW$71, DW_AT_data_member_location[DW_OP_plus_uconst 0xc]
     792                      .dwattr $C$DW$71, DW_AT_accessibility(DW_ACCESS_public)
     793              
     794                      .dwendtag $C$DW$T$25
     795              
     796              $C$DW$T$28      .dwtag  DW_TAG_typedef
     797                      .dwattr $C$DW$T$28, DW_AT_name("PID_PARAMETERS")
     798                      .dwattr $C$DW$T$28, DW_AT_type(*$C$DW$T$25)
TMS320C2000 Assembler PC v20.2.5 Fri Jan  6 17:23:30 2023

Copyright (c) 1996-2018 Texas Instruments Incorporated
drv8301.asm                                                          PAGE   16

     799                      .dwattr $C$DW$T$28, DW_AT_language(DW_LANG_C)
     800              
     801              
     802              $C$DW$T$26      .dwtag  DW_TAG_structure_type
     803                      .dwattr $C$DW$T$26, DW_AT_byte_size(0x10)
     804              $C$DW$72        .dwtag  DW_TAG_member
     805                      .dwattr $C$DW$72, DW_AT_type(*$C$DW$T$19)
     806                      .dwattr $C$DW$72, DW_AT_name("up")
     807                      .dwattr $C$DW$72, DW_AT_TI_symbol_name("_up")
     808                      .dwattr $C$DW$72, DW_AT_data_member_location[DW_OP_plus_uconst 0x0]
     809                      .dwattr $C$DW$72, DW_AT_accessibility(DW_ACCESS_public)
     810              
     811              $C$DW$73        .dwtag  DW_TAG_member
     812                      .dwattr $C$DW$73, DW_AT_type(*$C$DW$T$19)
     813                      .dwattr $C$DW$73, DW_AT_name("ui")
     814                      .dwattr $C$DW$73, DW_AT_TI_symbol_name("_ui")
     815                      .dwattr $C$DW$73, DW_AT_data_member_location[DW_OP_plus_uconst 0x2]
     816                      .dwattr $C$DW$73, DW_AT_accessibility(DW_ACCESS_public)
     817              
     818              $C$DW$74        .dwtag  DW_TAG_member
     819                      .dwattr $C$DW$74, DW_AT_type(*$C$DW$T$19)
     820                      .dwattr $C$DW$74, DW_AT_name("ud")
     821                      .dwattr $C$DW$74, DW_AT_TI_symbol_name("_ud")
     822                      .dwattr $C$DW$74, DW_AT_data_member_location[DW_OP_plus_uconst 0x4]
     823                      .dwattr $C$DW$74, DW_AT_accessibility(DW_ACCESS_public)
     824              
     825              $C$DW$75        .dwtag  DW_TAG_member
     826                      .dwattr $C$DW$75, DW_AT_type(*$C$DW$T$19)
     827                      .dwattr $C$DW$75, DW_AT_name("v1")
     828                      .dwattr $C$DW$75, DW_AT_TI_symbol_name("_v1")
     829                      .dwattr $C$DW$75, DW_AT_data_member_location[DW_OP_plus_uconst 0x6]
     830                      .dwattr $C$DW$75, DW_AT_accessibility(DW_ACCESS_public)
     831              
     832              $C$DW$76        .dwtag  DW_TAG_member
     833                      .dwattr $C$DW$76, DW_AT_type(*$C$DW$T$19)
     834                      .dwattr $C$DW$76, DW_AT_name("i1")
     835                      .dwattr $C$DW$76, DW_AT_TI_symbol_name("_i1")
     836                      .dwattr $C$DW$76, DW_AT_data_member_location[DW_OP_plus_uconst 0x8]
     837                      .dwattr $C$DW$76, DW_AT_accessibility(DW_ACCESS_public)
     838              
     839              $C$DW$77        .dwtag  DW_TAG_member
     840                      .dwattr $C$DW$77, DW_AT_type(*$C$DW$T$19)
     841                      .dwattr $C$DW$77, DW_AT_name("d1")
     842                      .dwattr $C$DW$77, DW_AT_TI_symbol_name("_d1")
     843                      .dwattr $C$DW$77, DW_AT_data_member_location[DW_OP_plus_uconst 0xa]
     844                      .dwattr $C$DW$77, DW_AT_accessibility(DW_ACCESS_public)
     845              
     846              $C$DW$78        .dwtag  DW_TAG_member
     847                      .dwattr $C$DW$78, DW_AT_type(*$C$DW$T$19)
     848                      .dwattr $C$DW$78, DW_AT_name("d2")
     849                      .dwattr $C$DW$78, DW_AT_TI_symbol_name("_d2")
     850                      .dwattr $C$DW$78, DW_AT_data_member_location[DW_OP_plus_uconst 0xc]
     851                      .dwattr $C$DW$78, DW_AT_accessibility(DW_ACCESS_public)
     852              
     853              $C$DW$79        .dwtag  DW_TAG_member
TMS320C2000 Assembler PC v20.2.5 Fri Jan  6 17:23:30 2023

Copyright (c) 1996-2018 Texas Instruments Incorporated
drv8301.asm                                                          PAGE   17

     854                      .dwattr $C$DW$79, DW_AT_type(*$C$DW$T$19)
     855                      .dwattr $C$DW$79, DW_AT_name("w1")
     856                      .dwattr $C$DW$79, DW_AT_TI_symbol_name("_w1")
     857                      .dwattr $C$DW$79, DW_AT_data_member_location[DW_OP_plus_uconst 0xe]
     858                      .dwattr $C$DW$79, DW_AT_accessibility(DW_ACCESS_public)
     859              
     860                      .dwendtag $C$DW$T$26
     861              
     862              $C$DW$T$29      .dwtag  DW_TAG_typedef
     863                      .dwattr $C$DW$T$29, DW_AT_name("PID_DATA")
     864                      .dwattr $C$DW$T$29, DW_AT_type(*$C$DW$T$26)
     865                      .dwattr $C$DW$T$29, DW_AT_language(DW_LANG_C)
     866              
     867              
     868              $C$DW$T$30      .dwtag  DW_TAG_structure_type
     869                      .dwattr $C$DW$T$30, DW_AT_byte_size(0x28)
     870              $C$DW$80        .dwtag  DW_TAG_member
     871                      .dwattr $C$DW$80, DW_AT_type(*$C$DW$T$27)
     872                      .dwattr $C$DW$80, DW_AT_name("term")
     873                      .dwattr $C$DW$80, DW_AT_TI_symbol_name("_term")
     874                      .dwattr $C$DW$80, DW_AT_data_member_location[DW_OP_plus_uconst 0x0]
     875                      .dwattr $C$DW$80, DW_AT_accessibility(DW_ACCESS_public)
     876              
     877              $C$DW$81        .dwtag  DW_TAG_member
     878                      .dwattr $C$DW$81, DW_AT_type(*$C$DW$T$28)
     879                      .dwattr $C$DW$81, DW_AT_name("param")
     880                      .dwattr $C$DW$81, DW_AT_TI_symbol_name("_param")
     881                      .dwattr $C$DW$81, DW_AT_data_member_location[DW_OP_plus_uconst 0xa]
     882                      .dwattr $C$DW$81, DW_AT_accessibility(DW_ACCESS_public)
     883              
     884              $C$DW$82        .dwtag  DW_TAG_member
     885                      .dwattr $C$DW$82, DW_AT_type(*$C$DW$T$29)
     886                      .dwattr $C$DW$82, DW_AT_name("data")
     887                      .dwattr $C$DW$82, DW_AT_TI_symbol_name("_data")
     888                      .dwattr $C$DW$82, DW_AT_data_member_location[DW_OP_plus_uconst 0x18]
     889                      .dwattr $C$DW$82, DW_AT_accessibility(DW_ACCESS_public)
     890              
     891                      .dwendtag $C$DW$T$30
     892              
     893              $C$DW$T$79      .dwtag  DW_TAG_typedef
     894                      .dwattr $C$DW$T$79, DW_AT_name("PID_CONTROLLER")
     895                      .dwattr $C$DW$T$79, DW_AT_type(*$C$DW$T$30)
     896                      .dwattr $C$DW$T$79, DW_AT_language(DW_LANG_C)
     897              
     898              
     899              $C$DW$T$31      .dwtag  DW_TAG_structure_type
     900                      .dwattr $C$DW$T$31, DW_AT_byte_size(0x0a)
     901              $C$DW$83        .dwtag  DW_TAG_member
     902                      .dwattr $C$DW$83, DW_AT_type(*$C$DW$T$19)
     903                      .dwattr $C$DW$83, DW_AT_name("Ref")
     904                      .dwattr $C$DW$83, DW_AT_TI_symbol_name("_Ref")
     905                      .dwattr $C$DW$83, DW_AT_data_member_location[DW_OP_plus_uconst 0x0]
     906                      .dwattr $C$DW$83, DW_AT_accessibility(DW_ACCESS_public)
     907              
     908              $C$DW$84        .dwtag  DW_TAG_member
TMS320C2000 Assembler PC v20.2.5 Fri Jan  6 17:23:30 2023

Copyright (c) 1996-2018 Texas Instruments Incorporated
drv8301.asm                                                          PAGE   18

     909                      .dwattr $C$DW$84, DW_AT_type(*$C$DW$T$19)
     910                      .dwattr $C$DW$84, DW_AT_name("Fbk")
     911                      .dwattr $C$DW$84, DW_AT_TI_symbol_name("_Fbk")
     912                      .dwattr $C$DW$84, DW_AT_data_member_location[DW_OP_plus_uconst 0x2]
     913                      .dwattr $C$DW$84, DW_AT_accessibility(DW_ACCESS_public)
     914              
     915              $C$DW$85        .dwtag  DW_TAG_member
     916                      .dwattr $C$DW$85, DW_AT_type(*$C$DW$T$19)
     917                      .dwattr $C$DW$85, DW_AT_name("Out")
     918                      .dwattr $C$DW$85, DW_AT_TI_symbol_name("_Out")
     919                      .dwattr $C$DW$85, DW_AT_data_member_location[DW_OP_plus_uconst 0x4]
     920                      .dwattr $C$DW$85, DW_AT_accessibility(DW_ACCESS_public)
     921              
     922              $C$DW$86        .dwtag  DW_TAG_member
     923                      .dwattr $C$DW$86, DW_AT_type(*$C$DW$T$19)
     924                      .dwattr $C$DW$86, DW_AT_name("c1")
     925                      .dwattr $C$DW$86, DW_AT_TI_symbol_name("_c1")
     926                      .dwattr $C$DW$86, DW_AT_data_member_location[DW_OP_plus_uconst 0x6]
     927                      .dwattr $C$DW$86, DW_AT_accessibility(DW_ACCESS_public)
     928              
     929              $C$DW$87        .dwtag  DW_TAG_member
     930                      .dwattr $C$DW$87, DW_AT_type(*$C$DW$T$19)
     931                      .dwattr $C$DW$87, DW_AT_name("c2")
     932                      .dwattr $C$DW$87, DW_AT_TI_symbol_name("_c2")
     933                      .dwattr $C$DW$87, DW_AT_data_member_location[DW_OP_plus_uconst 0x8]
     934                      .dwattr $C$DW$87, DW_AT_accessibility(DW_ACCESS_public)
     935              
     936                      .dwendtag $C$DW$T$31
     937              
     938              $C$DW$T$34      .dwtag  DW_TAG_typedef
     939                      .dwattr $C$DW$T$34, DW_AT_name("PI_TERMINALS")
     940                      .dwattr $C$DW$T$34, DW_AT_type(*$C$DW$T$31)
     941                      .dwattr $C$DW$T$34, DW_AT_language(DW_LANG_C)
     942              
     943              
     944              $C$DW$T$32      .dwtag  DW_TAG_structure_type
     945                      .dwattr $C$DW$T$32, DW_AT_byte_size(0x14)
     946              $C$DW$88        .dwtag  DW_TAG_member
     947                      .dwattr $C$DW$88, DW_AT_type(*$C$DW$T$19)
     948                      .dwattr $C$DW$88, DW_AT_name("Kr")
     949                      .dwattr $C$DW$88, DW_AT_TI_symbol_name("_Kr")
     950                      .dwattr $C$DW$88, DW_AT_data_member_location[DW_OP_plus_uconst 0x0]
     951                      .dwattr $C$DW$88, DW_AT_accessibility(DW_ACCESS_public)
     952              
     953              $C$DW$89        .dwtag  DW_TAG_member
     954                      .dwattr $C$DW$89, DW_AT_type(*$C$DW$T$19)
     955                      .dwattr $C$DW$89, DW_AT_name("Kp")
     956                      .dwattr $C$DW$89, DW_AT_TI_symbol_name("_Kp")
     957                      .dwattr $C$DW$89, DW_AT_data_member_location[DW_OP_plus_uconst 0x2]
     958                      .dwattr $C$DW$89, DW_AT_accessibility(DW_ACCESS_public)
     959              
     960              $C$DW$90        .dwtag  DW_TAG_member
     961                      .dwattr $C$DW$90, DW_AT_type(*$C$DW$T$19)
     962                      .dwattr $C$DW$90, DW_AT_name("Ki")
     963                      .dwattr $C$DW$90, DW_AT_TI_symbol_name("_Ki")
TMS320C2000 Assembler PC v20.2.5 Fri Jan  6 17:23:30 2023

Copyright (c) 1996-2018 Texas Instruments Incorporated
drv8301.asm                                                          PAGE   19

     964                      .dwattr $C$DW$90, DW_AT_data_member_location[DW_OP_plus_uconst 0x4]
     965                      .dwattr $C$DW$90, DW_AT_accessibility(DW_ACCESS_public)
     966              
     967              $C$DW$91        .dwtag  DW_TAG_member
     968                      .dwattr $C$DW$91, DW_AT_type(*$C$DW$T$19)
     969                      .dwattr $C$DW$91, DW_AT_name("Kd")
     970                      .dwattr $C$DW$91, DW_AT_TI_symbol_name("_Kd")
     971                      .dwattr $C$DW$91, DW_AT_data_member_location[DW_OP_plus_uconst 0x6]
     972                      .dwattr $C$DW$91, DW_AT_accessibility(DW_ACCESS_public)
     973              
     974              $C$DW$92        .dwtag  DW_TAG_member
     975                      .dwattr $C$DW$92, DW_AT_type(*$C$DW$T$19)
     976                      .dwattr $C$DW$92, DW_AT_name("Km")
     977                      .dwattr $C$DW$92, DW_AT_TI_symbol_name("_Km")
     978                      .dwattr $C$DW$92, DW_AT_data_member_location[DW_OP_plus_uconst 0x8]
     979                      .dwattr $C$DW$92, DW_AT_accessibility(DW_ACCESS_public)
     980              
     981              $C$DW$93        .dwtag  DW_TAG_member
     982                      .dwattr $C$DW$93, DW_AT_type(*$C$DW$T$19)
     983                      .dwattr $C$DW$93, DW_AT_name("Umax")
     984                      .dwattr $C$DW$93, DW_AT_TI_symbol_name("_Umax")
     985                      .dwattr $C$DW$93, DW_AT_data_member_location[DW_OP_plus_uconst 0xa]
     986                      .dwattr $C$DW$93, DW_AT_accessibility(DW_ACCESS_public)
     987              
     988              $C$DW$94        .dwtag  DW_TAG_member
     989                      .dwattr $C$DW$94, DW_AT_type(*$C$DW$T$19)
     990                      .dwattr $C$DW$94, DW_AT_name("Umin")
     991                      .dwattr $C$DW$94, DW_AT_TI_symbol_name("_Umin")
     992                      .dwattr $C$DW$94, DW_AT_data_member_location[DW_OP_plus_uconst 0xc]
     993                      .dwattr $C$DW$94, DW_AT_accessibility(DW_ACCESS_public)
     994              
     995              $C$DW$95        .dwtag  DW_TAG_member
     996                      .dwattr $C$DW$95, DW_AT_type(*$C$DW$T$19)
     997                      .dwattr $C$DW$95, DW_AT_name("T")
     998                      .dwattr $C$DW$95, DW_AT_TI_symbol_name("_T")
     999                      .dwattr $C$DW$95, DW_AT_data_member_location[DW_OP_plus_uconst 0xe]
    1000                      .dwattr $C$DW$95, DW_AT_accessibility(DW_ACCESS_public)
    1001              
    1002              $C$DW$96        .dwtag  DW_TAG_member
    1003                      .dwattr $C$DW$96, DW_AT_type(*$C$DW$T$19)
    1004                      .dwattr $C$DW$96, DW_AT_name("divT")
    1005                      .dwattr $C$DW$96, DW_AT_TI_symbol_name("_divT")
    1006                      .dwattr $C$DW$96, DW_AT_data_member_location[DW_OP_plus_uconst 0x10]
    1007                      .dwattr $C$DW$96, DW_AT_accessibility(DW_ACCESS_public)
    1008              
    1009              $C$DW$97        .dwtag  DW_TAG_member
    1010                      .dwattr $C$DW$97, DW_AT_type(*$C$DW$T$19)
    1011                      .dwattr $C$DW$97, DW_AT_name("Kt")
    1012                      .dwattr $C$DW$97, DW_AT_TI_symbol_name("_Kt")
    1013                      .dwattr $C$DW$97, DW_AT_data_member_location[DW_OP_plus_uconst 0x12]
    1014                      .dwattr $C$DW$97, DW_AT_accessibility(DW_ACCESS_public)
    1015              
    1016                      .dwendtag $C$DW$T$32
    1017              
    1018              $C$DW$T$35      .dwtag  DW_TAG_typedef
TMS320C2000 Assembler PC v20.2.5 Fri Jan  6 17:23:30 2023

Copyright (c) 1996-2018 Texas Instruments Incorporated
drv8301.asm                                                          PAGE   20

    1019                      .dwattr $C$DW$T$35, DW_AT_name("PI_PARAMETERS")
    1020                      .dwattr $C$DW$T$35, DW_AT_type(*$C$DW$T$32)
    1021                      .dwattr $C$DW$T$35, DW_AT_language(DW_LANG_C)
    1022              
    1023              
    1024              $C$DW$T$33      .dwtag  DW_TAG_structure_type
    1025                      .dwattr $C$DW$T$33, DW_AT_byte_size(0x0a)
    1026              $C$DW$98        .dwtag  DW_TAG_member
    1027                      .dwattr $C$DW$98, DW_AT_type(*$C$DW$T$19)
    1028                      .dwattr $C$DW$98, DW_AT_name("up")
    1029                      .dwattr $C$DW$98, DW_AT_TI_symbol_name("_up")
    1030                      .dwattr $C$DW$98, DW_AT_data_member_location[DW_OP_plus_uconst 0x0]
    1031                      .dwattr $C$DW$98, DW_AT_accessibility(DW_ACCESS_public)
    1032              
    1033              $C$DW$99        .dwtag  DW_TAG_member
    1034                      .dwattr $C$DW$99, DW_AT_type(*$C$DW$T$19)
    1035                      .dwattr $C$DW$99, DW_AT_name("ui")
    1036                      .dwattr $C$DW$99, DW_AT_TI_symbol_name("_ui")
    1037                      .dwattr $C$DW$99, DW_AT_data_member_location[DW_OP_plus_uconst 0x2]
    1038                      .dwattr $C$DW$99, DW_AT_accessibility(DW_ACCESS_public)
    1039              
    1040              $C$DW$100       .dwtag  DW_TAG_member
    1041                      .dwattr $C$DW$100, DW_AT_type(*$C$DW$T$19)
    1042                      .dwattr $C$DW$100, DW_AT_name("v1")
    1043                      .dwattr $C$DW$100, DW_AT_TI_symbol_name("_v1")
    1044                      .dwattr $C$DW$100, DW_AT_data_member_location[DW_OP_plus_uconst 0x4]
    1045                      .dwattr $C$DW$100, DW_AT_accessibility(DW_ACCESS_public)
    1046              
    1047              $C$DW$101       .dwtag  DW_TAG_member
    1048                      .dwattr $C$DW$101, DW_AT_type(*$C$DW$T$19)
    1049                      .dwattr $C$DW$101, DW_AT_name("i1")
    1050                      .dwattr $C$DW$101, DW_AT_TI_symbol_name("_i1")
    1051                      .dwattr $C$DW$101, DW_AT_data_member_location[DW_OP_plus_uconst 0x6]
    1052                      .dwattr $C$DW$101, DW_AT_accessibility(DW_ACCESS_public)
    1053              
    1054              $C$DW$102       .dwtag  DW_TAG_member
    1055                      .dwattr $C$DW$102, DW_AT_type(*$C$DW$T$19)
    1056                      .dwattr $C$DW$102, DW_AT_name("w1")
    1057                      .dwattr $C$DW$102, DW_AT_TI_symbol_name("_w1")
    1058                      .dwattr $C$DW$102, DW_AT_data_member_location[DW_OP_plus_uconst 0x8]
    1059                      .dwattr $C$DW$102, DW_AT_accessibility(DW_ACCESS_public)
    1060              
    1061                      .dwendtag $C$DW$T$33
    1062              
    1063              $C$DW$T$36      .dwtag  DW_TAG_typedef
    1064                      .dwattr $C$DW$T$36, DW_AT_name("PI_DATA")
    1065                      .dwattr $C$DW$T$36, DW_AT_type(*$C$DW$T$33)
    1066                      .dwattr $C$DW$T$36, DW_AT_language(DW_LANG_C)
    1067              
    1068              
    1069              $C$DW$T$37      .dwtag  DW_TAG_structure_type
    1070                      .dwattr $C$DW$T$37, DW_AT_byte_size(0x28)
    1071              $C$DW$103       .dwtag  DW_TAG_member
    1072                      .dwattr $C$DW$103, DW_AT_type(*$C$DW$T$34)
    1073                      .dwattr $C$DW$103, DW_AT_name("term")
TMS320C2000 Assembler PC v20.2.5 Fri Jan  6 17:23:30 2023

Copyright (c) 1996-2018 Texas Instruments Incorporated
drv8301.asm                                                          PAGE   21

    1074                      .dwattr $C$DW$103, DW_AT_TI_symbol_name("_term")
    1075                      .dwattr $C$DW$103, DW_AT_data_member_location[DW_OP_plus_uconst 0x0]
    1076                      .dwattr $C$DW$103, DW_AT_accessibility(DW_ACCESS_public)
    1077              
    1078              $C$DW$104       .dwtag  DW_TAG_member
    1079                      .dwattr $C$DW$104, DW_AT_type(*$C$DW$T$35)
    1080                      .dwattr $C$DW$104, DW_AT_name("param")
    1081                      .dwattr $C$DW$104, DW_AT_TI_symbol_name("_param")
    1082                      .dwattr $C$DW$104, DW_AT_data_member_location[DW_OP_plus_uconst 0xa]
    1083                      .dwattr $C$DW$104, DW_AT_accessibility(DW_ACCESS_public)
    1084              
    1085              $C$DW$105       .dwtag  DW_TAG_member
    1086                      .dwattr $C$DW$105, DW_AT_type(*$C$DW$T$36)
    1087                      .dwattr $C$DW$105, DW_AT_name("data")
    1088                      .dwattr $C$DW$105, DW_AT_TI_symbol_name("_data")
    1089                      .dwattr $C$DW$105, DW_AT_data_member_location[DW_OP_plus_uconst 0x1e]
    1090                      .dwattr $C$DW$105, DW_AT_accessibility(DW_ACCESS_public)
    1091              
    1092                      .dwendtag $C$DW$T$37
    1093              
    1094              $C$DW$T$80      .dwtag  DW_TAG_typedef
    1095                      .dwattr $C$DW$T$80, DW_AT_name("PI_SPEED_CONTROLLER")
    1096                      .dwattr $C$DW$T$80, DW_AT_type(*$C$DW$T$37)
    1097                      .dwattr $C$DW$T$80, DW_AT_language(DW_LANG_C)
    1098              
    1099              
    1100              $C$DW$T$39      .dwtag  DW_TAG_structure_type
    1101                      .dwattr $C$DW$T$39, DW_AT_byte_size(0x12)
    1102              $C$DW$106       .dwtag  DW_TAG_member
    1103                      .dwattr $C$DW$106, DW_AT_type(*$C$DW$T$19)
    1104                      .dwattr $C$DW$106, DW_AT_name("Ualpha")
    1105                      .dwattr $C$DW$106, DW_AT_TI_symbol_name("_Ualpha")
    1106                      .dwattr $C$DW$106, DW_AT_data_member_location[DW_OP_plus_uconst 0x0]
    1107                      .dwattr $C$DW$106, DW_AT_accessibility(DW_ACCESS_public)
    1108              
    1109              $C$DW$107       .dwtag  DW_TAG_member
    1110                      .dwattr $C$DW$107, DW_AT_type(*$C$DW$T$19)
    1111                      .dwattr $C$DW$107, DW_AT_name("Ubeta")
    1112                      .dwattr $C$DW$107, DW_AT_TI_symbol_name("_Ubeta")
    1113                      .dwattr $C$DW$107, DW_AT_data_member_location[DW_OP_plus_uconst 0x2]
    1114                      .dwattr $C$DW$107, DW_AT_accessibility(DW_ACCESS_public)
    1115              
    1116              $C$DW$108       .dwtag  DW_TAG_member
    1117                      .dwattr $C$DW$108, DW_AT_type(*$C$DW$T$19)
    1118                      .dwattr $C$DW$108, DW_AT_name("Ta")
    1119                      .dwattr $C$DW$108, DW_AT_TI_symbol_name("_Ta")
    1120                      .dwattr $C$DW$108, DW_AT_data_member_location[DW_OP_plus_uconst 0x4]
    1121                      .dwattr $C$DW$108, DW_AT_accessibility(DW_ACCESS_public)
    1122              
    1123              $C$DW$109       .dwtag  DW_TAG_member
    1124                      .dwattr $C$DW$109, DW_AT_type(*$C$DW$T$19)
    1125                      .dwattr $C$DW$109, DW_AT_name("Tb")
    1126                      .dwattr $C$DW$109, DW_AT_TI_symbol_name("_Tb")
    1127                      .dwattr $C$DW$109, DW_AT_data_member_location[DW_OP_plus_uconst 0x6]
    1128                      .dwattr $C$DW$109, DW_AT_accessibility(DW_ACCESS_public)
TMS320C2000 Assembler PC v20.2.5 Fri Jan  6 17:23:30 2023

Copyright (c) 1996-2018 Texas Instruments Incorporated
drv8301.asm                                                          PAGE   22

    1129              
    1130              $C$DW$110       .dwtag  DW_TAG_member
    1131                      .dwattr $C$DW$110, DW_AT_type(*$C$DW$T$19)
    1132                      .dwattr $C$DW$110, DW_AT_name("Tc")
    1133                      .dwattr $C$DW$110, DW_AT_TI_symbol_name("_Tc")
    1134                      .dwattr $C$DW$110, DW_AT_data_member_location[DW_OP_plus_uconst 0x8]
    1135                      .dwattr $C$DW$110, DW_AT_accessibility(DW_ACCESS_public)
    1136              
    1137              $C$DW$111       .dwtag  DW_TAG_member
    1138                      .dwattr $C$DW$111, DW_AT_type(*$C$DW$T$19)
    1139                      .dwattr $C$DW$111, DW_AT_name("tmp1")
    1140                      .dwattr $C$DW$111, DW_AT_TI_symbol_name("_tmp1")
    1141                      .dwattr $C$DW$111, DW_AT_data_member_location[DW_OP_plus_uconst 0xa]
    1142                      .dwattr $C$DW$111, DW_AT_accessibility(DW_ACCESS_public)
    1143              
    1144              $C$DW$112       .dwtag  DW_TAG_member
    1145                      .dwattr $C$DW$112, DW_AT_type(*$C$DW$T$19)
    1146                      .dwattr $C$DW$112, DW_AT_name("tmp2")
    1147                      .dwattr $C$DW$112, DW_AT_TI_symbol_name("_tmp2")
    1148                      .dwattr $C$DW$112, DW_AT_data_member_location[DW_OP_plus_uconst 0xc]
    1149                      .dwattr $C$DW$112, DW_AT_accessibility(DW_ACCESS_public)
    1150              
    1151              $C$DW$113       .dwtag  DW_TAG_member
    1152                      .dwattr $C$DW$113, DW_AT_type(*$C$DW$T$19)
    1153                      .dwattr $C$DW$113, DW_AT_name("tmp3")
    1154                      .dwattr $C$DW$113, DW_AT_TI_symbol_name("_tmp3")
    1155                      .dwattr $C$DW$113, DW_AT_data_member_location[DW_OP_plus_uconst 0xe]
    1156                      .dwattr $C$DW$113, DW_AT_accessibility(DW_ACCESS_public)
    1157              
    1158              $C$DW$114       .dwtag  DW_TAG_member
    1159                      .dwattr $C$DW$114, DW_AT_type(*$C$DW$T$38)
    1160                      .dwattr $C$DW$114, DW_AT_name("VecSector")
    1161                      .dwattr $C$DW$114, DW_AT_TI_symbol_name("_VecSector")
    1162                      .dwattr $C$DW$114, DW_AT_data_member_location[DW_OP_plus_uconst 0x10]
    1163                      .dwattr $C$DW$114, DW_AT_accessibility(DW_ACCESS_public)
    1164              
    1165                      .dwendtag $C$DW$T$39
    1166              
    1167              $C$DW$T$81      .dwtag  DW_TAG_typedef
    1168                      .dwattr $C$DW$T$81, DW_AT_name("SVGEN")
    1169                      .dwattr $C$DW$T$81, DW_AT_type(*$C$DW$T$39)
    1170                      .dwattr $C$DW$T$81, DW_AT_language(DW_LANG_C)
    1171              
    1172              
    1173              $C$DW$T$41      .dwtag  DW_TAG_structure_type
    1174                      .dwattr $C$DW$T$41, DW_AT_byte_size(0x10)
    1175              $C$DW$115       .dwtag  DW_TAG_member
    1176                      .dwattr $C$DW$115, DW_AT_type(*$C$DW$T$19)
    1177                      .dwattr $C$DW$115, DW_AT_name("TargetValue")
    1178                      .dwattr $C$DW$115, DW_AT_TI_symbol_name("_TargetValue")
    1179                      .dwattr $C$DW$115, DW_AT_data_member_location[DW_OP_plus_uconst 0x0]
    1180                      .dwattr $C$DW$115, DW_AT_accessibility(DW_ACCESS_public)
    1181              
    1182              $C$DW$116       .dwtag  DW_TAG_member
    1183                      .dwattr $C$DW$116, DW_AT_type(*$C$DW$T$40)
TMS320C2000 Assembler PC v20.2.5 Fri Jan  6 17:23:30 2023

Copyright (c) 1996-2018 Texas Instruments Incorporated
drv8301.asm                                                          PAGE   23

    1184                      .dwattr $C$DW$116, DW_AT_name("RampDelayMax")
    1185                      .dwattr $C$DW$116, DW_AT_TI_symbol_name("_RampDelayMax")
    1186                      .dwattr $C$DW$116, DW_AT_data_member_location[DW_OP_plus_uconst 0x2]
    1187                      .dwattr $C$DW$116, DW_AT_accessibility(DW_ACCESS_public)
    1188              
    1189              $C$DW$117       .dwtag  DW_TAG_member
    1190                      .dwattr $C$DW$117, DW_AT_type(*$C$DW$T$19)
    1191                      .dwattr $C$DW$117, DW_AT_name("RampLowLimit")
    1192                      .dwattr $C$DW$117, DW_AT_TI_symbol_name("_RampLowLimit")
    1193                      .dwattr $C$DW$117, DW_AT_data_member_location[DW_OP_plus_uconst 0x4]
    1194                      .dwattr $C$DW$117, DW_AT_accessibility(DW_ACCESS_public)
    1195              
    1196              $C$DW$118       .dwtag  DW_TAG_member
    1197                      .dwattr $C$DW$118, DW_AT_type(*$C$DW$T$19)
    1198                      .dwattr $C$DW$118, DW_AT_name("RampHighLimit")
    1199                      .dwattr $C$DW$118, DW_AT_TI_symbol_name("_RampHighLimit")
    1200                      .dwattr $C$DW$118, DW_AT_data_member_location[DW_OP_plus_uconst 0x6]
    1201                      .dwattr $C$DW$118, DW_AT_accessibility(DW_ACCESS_public)
    1202              
    1203              $C$DW$119       .dwtag  DW_TAG_member
    1204                      .dwattr $C$DW$119, DW_AT_type(*$C$DW$T$40)
    1205                      .dwattr $C$DW$119, DW_AT_name("RampDelayCount")
    1206                      .dwattr $C$DW$119, DW_AT_TI_symbol_name("_RampDelayCount")
    1207                      .dwattr $C$DW$119, DW_AT_data_member_location[DW_OP_plus_uconst 0x8]
    1208                      .dwattr $C$DW$119, DW_AT_accessibility(DW_ACCESS_public)
    1209              
    1210              $C$DW$120       .dwtag  DW_TAG_member
    1211                      .dwattr $C$DW$120, DW_AT_type(*$C$DW$T$19)
    1212                      .dwattr $C$DW$120, DW_AT_name("SetpointValue")
    1213                      .dwattr $C$DW$120, DW_AT_TI_symbol_name("_SetpointValue")
    1214                      .dwattr $C$DW$120, DW_AT_data_member_location[DW_OP_plus_uconst 0xa]
    1215                      .dwattr $C$DW$120, DW_AT_accessibility(DW_ACCESS_public)
    1216              
    1217              $C$DW$121       .dwtag  DW_TAG_member
    1218                      .dwattr $C$DW$121, DW_AT_type(*$C$DW$T$40)
    1219                      .dwattr $C$DW$121, DW_AT_name("EqualFlag")
    1220                      .dwattr $C$DW$121, DW_AT_TI_symbol_name("_EqualFlag")
    1221                      .dwattr $C$DW$121, DW_AT_data_member_location[DW_OP_plus_uconst 0xc]
    1222                      .dwattr $C$DW$121, DW_AT_accessibility(DW_ACCESS_public)
    1223              
    1224              $C$DW$122       .dwtag  DW_TAG_member
    1225                      .dwattr $C$DW$122, DW_AT_type(*$C$DW$T$19)
    1226                      .dwattr $C$DW$122, DW_AT_name("Tmp")
    1227                      .dwattr $C$DW$122, DW_AT_TI_symbol_name("_Tmp")
    1228                      .dwattr $C$DW$122, DW_AT_data_member_location[DW_OP_plus_uconst 0xe]
    1229                      .dwattr $C$DW$122, DW_AT_accessibility(DW_ACCESS_public)
    1230              
    1231                      .dwendtag $C$DW$T$41
    1232              
    1233              $C$DW$T$82      .dwtag  DW_TAG_typedef
    1234                      .dwattr $C$DW$T$82, DW_AT_name("RMPCNTL")
    1235                      .dwattr $C$DW$T$82, DW_AT_type(*$C$DW$T$41)
    1236                      .dwattr $C$DW$T$82, DW_AT_language(DW_LANG_C)
    1237              
    1238              
TMS320C2000 Assembler PC v20.2.5 Fri Jan  6 17:23:30 2023

Copyright (c) 1996-2018 Texas Instruments Incorporated
drv8301.asm                                                          PAGE   24

    1239              $C$DW$T$42      .dwtag  DW_TAG_structure_type
    1240                      .dwattr $C$DW$T$42, DW_AT_byte_size(0x0c)
    1241              $C$DW$123       .dwtag  DW_TAG_member
    1242                      .dwattr $C$DW$123, DW_AT_type(*$C$DW$T$19)
    1243                      .dwattr $C$DW$123, DW_AT_name("Freq")
    1244                      .dwattr $C$DW$123, DW_AT_TI_symbol_name("_Freq")
    1245                      .dwattr $C$DW$123, DW_AT_data_member_location[DW_OP_plus_uconst 0x0]
    1246                      .dwattr $C$DW$123, DW_AT_accessibility(DW_ACCESS_public)
    1247              
    1248              $C$DW$124       .dwtag  DW_TAG_member
    1249                      .dwattr $C$DW$124, DW_AT_type(*$C$DW$T$19)
    1250                      .dwattr $C$DW$124, DW_AT_name("StepAngleMax")
    1251                      .dwattr $C$DW$124, DW_AT_TI_symbol_name("_StepAngleMax")
    1252                      .dwattr $C$DW$124, DW_AT_data_member_location[DW_OP_plus_uconst 0x2]
    1253                      .dwattr $C$DW$124, DW_AT_accessibility(DW_ACCESS_public)
    1254              
    1255              $C$DW$125       .dwtag  DW_TAG_member
    1256                      .dwattr $C$DW$125, DW_AT_type(*$C$DW$T$19)
    1257                      .dwattr $C$DW$125, DW_AT_name("Angle")
    1258                      .dwattr $C$DW$125, DW_AT_TI_symbol_name("_Angle")
    1259                      .dwattr $C$DW$125, DW_AT_data_member_location[DW_OP_plus_uconst 0x4]
    1260                      .dwattr $C$DW$125, DW_AT_accessibility(DW_ACCESS_public)
    1261              
    1262              $C$DW$126       .dwtag  DW_TAG_member
    1263                      .dwattr $C$DW$126, DW_AT_type(*$C$DW$T$19)
    1264                      .dwattr $C$DW$126, DW_AT_name("Gain")
    1265                      .dwattr $C$DW$126, DW_AT_TI_symbol_name("_Gain")
    1266                      .dwattr $C$DW$126, DW_AT_data_member_location[DW_OP_plus_uconst 0x6]
    1267                      .dwattr $C$DW$126, DW_AT_accessibility(DW_ACCESS_public)
    1268              
    1269              $C$DW$127       .dwtag  DW_TAG_member
    1270                      .dwattr $C$DW$127, DW_AT_type(*$C$DW$T$19)
    1271                      .dwattr $C$DW$127, DW_AT_name("Out")
    1272                      .dwattr $C$DW$127, DW_AT_TI_symbol_name("_Out")
    1273                      .dwattr $C$DW$127, DW_AT_data_member_location[DW_OP_plus_uconst 0x8]
    1274                      .dwattr $C$DW$127, DW_AT_accessibility(DW_ACCESS_public)
    1275              
    1276              $C$DW$128       .dwtag  DW_TAG_member
    1277                      .dwattr $C$DW$128, DW_AT_type(*$C$DW$T$19)
    1278                      .dwattr $C$DW$128, DW_AT_name("Offset")
    1279                      .dwattr $C$DW$128, DW_AT_TI_symbol_name("_Offset")
    1280                      .dwattr $C$DW$128, DW_AT_data_member_location[DW_OP_plus_uconst 0xa]
    1281                      .dwattr $C$DW$128, DW_AT_accessibility(DW_ACCESS_public)
    1282              
    1283                      .dwendtag $C$DW$T$42
    1284              
    1285              $C$DW$T$83      .dwtag  DW_TAG_typedef
    1286                      .dwattr $C$DW$T$83, DW_AT_name("RAMPGEN")
    1287                      .dwattr $C$DW$T$83, DW_AT_type(*$C$DW$T$42)
    1288                      .dwattr $C$DW$T$83, DW_AT_language(DW_LANG_C)
    1289              
    1290              
    1291              $C$DW$T$43      .dwtag  DW_TAG_structure_type
    1292                      .dwattr $C$DW$T$43, DW_AT_byte_size(0x16)
    1293              $C$DW$129       .dwtag  DW_TAG_member
TMS320C2000 Assembler PC v20.2.5 Fri Jan  6 17:23:30 2023

Copyright (c) 1996-2018 Texas Instruments Incorporated
drv8301.asm                                                          PAGE   25

    1294                      .dwattr $C$DW$129, DW_AT_type(*$C$DW$T$19)
    1295                      .dwattr $C$DW$129, DW_AT_name("DcBusVolt")
    1296                      .dwattr $C$DW$129, DW_AT_TI_symbol_name("_DcBusVolt")
    1297                      .dwattr $C$DW$129, DW_AT_data_member_location[DW_OP_plus_uconst 0x0]
    1298                      .dwattr $C$DW$129, DW_AT_accessibility(DW_ACCESS_public)
    1299              
    1300              $C$DW$130       .dwtag  DW_TAG_member
    1301                      .dwattr $C$DW$130, DW_AT_type(*$C$DW$T$19)
    1302                      .dwattr $C$DW$130, DW_AT_name("MfuncV1")
    1303                      .dwattr $C$DW$130, DW_AT_TI_symbol_name("_MfuncV1")
    1304                      .dwattr $C$DW$130, DW_AT_data_member_location[DW_OP_plus_uconst 0x2]
    1305                      .dwattr $C$DW$130, DW_AT_accessibility(DW_ACCESS_public)
    1306              
    1307              $C$DW$131       .dwtag  DW_TAG_member
    1308                      .dwattr $C$DW$131, DW_AT_type(*$C$DW$T$19)
    1309                      .dwattr $C$DW$131, DW_AT_name("MfuncV2")
    1310                      .dwattr $C$DW$131, DW_AT_TI_symbol_name("_MfuncV2")
    1311                      .dwattr $C$DW$131, DW_AT_data_member_location[DW_OP_plus_uconst 0x4]
    1312                      .dwattr $C$DW$131, DW_AT_accessibility(DW_ACCESS_public)
    1313              
    1314              $C$DW$132       .dwtag  DW_TAG_member
    1315                      .dwattr $C$DW$132, DW_AT_type(*$C$DW$T$19)
    1316                      .dwattr $C$DW$132, DW_AT_name("MfuncV3")
    1317                      .dwattr $C$DW$132, DW_AT_TI_symbol_name("_MfuncV3")
    1318                      .dwattr $C$DW$132, DW_AT_data_member_location[DW_OP_plus_uconst 0x6]
    1319                      .dwattr $C$DW$132, DW_AT_accessibility(DW_ACCESS_public)
    1320              
    1321              $C$DW$133       .dwtag  DW_TAG_member
    1322                      .dwattr $C$DW$133, DW_AT_type(*$C$DW$T$38)
    1323                      .dwattr $C$DW$133, DW_AT_name("OutOfPhase")
    1324                      .dwattr $C$DW$133, DW_AT_TI_symbol_name("_OutOfPhase")
    1325                      .dwattr $C$DW$133, DW_AT_data_member_location[DW_OP_plus_uconst 0x8]
    1326                      .dwattr $C$DW$133, DW_AT_accessibility(DW_ACCESS_public)
    1327              
    1328              $C$DW$134       .dwtag  DW_TAG_member
    1329                      .dwattr $C$DW$134, DW_AT_type(*$C$DW$T$19)
    1330                      .dwattr $C$DW$134, DW_AT_name("VphaseA")
    1331                      .dwattr $C$DW$134, DW_AT_TI_symbol_name("_VphaseA")
    1332                      .dwattr $C$DW$134, DW_AT_data_member_location[DW_OP_plus_uconst 0xa]
    1333                      .dwattr $C$DW$134, DW_AT_accessibility(DW_ACCESS_public)
    1334              
    1335              $C$DW$135       .dwtag  DW_TAG_member
    1336                      .dwattr $C$DW$135, DW_AT_type(*$C$DW$T$19)
    1337                      .dwattr $C$DW$135, DW_AT_name("VphaseB")
    1338                      .dwattr $C$DW$135, DW_AT_TI_symbol_name("_VphaseB")
    1339                      .dwattr $C$DW$135, DW_AT_data_member_location[DW_OP_plus_uconst 0xc]
    1340                      .dwattr $C$DW$135, DW_AT_accessibility(DW_ACCESS_public)
    1341              
    1342              $C$DW$136       .dwtag  DW_TAG_member
    1343                      .dwattr $C$DW$136, DW_AT_type(*$C$DW$T$19)
    1344                      .dwattr $C$DW$136, DW_AT_name("VphaseC")
    1345                      .dwattr $C$DW$136, DW_AT_TI_symbol_name("_VphaseC")
    1346                      .dwattr $C$DW$136, DW_AT_data_member_location[DW_OP_plus_uconst 0xe]
    1347                      .dwattr $C$DW$136, DW_AT_accessibility(DW_ACCESS_public)
    1348              
TMS320C2000 Assembler PC v20.2.5 Fri Jan  6 17:23:30 2023

Copyright (c) 1996-2018 Texas Instruments Incorporated
drv8301.asm                                                          PAGE   26

    1349              $C$DW$137       .dwtag  DW_TAG_member
    1350                      .dwattr $C$DW$137, DW_AT_type(*$C$DW$T$19)
    1351                      .dwattr $C$DW$137, DW_AT_name("Valpha")
    1352                      .dwattr $C$DW$137, DW_AT_TI_symbol_name("_Valpha")
    1353                      .dwattr $C$DW$137, DW_AT_data_member_location[DW_OP_plus_uconst 0x10]
    1354                      .dwattr $C$DW$137, DW_AT_accessibility(DW_ACCESS_public)
    1355              
    1356              $C$DW$138       .dwtag  DW_TAG_member
    1357                      .dwattr $C$DW$138, DW_AT_type(*$C$DW$T$19)
    1358                      .dwattr $C$DW$138, DW_AT_name("Vbeta")
    1359                      .dwattr $C$DW$138, DW_AT_TI_symbol_name("_Vbeta")
    1360                      .dwattr $C$DW$138, DW_AT_data_member_location[DW_OP_plus_uconst 0x12]
    1361                      .dwattr $C$DW$138, DW_AT_accessibility(DW_ACCESS_public)
    1362              
    1363              $C$DW$139       .dwtag  DW_TAG_member
    1364                      .dwattr $C$DW$139, DW_AT_type(*$C$DW$T$19)
    1365                      .dwattr $C$DW$139, DW_AT_name("temp")
    1366                      .dwattr $C$DW$139, DW_AT_TI_symbol_name("_temp")
    1367                      .dwattr $C$DW$139, DW_AT_data_member_location[DW_OP_plus_uconst 0x14]
    1368                      .dwattr $C$DW$139, DW_AT_accessibility(DW_ACCESS_public)
    1369              
    1370                      .dwendtag $C$DW$T$43
    1371              
    1372              $C$DW$T$84      .dwtag  DW_TAG_typedef
    1373                      .dwattr $C$DW$T$84, DW_AT_name("PHASEVOLTAGE")
    1374                      .dwattr $C$DW$T$84, DW_AT_type(*$C$DW$T$43)
    1375                      .dwattr $C$DW$T$84, DW_AT_language(DW_LANG_C)
    1376              
    1377              
    1378              $C$DW$T$45      .dwtag  DW_TAG_structure_type
    1379                      .dwattr $C$DW$T$45, DW_AT_byte_size(0x0e)
    1380              $C$DW$140       .dwtag  DW_TAG_member
    1381                      .dwattr $C$DW$140, DW_AT_type(*$C$DW$T$44)
    1382                      .dwattr $C$DW$140, DW_AT_name("Rs")
    1383                      .dwattr $C$DW$140, DW_AT_TI_symbol_name("_Rs")
    1384                      .dwattr $C$DW$140, DW_AT_data_member_location[DW_OP_plus_uconst 0x0]
    1385                      .dwattr $C$DW$140, DW_AT_accessibility(DW_ACCESS_public)
    1386              
    1387              $C$DW$141       .dwtag  DW_TAG_member
    1388                      .dwattr $C$DW$141, DW_AT_type(*$C$DW$T$44)
    1389                      .dwattr $C$DW$141, DW_AT_name("Ls")
    1390                      .dwattr $C$DW$141, DW_AT_TI_symbol_name("_Ls")
    1391                      .dwattr $C$DW$141, DW_AT_data_member_location[DW_OP_plus_uconst 0x2]
    1392                      .dwattr $C$DW$141, DW_AT_accessibility(DW_ACCESS_public)
    1393              
    1394              $C$DW$142       .dwtag  DW_TAG_member
    1395                      .dwattr $C$DW$142, DW_AT_type(*$C$DW$T$44)
    1396                      .dwattr $C$DW$142, DW_AT_name("Ib")
    1397                      .dwattr $C$DW$142, DW_AT_TI_symbol_name("_Ib")
    1398                      .dwattr $C$DW$142, DW_AT_data_member_location[DW_OP_plus_uconst 0x4]
    1399                      .dwattr $C$DW$142, DW_AT_accessibility(DW_ACCESS_public)
    1400              
    1401              $C$DW$143       .dwtag  DW_TAG_member
    1402                      .dwattr $C$DW$143, DW_AT_type(*$C$DW$T$44)
    1403                      .dwattr $C$DW$143, DW_AT_name("Vb")
TMS320C2000 Assembler PC v20.2.5 Fri Jan  6 17:23:30 2023

Copyright (c) 1996-2018 Texas Instruments Incorporated
drv8301.asm                                                          PAGE   27

    1404                      .dwattr $C$DW$143, DW_AT_TI_symbol_name("_Vb")
    1405                      .dwattr $C$DW$143, DW_AT_data_member_location[DW_OP_plus_uconst 0x6]
    1406                      .dwattr $C$DW$143, DW_AT_accessibility(DW_ACCESS_public)
    1407              
    1408              $C$DW$144       .dwtag  DW_TAG_member
    1409                      .dwattr $C$DW$144, DW_AT_type(*$C$DW$T$44)
    1410                      .dwattr $C$DW$144, DW_AT_name("Ts")
    1411                      .dwattr $C$DW$144, DW_AT_TI_symbol_name("_Ts")
    1412                      .dwattr $C$DW$144, DW_AT_data_member_location[DW_OP_plus_uconst 0x8]
    1413                      .dwattr $C$DW$144, DW_AT_accessibility(DW_ACCESS_public)
    1414              
    1415              $C$DW$145       .dwtag  DW_TAG_member
    1416                      .dwattr $C$DW$145, DW_AT_type(*$C$DW$T$44)
    1417                      .dwattr $C$DW$145, DW_AT_name("Fsmopos")
    1418                      .dwattr $C$DW$145, DW_AT_TI_symbol_name("_Fsmopos")
    1419                      .dwattr $C$DW$145, DW_AT_data_member_location[DW_OP_plus_uconst 0xa]
    1420                      .dwattr $C$DW$145, DW_AT_accessibility(DW_ACCESS_public)
    1421              
    1422              $C$DW$146       .dwtag  DW_TAG_member
    1423                      .dwattr $C$DW$146, DW_AT_type(*$C$DW$T$44)
    1424                      .dwattr $C$DW$146, DW_AT_name("Gsmopos")
    1425                      .dwattr $C$DW$146, DW_AT_TI_symbol_name("_Gsmopos")
    1426                      .dwattr $C$DW$146, DW_AT_data_member_location[DW_OP_plus_uconst 0xc]
    1427                      .dwattr $C$DW$146, DW_AT_accessibility(DW_ACCESS_public)
    1428              
    1429                      .dwendtag $C$DW$T$45
    1430              
    1431              $C$DW$T$85      .dwtag  DW_TAG_typedef
    1432                      .dwattr $C$DW$T$85, DW_AT_name("SMOPOS_CONST")
    1433                      .dwattr $C$DW$T$85, DW_AT_type(*$C$DW$T$45)
    1434                      .dwattr $C$DW$T$85, DW_AT_language(DW_LANG_C)
    1435              
    1436              
    1437              $C$DW$T$46      .dwtag  DW_TAG_structure_type
    1438                      .dwattr $C$DW$T$46, DW_AT_byte_size(0x24)
    1439              $C$DW$147       .dwtag  DW_TAG_member
    1440                      .dwattr $C$DW$147, DW_AT_type(*$C$DW$T$19)
    1441                      .dwattr $C$DW$147, DW_AT_name("Valpha")
    1442                      .dwattr $C$DW$147, DW_AT_TI_symbol_name("_Valpha")
    1443                      .dwattr $C$DW$147, DW_AT_data_member_location[DW_OP_plus_uconst 0x0]
    1444                      .dwattr $C$DW$147, DW_AT_accessibility(DW_ACCESS_public)
    1445              
    1446              $C$DW$148       .dwtag  DW_TAG_member
    1447                      .dwattr $C$DW$148, DW_AT_type(*$C$DW$T$19)
    1448                      .dwattr $C$DW$148, DW_AT_name("Ealpha")
    1449                      .dwattr $C$DW$148, DW_AT_TI_symbol_name("_Ealpha")
    1450                      .dwattr $C$DW$148, DW_AT_data_member_location[DW_OP_plus_uconst 0x2]
    1451                      .dwattr $C$DW$148, DW_AT_accessibility(DW_ACCESS_public)
    1452              
    1453              $C$DW$149       .dwtag  DW_TAG_member
    1454                      .dwattr $C$DW$149, DW_AT_type(*$C$DW$T$19)
    1455                      .dwattr $C$DW$149, DW_AT_name("Zalpha")
    1456                      .dwattr $C$DW$149, DW_AT_TI_symbol_name("_Zalpha")
    1457                      .dwattr $C$DW$149, DW_AT_data_member_location[DW_OP_plus_uconst 0x4]
    1458                      .dwattr $C$DW$149, DW_AT_accessibility(DW_ACCESS_public)
TMS320C2000 Assembler PC v20.2.5 Fri Jan  6 17:23:30 2023

Copyright (c) 1996-2018 Texas Instruments Incorporated
drv8301.asm                                                          PAGE   28

    1459              
    1460              $C$DW$150       .dwtag  DW_TAG_member
    1461                      .dwattr $C$DW$150, DW_AT_type(*$C$DW$T$19)
    1462                      .dwattr $C$DW$150, DW_AT_name("Gsmopos")
    1463                      .dwattr $C$DW$150, DW_AT_TI_symbol_name("_Gsmopos")
    1464                      .dwattr $C$DW$150, DW_AT_data_member_location[DW_OP_plus_uconst 0x6]
    1465                      .dwattr $C$DW$150, DW_AT_accessibility(DW_ACCESS_public)
    1466              
    1467              $C$DW$151       .dwtag  DW_TAG_member
    1468                      .dwattr $C$DW$151, DW_AT_type(*$C$DW$T$19)
    1469                      .dwattr $C$DW$151, DW_AT_name("EstIalpha")
    1470                      .dwattr $C$DW$151, DW_AT_TI_symbol_name("_EstIalpha")
    1471                      .dwattr $C$DW$151, DW_AT_data_member_location[DW_OP_plus_uconst 0x8]
    1472                      .dwattr $C$DW$151, DW_AT_accessibility(DW_ACCESS_public)
    1473              
    1474              $C$DW$152       .dwtag  DW_TAG_member
    1475                      .dwattr $C$DW$152, DW_AT_type(*$C$DW$T$19)
    1476                      .dwattr $C$DW$152, DW_AT_name("Fsmopos")
    1477                      .dwattr $C$DW$152, DW_AT_TI_symbol_name("_Fsmopos")
    1478                      .dwattr $C$DW$152, DW_AT_data_member_location[DW_OP_plus_uconst 0xa]
    1479                      .dwattr $C$DW$152, DW_AT_accessibility(DW_ACCESS_public)
    1480              
    1481              $C$DW$153       .dwtag  DW_TAG_member
    1482                      .dwattr $C$DW$153, DW_AT_type(*$C$DW$T$19)
    1483                      .dwattr $C$DW$153, DW_AT_name("Vbeta")
    1484                      .dwattr $C$DW$153, DW_AT_TI_symbol_name("_Vbeta")
    1485                      .dwattr $C$DW$153, DW_AT_data_member_location[DW_OP_plus_uconst 0xc]
    1486                      .dwattr $C$DW$153, DW_AT_accessibility(DW_ACCESS_public)
    1487              
    1488              $C$DW$154       .dwtag  DW_TAG_member
    1489                      .dwattr $C$DW$154, DW_AT_type(*$C$DW$T$19)
    1490                      .dwattr $C$DW$154, DW_AT_name("Ebeta")
    1491                      .dwattr $C$DW$154, DW_AT_TI_symbol_name("_Ebeta")
    1492                      .dwattr $C$DW$154, DW_AT_data_member_location[DW_OP_plus_uconst 0xe]
    1493                      .dwattr $C$DW$154, DW_AT_accessibility(DW_ACCESS_public)
    1494              
    1495              $C$DW$155       .dwtag  DW_TAG_member
    1496                      .dwattr $C$DW$155, DW_AT_type(*$C$DW$T$19)
    1497                      .dwattr $C$DW$155, DW_AT_name("Zbeta")
    1498                      .dwattr $C$DW$155, DW_AT_TI_symbol_name("_Zbeta")
    1499                      .dwattr $C$DW$155, DW_AT_data_member_location[DW_OP_plus_uconst 0x10]
    1500                      .dwattr $C$DW$155, DW_AT_accessibility(DW_ACCESS_public)
    1501              
    1502              $C$DW$156       .dwtag  DW_TAG_member
    1503                      .dwattr $C$DW$156, DW_AT_type(*$C$DW$T$19)
    1504                      .dwattr $C$DW$156, DW_AT_name("EstIbeta")
    1505                      .dwattr $C$DW$156, DW_AT_TI_symbol_name("_EstIbeta")
    1506                      .dwattr $C$DW$156, DW_AT_data_member_location[DW_OP_plus_uconst 0x12]
    1507                      .dwattr $C$DW$156, DW_AT_accessibility(DW_ACCESS_public)
    1508              
    1509              $C$DW$157       .dwtag  DW_TAG_member
    1510                      .dwattr $C$DW$157, DW_AT_type(*$C$DW$T$19)
    1511                      .dwattr $C$DW$157, DW_AT_name("Ialpha")
    1512                      .dwattr $C$DW$157, DW_AT_TI_symbol_name("_Ialpha")
    1513                      .dwattr $C$DW$157, DW_AT_data_member_location[DW_OP_plus_uconst 0x14]
TMS320C2000 Assembler PC v20.2.5 Fri Jan  6 17:23:30 2023

Copyright (c) 1996-2018 Texas Instruments Incorporated
drv8301.asm                                                          PAGE   29

    1514                      .dwattr $C$DW$157, DW_AT_accessibility(DW_ACCESS_public)
    1515              
    1516              $C$DW$158       .dwtag  DW_TAG_member
    1517                      .dwattr $C$DW$158, DW_AT_type(*$C$DW$T$19)
    1518                      .dwattr $C$DW$158, DW_AT_name("IalphaError")
    1519                      .dwattr $C$DW$158, DW_AT_TI_symbol_name("_IalphaError")
    1520                      .dwattr $C$DW$158, DW_AT_data_member_location[DW_OP_plus_uconst 0x16]
    1521                      .dwattr $C$DW$158, DW_AT_accessibility(DW_ACCESS_public)
    1522              
    1523              $C$DW$159       .dwtag  DW_TAG_member
    1524                      .dwattr $C$DW$159, DW_AT_type(*$C$DW$T$19)
    1525                      .dwattr $C$DW$159, DW_AT_name("Kslide")
    1526                      .dwattr $C$DW$159, DW_AT_TI_symbol_name("_Kslide")
    1527                      .dwattr $C$DW$159, DW_AT_data_member_location[DW_OP_plus_uconst 0x18]
    1528                      .dwattr $C$DW$159, DW_AT_accessibility(DW_ACCESS_public)
    1529              
    1530              $C$DW$160       .dwtag  DW_TAG_member
    1531                      .dwattr $C$DW$160, DW_AT_type(*$C$DW$T$19)
    1532                      .dwattr $C$DW$160, DW_AT_name("Ibeta")
    1533                      .dwattr $C$DW$160, DW_AT_TI_symbol_name("_Ibeta")
    1534                      .dwattr $C$DW$160, DW_AT_data_member_location[DW_OP_plus_uconst 0x1a]
    1535                      .dwattr $C$DW$160, DW_AT_accessibility(DW_ACCESS_public)
    1536              
    1537              $C$DW$161       .dwtag  DW_TAG_member
    1538                      .dwattr $C$DW$161, DW_AT_type(*$C$DW$T$19)
    1539                      .dwattr $C$DW$161, DW_AT_name("IbetaError")
    1540                      .dwattr $C$DW$161, DW_AT_TI_symbol_name("_IbetaError")
    1541                      .dwattr $C$DW$161, DW_AT_data_member_location[DW_OP_plus_uconst 0x1c]
    1542                      .dwattr $C$DW$161, DW_AT_accessibility(DW_ACCESS_public)
    1543              
    1544              $C$DW$162       .dwtag  DW_TAG_member
    1545                      .dwattr $C$DW$162, DW_AT_type(*$C$DW$T$19)
    1546                      .dwattr $C$DW$162, DW_AT_name("Kslf")
    1547                      .dwattr $C$DW$162, DW_AT_TI_symbol_name("_Kslf")
    1548                      .dwattr $C$DW$162, DW_AT_data_member_location[DW_OP_plus_uconst 0x1e]
    1549                      .dwattr $C$DW$162, DW_AT_accessibility(DW_ACCESS_public)
    1550              
    1551              $C$DW$163       .dwtag  DW_TAG_member
    1552                      .dwattr $C$DW$163, DW_AT_type(*$C$DW$T$19)
    1553                      .dwattr $C$DW$163, DW_AT_name("Theta")
    1554                      .dwattr $C$DW$163, DW_AT_TI_symbol_name("_Theta")
    1555                      .dwattr $C$DW$163, DW_AT_data_member_location[DW_OP_plus_uconst 0x20]
    1556                      .dwattr $C$DW$163, DW_AT_accessibility(DW_ACCESS_public)
    1557              
    1558              $C$DW$164       .dwtag  DW_TAG_member
    1559                      .dwattr $C$DW$164, DW_AT_type(*$C$DW$T$19)
    1560                      .dwattr $C$DW$164, DW_AT_name("E0")
    1561                      .dwattr $C$DW$164, DW_AT_TI_symbol_name("_E0")
    1562                      .dwattr $C$DW$164, DW_AT_data_member_location[DW_OP_plus_uconst 0x22]
    1563                      .dwattr $C$DW$164, DW_AT_accessibility(DW_ACCESS_public)
    1564              
    1565                      .dwendtag $C$DW$T$46
    1566              
    1567              $C$DW$T$86      .dwtag  DW_TAG_typedef
    1568                      .dwattr $C$DW$T$86, DW_AT_name("SMOPOS")
TMS320C2000 Assembler PC v20.2.5 Fri Jan  6 17:23:30 2023

Copyright (c) 1996-2018 Texas Instruments Incorporated
drv8301.asm                                                          PAGE   30

    1569                      .dwattr $C$DW$T$86, DW_AT_type(*$C$DW$T$46)
    1570                      .dwattr $C$DW$T$86, DW_AT_language(DW_LANG_C)
    1571              
    1572              
    1573              $C$DW$T$49      .dwtag  DW_TAG_structure_type
    1574                      .dwattr $C$DW$T$49, DW_AT_byte_size(0x12)
    1575              $C$DW$165       .dwtag  DW_TAG_member
    1576                      .dwattr $C$DW$165, DW_AT_type(*$C$DW$T$19)
    1577                      .dwattr $C$DW$165, DW_AT_name("EstimatedTheta")
    1578                      .dwattr $C$DW$165, DW_AT_TI_symbol_name("_EstimatedTheta")
    1579                      .dwattr $C$DW$165, DW_AT_data_member_location[DW_OP_plus_uconst 0x0]
    1580                      .dwattr $C$DW$165, DW_AT_accessibility(DW_ACCESS_public)
    1581              
    1582              $C$DW$166       .dwtag  DW_TAG_member
    1583                      .dwattr $C$DW$166, DW_AT_type(*$C$DW$T$19)
    1584                      .dwattr $C$DW$166, DW_AT_name("OldEstimatedTheta")
    1585                      .dwattr $C$DW$166, DW_AT_TI_symbol_name("_OldEstimatedTheta")
    1586                      .dwattr $C$DW$166, DW_AT_data_member_location[DW_OP_plus_uconst 0x2]
    1587                      .dwattr $C$DW$166, DW_AT_accessibility(DW_ACCESS_public)
    1588              
    1589              $C$DW$167       .dwtag  DW_TAG_member
    1590                      .dwattr $C$DW$167, DW_AT_type(*$C$DW$T$19)
    1591                      .dwattr $C$DW$167, DW_AT_name("EstimatedSpeed")
    1592                      .dwattr $C$DW$167, DW_AT_TI_symbol_name("_EstimatedSpeed")
    1593                      .dwattr $C$DW$167, DW_AT_data_member_location[DW_OP_plus_uconst 0x4]
    1594                      .dwattr $C$DW$167, DW_AT_accessibility(DW_ACCESS_public)
    1595              
    1596              $C$DW$168       .dwtag  DW_TAG_member
    1597                      .dwattr $C$DW$168, DW_AT_type(*$C$DW$T$40)
    1598                      .dwattr $C$DW$168, DW_AT_name("BaseRpm")
    1599                      .dwattr $C$DW$168, DW_AT_TI_symbol_name("_BaseRpm")
    1600                      .dwattr $C$DW$168, DW_AT_data_member_location[DW_OP_plus_uconst 0x6]
    1601                      .dwattr $C$DW$168, DW_AT_accessibility(DW_ACCESS_public)
    1602              
    1603              $C$DW$169       .dwtag  DW_TAG_member
    1604                      .dwattr $C$DW$169, DW_AT_type(*$C$DW$T$47)
    1605                      .dwattr $C$DW$169, DW_AT_name("K1")
    1606                      .dwattr $C$DW$169, DW_AT_TI_symbol_name("_K1")
    1607                      .dwattr $C$DW$169, DW_AT_data_member_location[DW_OP_plus_uconst 0x8]
    1608                      .dwattr $C$DW$169, DW_AT_accessibility(DW_ACCESS_public)
    1609              
    1610              $C$DW$170       .dwtag  DW_TAG_member
    1611                      .dwattr $C$DW$170, DW_AT_type(*$C$DW$T$19)
    1612                      .dwattr $C$DW$170, DW_AT_name("K2")
    1613                      .dwattr $C$DW$170, DW_AT_TI_symbol_name("_K2")
    1614                      .dwattr $C$DW$170, DW_AT_data_member_location[DW_OP_plus_uconst 0xa]
    1615                      .dwattr $C$DW$170, DW_AT_accessibility(DW_ACCESS_public)
    1616              
    1617              $C$DW$171       .dwtag  DW_TAG_member
    1618                      .dwattr $C$DW$171, DW_AT_type(*$C$DW$T$19)
    1619                      .dwattr $C$DW$171, DW_AT_name("K3")
    1620                      .dwattr $C$DW$171, DW_AT_TI_symbol_name("_K3")
    1621                      .dwattr $C$DW$171, DW_AT_data_member_location[DW_OP_plus_uconst 0xc]
    1622                      .dwattr $C$DW$171, DW_AT_accessibility(DW_ACCESS_public)
    1623              
TMS320C2000 Assembler PC v20.2.5 Fri Jan  6 17:23:30 2023

Copyright (c) 1996-2018 Texas Instruments Incorporated
drv8301.asm                                                          PAGE   31

    1624              $C$DW$172       .dwtag  DW_TAG_member
    1625                      .dwattr $C$DW$172, DW_AT_type(*$C$DW$T$48)
    1626                      .dwattr $C$DW$172, DW_AT_name("EstimatedSpeedRpm")
    1627                      .dwattr $C$DW$172, DW_AT_TI_symbol_name("_EstimatedSpeedRpm")
    1628                      .dwattr $C$DW$172, DW_AT_data_member_location[DW_OP_plus_uconst 0xe]
    1629                      .dwattr $C$DW$172, DW_AT_accessibility(DW_ACCESS_public)
    1630              
    1631              $C$DW$173       .dwtag  DW_TAG_member
    1632                      .dwattr $C$DW$173, DW_AT_type(*$C$DW$T$19)
    1633                      .dwattr $C$DW$173, DW_AT_name("Temp")
    1634                      .dwattr $C$DW$173, DW_AT_TI_symbol_name("_Temp")
    1635                      .dwattr $C$DW$173, DW_AT_data_member_location[DW_OP_plus_uconst 0x10]
    1636                      .dwattr $C$DW$173, DW_AT_accessibility(DW_ACCESS_public)
    1637              
    1638                      .dwendtag $C$DW$T$49
    1639              
    1640              $C$DW$T$87      .dwtag  DW_TAG_typedef
    1641                      .dwattr $C$DW$T$87, DW_AT_name("SPEED_ESTIMATION")
    1642                      .dwattr $C$DW$T$87, DW_AT_type(*$C$DW$T$49)
    1643                      .dwattr $C$DW$T$87, DW_AT_language(DW_LANG_C)
    1644              
    1645              
    1646              $C$DW$T$50      .dwtag  DW_TAG_structure_type
    1647                      .dwattr $C$DW$T$50, DW_AT_byte_size(0x14)
    1648              $C$DW$174       .dwtag  DW_TAG_member
    1649                      .dwattr $C$DW$174, DW_AT_type(*$C$DW$T$19)
    1650                      .dwattr $C$DW$174, DW_AT_name("ElecTheta")
    1651                      .dwattr $C$DW$174, DW_AT_TI_symbol_name("_ElecTheta")
    1652                      .dwattr $C$DW$174, DW_AT_data_member_location[DW_OP_plus_uconst 0x0]
    1653                      .dwattr $C$DW$174, DW_AT_accessibility(DW_ACCESS_public)
    1654              
    1655              $C$DW$175       .dwtag  DW_TAG_member
    1656                      .dwattr $C$DW$175, DW_AT_type(*$C$DW$T$40)
    1657                      .dwattr $C$DW$175, DW_AT_name("DirectionQep")
    1658                      .dwattr $C$DW$175, DW_AT_TI_symbol_name("_DirectionQep")
    1659                      .dwattr $C$DW$175, DW_AT_data_member_location[DW_OP_plus_uconst 0x2]
    1660                      .dwattr $C$DW$175, DW_AT_accessibility(DW_ACCESS_public)
    1661              
    1662              $C$DW$176       .dwtag  DW_TAG_member
    1663                      .dwattr $C$DW$176, DW_AT_type(*$C$DW$T$19)
    1664                      .dwattr $C$DW$176, DW_AT_name("OldElecTheta")
    1665                      .dwattr $C$DW$176, DW_AT_TI_symbol_name("_OldElecTheta")
    1666                      .dwattr $C$DW$176, DW_AT_data_member_location[DW_OP_plus_uconst 0x4]
    1667                      .dwattr $C$DW$176, DW_AT_accessibility(DW_ACCESS_public)
    1668              
    1669              $C$DW$177       .dwtag  DW_TAG_member
    1670                      .dwattr $C$DW$177, DW_AT_type(*$C$DW$T$19)
    1671                      .dwattr $C$DW$177, DW_AT_name("Speed")
    1672                      .dwattr $C$DW$177, DW_AT_TI_symbol_name("_Speed")
    1673                      .dwattr $C$DW$177, DW_AT_data_member_location[DW_OP_plus_uconst 0x6]
    1674                      .dwattr $C$DW$177, DW_AT_accessibility(DW_ACCESS_public)
    1675              
    1676              $C$DW$178       .dwtag  DW_TAG_member
    1677                      .dwattr $C$DW$178, DW_AT_type(*$C$DW$T$40)
    1678                      .dwattr $C$DW$178, DW_AT_name("BaseRpm")
TMS320C2000 Assembler PC v20.2.5 Fri Jan  6 17:23:30 2023

Copyright (c) 1996-2018 Texas Instruments Incorporated
drv8301.asm                                                          PAGE   32

    1679                      .dwattr $C$DW$178, DW_AT_TI_symbol_name("_BaseRpm")
    1680                      .dwattr $C$DW$178, DW_AT_data_member_location[DW_OP_plus_uconst 0x8]
    1681                      .dwattr $C$DW$178, DW_AT_accessibility(DW_ACCESS_public)
    1682              
    1683              $C$DW$179       .dwtag  DW_TAG_member
    1684                      .dwattr $C$DW$179, DW_AT_type(*$C$DW$T$47)
    1685                      .dwattr $C$DW$179, DW_AT_name("K1")
    1686                      .dwattr $C$DW$179, DW_AT_TI_symbol_name("_K1")
    1687                      .dwattr $C$DW$179, DW_AT_data_member_location[DW_OP_plus_uconst 0xa]
    1688                      .dwattr $C$DW$179, DW_AT_accessibility(DW_ACCESS_public)
    1689              
    1690              $C$DW$180       .dwtag  DW_TAG_member
    1691                      .dwattr $C$DW$180, DW_AT_type(*$C$DW$T$19)
    1692                      .dwattr $C$DW$180, DW_AT_name("K2")
    1693                      .dwattr $C$DW$180, DW_AT_TI_symbol_name("_K2")
    1694                      .dwattr $C$DW$180, DW_AT_data_member_location[DW_OP_plus_uconst 0xc]
    1695                      .dwattr $C$DW$180, DW_AT_accessibility(DW_ACCESS_public)
    1696              
    1697              $C$DW$181       .dwtag  DW_TAG_member
    1698                      .dwattr $C$DW$181, DW_AT_type(*$C$DW$T$19)
    1699                      .dwattr $C$DW$181, DW_AT_name("K3")
    1700                      .dwattr $C$DW$181, DW_AT_TI_symbol_name("_K3")
    1701                      .dwattr $C$DW$181, DW_AT_data_member_location[DW_OP_plus_uconst 0xe]
    1702                      .dwattr $C$DW$181, DW_AT_accessibility(DW_ACCESS_public)
    1703              
    1704              $C$DW$182       .dwtag  DW_TAG_member
    1705                      .dwattr $C$DW$182, DW_AT_type(*$C$DW$T$48)
    1706                      .dwattr $C$DW$182, DW_AT_name("SpeedRpm")
    1707                      .dwattr $C$DW$182, DW_AT_TI_symbol_name("_SpeedRpm")
    1708                      .dwattr $C$DW$182, DW_AT_data_member_location[DW_OP_plus_uconst 0x10]
    1709                      .dwattr $C$DW$182, DW_AT_accessibility(DW_ACCESS_public)
    1710              
    1711              $C$DW$183       .dwtag  DW_TAG_member
    1712                      .dwattr $C$DW$183, DW_AT_type(*$C$DW$T$19)
    1713                      .dwattr $C$DW$183, DW_AT_name("Tmp")
    1714                      .dwattr $C$DW$183, DW_AT_TI_symbol_name("_Tmp")
    1715                      .dwattr $C$DW$183, DW_AT_data_member_location[DW_OP_plus_uconst 0x12]
    1716                      .dwattr $C$DW$183, DW_AT_accessibility(DW_ACCESS_public)
    1717              
    1718                      .dwendtag $C$DW$T$50
    1719              
    1720              $C$DW$T$88      .dwtag  DW_TAG_typedef
    1721                      .dwattr $C$DW$T$88, DW_AT_name("SPEED_MEAS_QEP")
    1722                      .dwattr $C$DW$T$88, DW_AT_type(*$C$DW$T$50)
    1723                      .dwattr $C$DW$T$88, DW_AT_language(DW_LANG_C)
    1724              
    1725              
    1726              $C$DW$T$51      .dwtag  DW_TAG_structure_type
    1727                      .dwattr $C$DW$T$51, DW_AT_byte_size(0x12)
    1728              $C$DW$184       .dwtag  DW_TAG_member
    1729                      .dwattr $C$DW$184, DW_AT_type(*$C$DW$T$44)
    1730                      .dwattr $C$DW$184, DW_AT_name("ElecTheta")
    1731                      .dwattr $C$DW$184, DW_AT_TI_symbol_name("_ElecTheta")
    1732                      .dwattr $C$DW$184, DW_AT_data_member_location[DW_OP_plus_uconst 0x0]
    1733                      .dwattr $C$DW$184, DW_AT_accessibility(DW_ACCESS_public)
TMS320C2000 Assembler PC v20.2.5 Fri Jan  6 17:23:30 2023

Copyright (c) 1996-2018 Texas Instruments Incorporated
drv8301.asm                                                          PAGE   33

    1734              
    1735              $C$DW$185       .dwtag  DW_TAG_member
    1736                      .dwattr $C$DW$185, DW_AT_type(*$C$DW$T$44)
    1737                      .dwattr $C$DW$185, DW_AT_name("MechTheta")
    1738                      .dwattr $C$DW$185, DW_AT_TI_symbol_name("_MechTheta")
    1739                      .dwattr $C$DW$185, DW_AT_data_member_location[DW_OP_plus_uconst 0x2]
    1740                      .dwattr $C$DW$185, DW_AT_accessibility(DW_ACCESS_public)
    1741              
    1742              $C$DW$186       .dwtag  DW_TAG_member
    1743                      .dwattr $C$DW$186, DW_AT_type(*$C$DW$T$38)
    1744                      .dwattr $C$DW$186, DW_AT_name("DirectionQep")
    1745                      .dwattr $C$DW$186, DW_AT_TI_symbol_name("_DirectionQep")
    1746                      .dwattr $C$DW$186, DW_AT_data_member_location[DW_OP_plus_uconst 0x4]
    1747                      .dwattr $C$DW$186, DW_AT_accessibility(DW_ACCESS_public)
    1748              
    1749              $C$DW$187       .dwtag  DW_TAG_member
    1750                      .dwattr $C$DW$187, DW_AT_type(*$C$DW$T$38)
    1751                      .dwattr $C$DW$187, DW_AT_name("QepPeriod")
    1752                      .dwattr $C$DW$187, DW_AT_TI_symbol_name("_QepPeriod")
    1753                      .dwattr $C$DW$187, DW_AT_data_member_location[DW_OP_plus_uconst 0x5]
    1754                      .dwattr $C$DW$187, DW_AT_accessibility(DW_ACCESS_public)
    1755              
    1756              $C$DW$188       .dwtag  DW_TAG_member
    1757                      .dwattr $C$DW$188, DW_AT_type(*$C$DW$T$40)
    1758                      .dwattr $C$DW$188, DW_AT_name("QepCountIndex")
    1759                      .dwattr $C$DW$188, DW_AT_TI_symbol_name("_QepCountIndex")
    1760                      .dwattr $C$DW$188, DW_AT_data_member_location[DW_OP_plus_uconst 0x6]
    1761                      .dwattr $C$DW$188, DW_AT_accessibility(DW_ACCESS_public)
    1762              
    1763              $C$DW$189       .dwtag  DW_TAG_member
    1764                      .dwattr $C$DW$189, DW_AT_type(*$C$DW$T$48)
    1765                      .dwattr $C$DW$189, DW_AT_name("RawTheta")
    1766                      .dwattr $C$DW$189, DW_AT_TI_symbol_name("_RawTheta")
    1767                      .dwattr $C$DW$189, DW_AT_data_member_location[DW_OP_plus_uconst 0x8]
    1768                      .dwattr $C$DW$189, DW_AT_accessibility(DW_ACCESS_public)
    1769              
    1770              $C$DW$190       .dwtag  DW_TAG_member
    1771                      .dwattr $C$DW$190, DW_AT_type(*$C$DW$T$44)
    1772                      .dwattr $C$DW$190, DW_AT_name("MechScaler")
    1773                      .dwattr $C$DW$190, DW_AT_TI_symbol_name("_MechScaler")
    1774                      .dwattr $C$DW$190, DW_AT_data_member_location[DW_OP_plus_uconst 0xa]
    1775                      .dwattr $C$DW$190, DW_AT_accessibility(DW_ACCESS_public)
    1776              
    1777              $C$DW$191       .dwtag  DW_TAG_member
    1778                      .dwattr $C$DW$191, DW_AT_type(*$C$DW$T$38)
    1779                      .dwattr $C$DW$191, DW_AT_name("LineEncoder")
    1780                      .dwattr $C$DW$191, DW_AT_TI_symbol_name("_LineEncoder")
    1781                      .dwattr $C$DW$191, DW_AT_data_member_location[DW_OP_plus_uconst 0xc]
    1782                      .dwattr $C$DW$191, DW_AT_accessibility(DW_ACCESS_public)
    1783              
    1784              $C$DW$192       .dwtag  DW_TAG_member
    1785                      .dwattr $C$DW$192, DW_AT_type(*$C$DW$T$38)
    1786                      .dwattr $C$DW$192, DW_AT_name("PolePairs")
    1787                      .dwattr $C$DW$192, DW_AT_TI_symbol_name("_PolePairs")
    1788                      .dwattr $C$DW$192, DW_AT_data_member_location[DW_OP_plus_uconst 0xd]
TMS320C2000 Assembler PC v20.2.5 Fri Jan  6 17:23:30 2023

Copyright (c) 1996-2018 Texas Instruments Incorporated
drv8301.asm                                                          PAGE   34

    1789                      .dwattr $C$DW$192, DW_AT_accessibility(DW_ACCESS_public)
    1790              
    1791              $C$DW$193       .dwtag  DW_TAG_member
    1792                      .dwattr $C$DW$193, DW_AT_type(*$C$DW$T$48)
    1793                      .dwattr $C$DW$193, DW_AT_name("CalibratedAngle")
    1794                      .dwattr $C$DW$193, DW_AT_TI_symbol_name("_CalibratedAngle")
    1795                      .dwattr $C$DW$193, DW_AT_data_member_location[DW_OP_plus_uconst 0xe]
    1796                      .dwattr $C$DW$193, DW_AT_accessibility(DW_ACCESS_public)
    1797              
    1798              $C$DW$194       .dwtag  DW_TAG_member
    1799                      .dwattr $C$DW$194, DW_AT_type(*$C$DW$T$38)
    1800                      .dwattr $C$DW$194, DW_AT_name("IndexSyncFlag")
    1801                      .dwattr $C$DW$194, DW_AT_TI_symbol_name("_IndexSyncFlag")
    1802                      .dwattr $C$DW$194, DW_AT_data_member_location[DW_OP_plus_uconst 0x10]
    1803                      .dwattr $C$DW$194, DW_AT_accessibility(DW_ACCESS_public)
    1804              
    1805                      .dwendtag $C$DW$T$51
    1806              
    1807              $C$DW$T$89      .dwtag  DW_TAG_typedef
    1808                      .dwattr $C$DW$T$89, DW_AT_name("QEP")
    1809                      .dwattr $C$DW$T$89, DW_AT_type(*$C$DW$T$51)
    1810                      .dwattr $C$DW$T$89, DW_AT_language(DW_LANG_C)
    1811              
    1812              
    1813              $C$DW$T$56      .dwtag  DW_TAG_structure_type
    1814                      .dwattr $C$DW$T$56, DW_AT_byte_size(0x07)
    1815              $C$DW$195       .dwtag  DW_TAG_member
    1816                      .dwattr $C$DW$195, DW_AT_type(*$C$DW$T$52)
    1817                      .dwattr $C$DW$195, DW_AT_name("stat_reg1")
    1818                      .dwattr $C$DW$195, DW_AT_TI_symbol_name("_stat_reg1")
    1819                      .dwattr $C$DW$195, DW_AT_data_member_location[DW_OP_plus_uconst 0x0]
    1820                      .dwattr $C$DW$195, DW_AT_accessibility(DW_ACCESS_public)
    1821              
    1822              $C$DW$196       .dwtag  DW_TAG_member
    1823                      .dwattr $C$DW$196, DW_AT_type(*$C$DW$T$53)
    1824                      .dwattr $C$DW$196, DW_AT_name("stat_reg2")
    1825                      .dwattr $C$DW$196, DW_AT_TI_symbol_name("_stat_reg2")
    1826                      .dwattr $C$DW$196, DW_AT_data_member_location[DW_OP_plus_uconst 0x1]
    1827                      .dwattr $C$DW$196, DW_AT_accessibility(DW_ACCESS_public)
    1828              
    1829              $C$DW$197       .dwtag  DW_TAG_member
    1830                      .dwattr $C$DW$197, DW_AT_type(*$C$DW$T$54)
    1831                      .dwattr $C$DW$197, DW_AT_name("cntrl_reg1")
    1832                      .dwattr $C$DW$197, DW_AT_TI_symbol_name("_cntrl_reg1")
    1833                      .dwattr $C$DW$197, DW_AT_data_member_location[DW_OP_plus_uconst 0x2]
    1834                      .dwattr $C$DW$197, DW_AT_accessibility(DW_ACCESS_public)
    1835              
    1836              $C$DW$198       .dwtag  DW_TAG_member
    1837                      .dwattr $C$DW$198, DW_AT_type(*$C$DW$T$55)
    1838                      .dwattr $C$DW$198, DW_AT_name("cntrl_reg2")
    1839                      .dwattr $C$DW$198, DW_AT_TI_symbol_name("_cntrl_reg2")
    1840                      .dwattr $C$DW$198, DW_AT_data_member_location[DW_OP_plus_uconst 0x3]
    1841                      .dwattr $C$DW$198, DW_AT_accessibility(DW_ACCESS_public)
    1842              
    1843              $C$DW$199       .dwtag  DW_TAG_member
TMS320C2000 Assembler PC v20.2.5 Fri Jan  6 17:23:30 2023

Copyright (c) 1996-2018 Texas Instruments Incorporated
drv8301.asm                                                          PAGE   35

    1844                      .dwattr $C$DW$199, DW_AT_type(*$C$DW$T$38)
    1845                      .dwattr $C$DW$199, DW_AT_name("readCntrl1")
    1846                      .dwattr $C$DW$199, DW_AT_TI_symbol_name("_readCntrl1")
    1847                      .dwattr $C$DW$199, DW_AT_data_member_location[DW_OP_plus_uconst 0x4]
    1848                      .dwattr $C$DW$199, DW_AT_accessibility(DW_ACCESS_public)
    1849              
    1850              $C$DW$200       .dwtag  DW_TAG_member
    1851                      .dwattr $C$DW$200, DW_AT_type(*$C$DW$T$38)
    1852                      .dwattr $C$DW$200, DW_AT_name("readCntrl2")
    1853                      .dwattr $C$DW$200, DW_AT_TI_symbol_name("_readCntrl2")
    1854                      .dwattr $C$DW$200, DW_AT_data_member_location[DW_OP_plus_uconst 0x5]
    1855                      .dwattr $C$DW$200, DW_AT_accessibility(DW_ACCESS_public)
    1856              
    1857              $C$DW$201       .dwtag  DW_TAG_member
    1858                      .dwattr $C$DW$201, DW_AT_type(*$C$DW$T$38)
    1859                      .dwattr $C$DW$201, DW_AT_name("DRV_fault")
    1860                      .dwattr $C$DW$201, DW_AT_TI_symbol_name("_DRV_fault")
    1861                      .dwattr $C$DW$201, DW_AT_data_member_location[DW_OP_plus_uconst 0x6]
    1862                      .dwattr $C$DW$201, DW_AT_accessibility(DW_ACCESS_public)
    1863              
    1864                      .dwendtag $C$DW$T$56
    1865              
    1866              $C$DW$T$90      .dwtag  DW_TAG_typedef
    1867                      .dwattr $C$DW$T$90, DW_AT_name("DRV8301_Vars")
    1868                      .dwattr $C$DW$T$90, DW_AT_type(*$C$DW$T$56)
    1869                      .dwattr $C$DW$T$90, DW_AT_language(DW_LANG_C)
    1870              
    1871              
    1872              $C$DW$T$68      .dwtag  DW_TAG_structure_type
    1873                      .dwattr $C$DW$T$68, DW_AT_byte_size(0x15)
    1874              $C$DW$202       .dwtag  DW_TAG_member
    1875                      .dwattr $C$DW$202, DW_AT_type(*$C$DW$T$38)
    1876                      .dwattr $C$DW$202, DW_AT_name("Rsvd0")
    1877                      .dwattr $C$DW$202, DW_AT_TI_symbol_name("_Rsvd0")
    1878                      .dwattr $C$DW$202, DW_AT_data_member_location[DW_OP_plus_uconst 0x0]
    1879                      .dwattr $C$DW$202, DW_AT_accessibility(DW_ACCESS_public)
    1880              
    1881              $C$DW$203       .dwtag  DW_TAG_member
    1882                      .dwattr $C$DW$203, DW_AT_type(*$C$DW$T$57)
    1883                      .dwattr $C$DW$203, DW_AT_name("status1_wwd")
    1884                      .dwattr $C$DW$203, DW_AT_TI_symbol_name("_status1_wwd")
    1885                      .dwattr $C$DW$203, DW_AT_data_member_location[DW_OP_plus_uconst 0x1]
    1886                      .dwattr $C$DW$203, DW_AT_accessibility(DW_ACCESS_public)
    1887              
    1888              $C$DW$204       .dwtag  DW_TAG_member
    1889                      .dwattr $C$DW$204, DW_AT_type(*$C$DW$T$58)
    1890                      .dwattr $C$DW$204, DW_AT_name("status2_ov_vds")
    1891                      .dwattr $C$DW$204, DW_AT_TI_symbol_name("_status2_ov_vds")
    1892                      .dwattr $C$DW$204, DW_AT_data_member_location[DW_OP_plus_uconst 0x2]
    1893                      .dwattr $C$DW$204, DW_AT_accessibility(DW_ACCESS_public)
    1894              
    1895              $C$DW$205       .dwtag  DW_TAG_member
    1896                      .dwattr $C$DW$205, DW_AT_type(*$C$DW$T$59)
    1897                      .dwattr $C$DW$205, DW_AT_name("status3_IC")
    1898                      .dwattr $C$DW$205, DW_AT_TI_symbol_name("_status3_IC")
TMS320C2000 Assembler PC v20.2.5 Fri Jan  6 17:23:30 2023

Copyright (c) 1996-2018 Texas Instruments Incorporated
drv8301.asm                                                          PAGE   36

    1899                      .dwattr $C$DW$205, DW_AT_data_member_location[DW_OP_plus_uconst 0x3]
    1900                      .dwattr $C$DW$205, DW_AT_accessibility(DW_ACCESS_public)
    1901              
    1902              $C$DW$206       .dwtag  DW_TAG_member
    1903                      .dwattr $C$DW$206, DW_AT_type(*$C$DW$T$60)
    1904                      .dwattr $C$DW$206, DW_AT_name("status4_gd_Vgs")
    1905                      .dwattr $C$DW$206, DW_AT_TI_symbol_name("_status4_gd_Vgs")
    1906                      .dwattr $C$DW$206, DW_AT_data_member_location[DW_OP_plus_uconst 0x4]
    1907                      .dwattr $C$DW$206, DW_AT_accessibility(DW_ACCESS_public)
    1908              
    1909              $C$DW$207       .dwtag  DW_TAG_member
    1910                      .dwattr $C$DW$207, DW_AT_type(*$C$DW$T$61)
    1911                      .dwattr $C$DW$207, DW_AT_name("cntrl5_hs_gd")
    1912                      .dwattr $C$DW$207, DW_AT_TI_symbol_name("_cntrl5_hs_gd")
    1913                      .dwattr $C$DW$207, DW_AT_data_member_location[DW_OP_plus_uconst 0x5]
    1914                      .dwattr $C$DW$207, DW_AT_accessibility(DW_ACCESS_public)
    1915              
    1916              $C$DW$208       .dwtag  DW_TAG_member
    1917                      .dwattr $C$DW$208, DW_AT_type(*$C$DW$T$62)
    1918                      .dwattr $C$DW$208, DW_AT_name("cntrl6_ls_gd")
    1919                      .dwattr $C$DW$208, DW_AT_TI_symbol_name("_cntrl6_ls_gd")
    1920                      .dwattr $C$DW$208, DW_AT_data_member_location[DW_OP_plus_uconst 0x6]
    1921                      .dwattr $C$DW$208, DW_AT_accessibility(DW_ACCESS_public)
    1922              
    1923              $C$DW$209       .dwtag  DW_TAG_member
    1924                      .dwattr $C$DW$209, DW_AT_type(*$C$DW$T$63)
    1925                      .dwattr $C$DW$209, DW_AT_name("cntrl7_gd")
    1926                      .dwattr $C$DW$209, DW_AT_TI_symbol_name("_cntrl7_gd")
    1927                      .dwattr $C$DW$209, DW_AT_data_member_location[DW_OP_plus_uconst 0x7]
    1928                      .dwattr $C$DW$209, DW_AT_accessibility(DW_ACCESS_public)
    1929              
    1930              $C$DW$210       .dwtag  DW_TAG_member
    1931                      .dwattr $C$DW$210, DW_AT_type(*$C$DW$T$38)
    1932                      .dwattr $C$DW$210, DW_AT_name("Rsvd8")
    1933                      .dwattr $C$DW$210, DW_AT_TI_symbol_name("_Rsvd8")
    1934                      .dwattr $C$DW$210, DW_AT_data_member_location[DW_OP_plus_uconst 0x8]
    1935                      .dwattr $C$DW$210, DW_AT_accessibility(DW_ACCESS_public)
    1936              
    1937              $C$DW$211       .dwtag  DW_TAG_member
    1938                      .dwattr $C$DW$211, DW_AT_type(*$C$DW$T$64)
    1939                      .dwattr $C$DW$211, DW_AT_name("cntrl9_IC_ops")
    1940                      .dwattr $C$DW$211, DW_AT_TI_symbol_name("_cntrl9_IC_ops")
    1941                      .dwattr $C$DW$211, DW_AT_data_member_location[DW_OP_plus_uconst 0x9]
    1942                      .dwattr $C$DW$211, DW_AT_accessibility(DW_ACCESS_public)
    1943              
    1944              $C$DW$212       .dwtag  DW_TAG_member
    1945                      .dwattr $C$DW$212, DW_AT_type(*$C$DW$T$65)
    1946                      .dwattr $C$DW$212, DW_AT_name("cntrlA_shunt_amp")
    1947                      .dwattr $C$DW$212, DW_AT_TI_symbol_name("_cntrlA_shunt_amp")
    1948                      .dwattr $C$DW$212, DW_AT_data_member_location[DW_OP_plus_uconst 0xa]
    1949                      .dwattr $C$DW$212, DW_AT_accessibility(DW_ACCESS_public)
    1950              
    1951              $C$DW$213       .dwtag  DW_TAG_member
    1952                      .dwattr $C$DW$213, DW_AT_type(*$C$DW$T$66)
    1953                      .dwattr $C$DW$213, DW_AT_name("cntrlB_Vreg")
TMS320C2000 Assembler PC v20.2.5 Fri Jan  6 17:23:30 2023

Copyright (c) 1996-2018 Texas Instruments Incorporated
drv8301.asm                                                          PAGE   37

    1954                      .dwattr $C$DW$213, DW_AT_TI_symbol_name("_cntrlB_Vreg")
    1955                      .dwattr $C$DW$213, DW_AT_data_member_location[DW_OP_plus_uconst 0xb]
    1956                      .dwattr $C$DW$213, DW_AT_accessibility(DW_ACCESS_public)
    1957              
    1958              $C$DW$214       .dwtag  DW_TAG_member
    1959                      .dwattr $C$DW$214, DW_AT_type(*$C$DW$T$67)
    1960                      .dwattr $C$DW$214, DW_AT_name("cntrlC_Vds_SNS")
    1961                      .dwattr $C$DW$214, DW_AT_TI_symbol_name("_cntrlC_Vds_SNS")
    1962                      .dwattr $C$DW$214, DW_AT_data_member_location[DW_OP_plus_uconst 0xc]
    1963                      .dwattr $C$DW$214, DW_AT_accessibility(DW_ACCESS_public)
    1964              
    1965              $C$DW$215       .dwtag  DW_TAG_member
    1966                      .dwattr $C$DW$215, DW_AT_type(*$C$DW$T$38)
    1967                      .dwattr $C$DW$215, DW_AT_name("readCntrl5")
    1968                      .dwattr $C$DW$215, DW_AT_TI_symbol_name("_readCntrl5")
    1969                      .dwattr $C$DW$215, DW_AT_data_member_location[DW_OP_plus_uconst 0xd]
    1970                      .dwattr $C$DW$215, DW_AT_accessibility(DW_ACCESS_public)
    1971              
    1972              $C$DW$216       .dwtag  DW_TAG_member
    1973                      .dwattr $C$DW$216, DW_AT_type(*$C$DW$T$38)
    1974                      .dwattr $C$DW$216, DW_AT_name("readCntrl6")
    1975                      .dwattr $C$DW$216, DW_AT_TI_symbol_name("_readCntrl6")
    1976                      .dwattr $C$DW$216, DW_AT_data_member_location[DW_OP_plus_uconst 0xe]
    1977                      .dwattr $C$DW$216, DW_AT_accessibility(DW_ACCESS_public)
    1978              
    1979              $C$DW$217       .dwtag  DW_TAG_member
    1980                      .dwattr $C$DW$217, DW_AT_type(*$C$DW$T$38)
    1981                      .dwattr $C$DW$217, DW_AT_name("readCntrl7")
    1982                      .dwattr $C$DW$217, DW_AT_TI_symbol_name("_readCntrl7")
    1983                      .dwattr $C$DW$217, DW_AT_data_member_location[DW_OP_plus_uconst 0xf]
    1984                      .dwattr $C$DW$217, DW_AT_accessibility(DW_ACCESS_public)
    1985              
    1986              $C$DW$218       .dwtag  DW_TAG_member
    1987                      .dwattr $C$DW$218, DW_AT_type(*$C$DW$T$38)
    1988                      .dwattr $C$DW$218, DW_AT_name("readCntrl9")
    1989                      .dwattr $C$DW$218, DW_AT_TI_symbol_name("_readCntrl9")
    1990                      .dwattr $C$DW$218, DW_AT_data_member_location[DW_OP_plus_uconst 0x10]
    1991                      .dwattr $C$DW$218, DW_AT_accessibility(DW_ACCESS_public)
    1992              
    1993              $C$DW$219       .dwtag  DW_TAG_member
    1994                      .dwattr $C$DW$219, DW_AT_type(*$C$DW$T$38)
    1995                      .dwattr $C$DW$219, DW_AT_name("readCntrlA")
    1996                      .dwattr $C$DW$219, DW_AT_TI_symbol_name("_readCntrlA")
    1997                      .dwattr $C$DW$219, DW_AT_data_member_location[DW_OP_plus_uconst 0x11]
    1998                      .dwattr $C$DW$219, DW_AT_accessibility(DW_ACCESS_public)
    1999              
    2000              $C$DW$220       .dwtag  DW_TAG_member
    2001                      .dwattr $C$DW$220, DW_AT_type(*$C$DW$T$38)
    2002                      .dwattr $C$DW$220, DW_AT_name("readCntrlB")
    2003                      .dwattr $C$DW$220, DW_AT_TI_symbol_name("_readCntrlB")
    2004                      .dwattr $C$DW$220, DW_AT_data_member_location[DW_OP_plus_uconst 0x12]
    2005                      .dwattr $C$DW$220, DW_AT_accessibility(DW_ACCESS_public)
    2006              
    2007              $C$DW$221       .dwtag  DW_TAG_member
    2008                      .dwattr $C$DW$221, DW_AT_type(*$C$DW$T$38)
TMS320C2000 Assembler PC v20.2.5 Fri Jan  6 17:23:30 2023

Copyright (c) 1996-2018 Texas Instruments Incorporated
drv8301.asm                                                          PAGE   38

    2009                      .dwattr $C$DW$221, DW_AT_name("readCntrlC")
    2010                      .dwattr $C$DW$221, DW_AT_TI_symbol_name("_readCntrlC")
    2011                      .dwattr $C$DW$221, DW_AT_data_member_location[DW_OP_plus_uconst 0x13]
    2012                      .dwattr $C$DW$221, DW_AT_accessibility(DW_ACCESS_public)
    2013              
    2014              $C$DW$222       .dwtag  DW_TAG_member
    2015                      .dwattr $C$DW$222, DW_AT_type(*$C$DW$T$38)
    2016                      .dwattr $C$DW$222, DW_AT_name("DRV_fault")
    2017                      .dwattr $C$DW$222, DW_AT_TI_symbol_name("_DRV_fault")
    2018                      .dwattr $C$DW$222, DW_AT_data_member_location[DW_OP_plus_uconst 0x14]
    2019                      .dwattr $C$DW$222, DW_AT_accessibility(DW_ACCESS_public)
    2020              
    2021                      .dwendtag $C$DW$T$68
    2022              
    2023              $C$DW$T$91      .dwtag  DW_TAG_typedef
    2024                      .dwattr $C$DW$T$91, DW_AT_name("DRV8305_Vars")
    2025                      .dwattr $C$DW$T$91, DW_AT_type(*$C$DW$T$68)
    2026                      .dwattr $C$DW$T$91, DW_AT_language(DW_LANG_C)
    2027              
    2028              
    2029              $C$DW$T$92      .dwtag  DW_TAG_structure_type
    2030                      .dwattr $C$DW$T$92, DW_AT_byte_size(0x1c4)
    2031              $C$DW$223       .dwtag  DW_TAG_member
    2032                      .dwattr $C$DW$223, DW_AT_type(*$C$DW$T$70)
    2033                      .dwattr $C$DW$223, DW_AT_name("PwmARegs")
    2034                      .dwattr $C$DW$223, DW_AT_TI_symbol_name("_PwmARegs")
    2035                      .dwattr $C$DW$223, DW_AT_data_member_location[DW_OP_plus_uconst 0x0]
    2036                      .dwattr $C$DW$223, DW_AT_accessibility(DW_ACCESS_public)
    2037              
    2038              $C$DW$224       .dwtag  DW_TAG_member
    2039                      .dwattr $C$DW$224, DW_AT_type(*$C$DW$T$70)
    2040                      .dwattr $C$DW$224, DW_AT_name("PwmBRegs")
    2041                      .dwattr $C$DW$224, DW_AT_TI_symbol_name("_PwmBRegs")
    2042                      .dwattr $C$DW$224, DW_AT_data_member_location[DW_OP_plus_uconst 0x2]
    2043                      .dwattr $C$DW$224, DW_AT_accessibility(DW_ACCESS_public)
    2044              
    2045              $C$DW$225       .dwtag  DW_TAG_member
    2046                      .dwattr $C$DW$225, DW_AT_type(*$C$DW$T$70)
    2047                      .dwattr $C$DW$225, DW_AT_name("PwmCRegs")
    2048                      .dwattr $C$DW$225, DW_AT_TI_symbol_name("_PwmCRegs")
    2049                      .dwattr $C$DW$225, DW_AT_data_member_location[DW_OP_plus_uconst 0x4]
    2050                      .dwattr $C$DW$225, DW_AT_accessibility(DW_ACCESS_public)
    2051              
    2052              $C$DW$226       .dwtag  DW_TAG_member
    2053                      .dwattr $C$DW$226, DW_AT_type(*$C$DW$T$72)
    2054                      .dwattr $C$DW$226, DW_AT_name("QepRegs")
    2055                      .dwattr $C$DW$226, DW_AT_TI_symbol_name("_QepRegs")
    2056                      .dwattr $C$DW$226, DW_AT_data_member_location[DW_OP_plus_uconst 0x6]
    2057                      .dwattr $C$DW$226, DW_AT_accessibility(DW_ACCESS_public)
    2058              
    2059              $C$DW$227       .dwtag  DW_TAG_member
    2060                      .dwattr $C$DW$227, DW_AT_type(*$C$DW$T$74)
    2061                      .dwattr $C$DW$227, DW_AT_name("SpiRegs")
    2062                      .dwattr $C$DW$227, DW_AT_TI_symbol_name("_SpiRegs")
    2063                      .dwattr $C$DW$227, DW_AT_data_member_location[DW_OP_plus_uconst 0x8]
TMS320C2000 Assembler PC v20.2.5 Fri Jan  6 17:23:30 2023

Copyright (c) 1996-2018 Texas Instruments Incorporated
drv8301.asm                                                          PAGE   39

    2064                      .dwattr $C$DW$227, DW_AT_accessibility(DW_ACCESS_public)
    2065              
    2066              $C$DW$228       .dwtag  DW_TAG_member
    2067                      .dwattr $C$DW$228, DW_AT_type(*$C$DW$T$38)
    2068                      .dwattr $C$DW$228, DW_AT_name("drvScsPin")
    2069                      .dwattr $C$DW$228, DW_AT_TI_symbol_name("_drvScsPin")
    2070                      .dwattr $C$DW$228, DW_AT_data_member_location[DW_OP_plus_uconst 0xa]
    2071                      .dwattr $C$DW$228, DW_AT_accessibility(DW_ACCESS_public)
    2072              
    2073              $C$DW$229       .dwtag  DW_TAG_member
    2074                      .dwattr $C$DW$229, DW_AT_type(*$C$DW$T$19)
    2075                      .dwattr $C$DW$229, DW_AT_name("offset_shntA")
    2076                      .dwattr $C$DW$229, DW_AT_TI_symbol_name("_offset_shntA")
    2077                      .dwattr $C$DW$229, DW_AT_data_member_location[DW_OP_plus_uconst 0xc]
    2078                      .dwattr $C$DW$229, DW_AT_accessibility(DW_ACCESS_public)
    2079              
    2080              $C$DW$230       .dwtag  DW_TAG_member
    2081                      .dwattr $C$DW$230, DW_AT_type(*$C$DW$T$19)
    2082                      .dwattr $C$DW$230, DW_AT_name("offset_shntB")
    2083                      .dwattr $C$DW$230, DW_AT_TI_symbol_name("_offset_shntB")
    2084                      .dwattr $C$DW$230, DW_AT_data_member_location[DW_OP_plus_uconst 0xe]
    2085                      .dwattr $C$DW$230, DW_AT_accessibility(DW_ACCESS_public)
    2086              
    2087              $C$DW$231       .dwtag  DW_TAG_member
    2088                      .dwattr $C$DW$231, DW_AT_type(*$C$DW$T$19)
    2089                      .dwattr $C$DW$231, DW_AT_name("offset_shntC")
    2090                      .dwattr $C$DW$231, DW_AT_TI_symbol_name("_offset_shntC")
    2091                      .dwattr $C$DW$231, DW_AT_data_member_location[DW_OP_plus_uconst 0x10]
    2092                      .dwattr $C$DW$231, DW_AT_accessibility(DW_ACCESS_public)
    2093              
    2094              $C$DW$232       .dwtag  DW_TAG_member
    2095                      .dwattr $C$DW$232, DW_AT_type(*$C$DW$T$19)
    2096                      .dwattr $C$DW$232, DW_AT_name("VdTesting")
    2097                      .dwattr $C$DW$232, DW_AT_TI_symbol_name("_VdTesting")
    2098                      .dwattr $C$DW$232, DW_AT_data_member_location[DW_OP_plus_uconst 0x12]
    2099                      .dwattr $C$DW$232, DW_AT_accessibility(DW_ACCESS_public)
    2100              
    2101              $C$DW$233       .dwtag  DW_TAG_member
    2102                      .dwattr $C$DW$233, DW_AT_type(*$C$DW$T$19)
    2103                      .dwattr $C$DW$233, DW_AT_name("VqTesting")
    2104                      .dwattr $C$DW$233, DW_AT_TI_symbol_name("_VqTesting")
    2105                      .dwattr $C$DW$233, DW_AT_data_member_location[DW_OP_plus_uconst 0x14]
    2106                      .dwattr $C$DW$233, DW_AT_accessibility(DW_ACCESS_public)
    2107              
    2108              $C$DW$234       .dwtag  DW_TAG_member
    2109                      .dwattr $C$DW$234, DW_AT_type(*$C$DW$T$19)
    2110                      .dwattr $C$DW$234, DW_AT_name("IdRef")
    2111                      .dwattr $C$DW$234, DW_AT_TI_symbol_name("_IdRef")
    2112                      .dwattr $C$DW$234, DW_AT_data_member_location[DW_OP_plus_uconst 0x16]
    2113                      .dwattr $C$DW$234, DW_AT_accessibility(DW_ACCESS_public)
    2114              
    2115              $C$DW$235       .dwtag  DW_TAG_member
    2116                      .dwattr $C$DW$235, DW_AT_type(*$C$DW$T$19)
    2117                      .dwattr $C$DW$235, DW_AT_name("IqRef")
    2118                      .dwattr $C$DW$235, DW_AT_TI_symbol_name("_IqRef")
TMS320C2000 Assembler PC v20.2.5 Fri Jan  6 17:23:30 2023

Copyright (c) 1996-2018 Texas Instruments Incorporated
drv8301.asm                                                          PAGE   40

    2119                      .dwattr $C$DW$235, DW_AT_data_member_location[DW_OP_plus_uconst 0x18]
    2120                      .dwattr $C$DW$235, DW_AT_accessibility(DW_ACCESS_public)
    2121              
    2122              $C$DW$236       .dwtag  DW_TAG_member
    2123                      .dwattr $C$DW$236, DW_AT_type(*$C$DW$T$19)
    2124                      .dwattr $C$DW$236, DW_AT_name("SpeedRef")
    2125                      .dwattr $C$DW$236, DW_AT_TI_symbol_name("_SpeedRef")
    2126                      .dwattr $C$DW$236, DW_AT_data_member_location[DW_OP_plus_uconst 0x1a]
    2127                      .dwattr $C$DW$236, DW_AT_accessibility(DW_ACCESS_public)
    2128              
    2129              $C$DW$237       .dwtag  DW_TAG_member
    2130                      .dwattr $C$DW$237, DW_AT_type(*$C$DW$T$19)
    2131                      .dwattr $C$DW$237, DW_AT_name("ElecTheta")
    2132                      .dwattr $C$DW$237, DW_AT_TI_symbol_name("_ElecTheta")
    2133                      .dwattr $C$DW$237, DW_AT_data_member_location[DW_OP_plus_uconst 0x1c]
    2134                      .dwattr $C$DW$237, DW_AT_accessibility(DW_ACCESS_public)
    2135              
    2136              $C$DW$238       .dwtag  DW_TAG_member
    2137                      .dwattr $C$DW$238, DW_AT_type(*$C$DW$T$19)
    2138                      .dwattr $C$DW$238, DW_AT_name("MechTheta")
    2139                      .dwattr $C$DW$238, DW_AT_TI_symbol_name("_MechTheta")
    2140                      .dwattr $C$DW$238, DW_AT_data_member_location[DW_OP_plus_uconst 0x1e]
    2141                      .dwattr $C$DW$238, DW_AT_accessibility(DW_ACCESS_public)
    2142              
    2143              $C$DW$239       .dwtag  DW_TAG_member
    2144                      .dwattr $C$DW$239, DW_AT_type(*$C$DW$T$44)
    2145                      .dwattr $C$DW$239, DW_AT_name("currentAs")
    2146                      .dwattr $C$DW$239, DW_AT_TI_symbol_name("_currentAs")
    2147                      .dwattr $C$DW$239, DW_AT_data_member_location[DW_OP_plus_uconst 0x20]
    2148                      .dwattr $C$DW$239, DW_AT_accessibility(DW_ACCESS_public)
    2149              
    2150              $C$DW$240       .dwtag  DW_TAG_member
    2151                      .dwattr $C$DW$240, DW_AT_type(*$C$DW$T$44)
    2152                      .dwattr $C$DW$240, DW_AT_name("currentBs")
    2153                      .dwattr $C$DW$240, DW_AT_TI_symbol_name("_currentBs")
    2154                      .dwattr $C$DW$240, DW_AT_data_member_location[DW_OP_plus_uconst 0x22]
    2155                      .dwattr $C$DW$240, DW_AT_accessibility(DW_ACCESS_public)
    2156              
    2157              $C$DW$241       .dwtag  DW_TAG_member
    2158                      .dwattr $C$DW$241, DW_AT_type(*$C$DW$T$44)
    2159                      .dwattr $C$DW$241, DW_AT_name("currentCs")
    2160                      .dwattr $C$DW$241, DW_AT_TI_symbol_name("_currentCs")
    2161                      .dwattr $C$DW$241, DW_AT_data_member_location[DW_OP_plus_uconst 0x24]
    2162                      .dwattr $C$DW$241, DW_AT_accessibility(DW_ACCESS_public)
    2163              
    2164              $C$DW$242       .dwtag  DW_TAG_member
    2165                      .dwattr $C$DW$242, DW_AT_type(*$C$DW$T$44)
    2166                      .dwattr $C$DW$242, DW_AT_name("voltageAs")
    2167                      .dwattr $C$DW$242, DW_AT_TI_symbol_name("_voltageAs")
    2168                      .dwattr $C$DW$242, DW_AT_data_member_location[DW_OP_plus_uconst 0x26]
    2169                      .dwattr $C$DW$242, DW_AT_accessibility(DW_ACCESS_public)
    2170              
    2171              $C$DW$243       .dwtag  DW_TAG_member
    2172                      .dwattr $C$DW$243, DW_AT_type(*$C$DW$T$44)
    2173                      .dwattr $C$DW$243, DW_AT_name("voltageBs")
TMS320C2000 Assembler PC v20.2.5 Fri Jan  6 17:23:30 2023

Copyright (c) 1996-2018 Texas Instruments Incorporated
drv8301.asm                                                          PAGE   41

    2174                      .dwattr $C$DW$243, DW_AT_TI_symbol_name("_voltageBs")
    2175                      .dwattr $C$DW$243, DW_AT_data_member_location[DW_OP_plus_uconst 0x28]
    2176                      .dwattr $C$DW$243, DW_AT_accessibility(DW_ACCESS_public)
    2177              
    2178              $C$DW$244       .dwtag  DW_TAG_member
    2179                      .dwattr $C$DW$244, DW_AT_type(*$C$DW$T$44)
    2180                      .dwattr $C$DW$244, DW_AT_name("voltageCs")
    2181                      .dwattr $C$DW$244, DW_AT_TI_symbol_name("_voltageCs")
    2182                      .dwattr $C$DW$244, DW_AT_data_member_location[DW_OP_plus_uconst 0x2a]
    2183                      .dwattr $C$DW$244, DW_AT_accessibility(DW_ACCESS_public)
    2184              
    2185              $C$DW$245       .dwtag  DW_TAG_member
    2186                      .dwattr $C$DW$245, DW_AT_type(*$C$DW$T$44)
    2187                      .dwattr $C$DW$245, DW_AT_name("voltageDC")
    2188                      .dwattr $C$DW$245, DW_AT_TI_symbol_name("_voltageDC")
    2189                      .dwattr $C$DW$245, DW_AT_data_member_location[DW_OP_plus_uconst 0x2c]
    2190                      .dwattr $C$DW$245, DW_AT_accessibility(DW_ACCESS_public)
    2191              
    2192              $C$DW$246       .dwtag  DW_TAG_member
    2193                      .dwattr $C$DW$246, DW_AT_type(*$C$DW$T$48)
    2194                      .dwattr $C$DW$246, DW_AT_name("alignCntr")
    2195                      .dwattr $C$DW$246, DW_AT_TI_symbol_name("_alignCntr")
    2196                      .dwattr $C$DW$246, DW_AT_data_member_location[DW_OP_plus_uconst 0x2e]
    2197                      .dwattr $C$DW$246, DW_AT_accessibility(DW_ACCESS_public)
    2198              
    2199              $C$DW$247       .dwtag  DW_TAG_member
    2200                      .dwattr $C$DW$247, DW_AT_type(*$C$DW$T$48)
    2201                      .dwattr $C$DW$247, DW_AT_name("alignCnt")
    2202                      .dwattr $C$DW$247, DW_AT_TI_symbol_name("_alignCnt")
    2203                      .dwattr $C$DW$247, DW_AT_data_member_location[DW_OP_plus_uconst 0x30]
    2204                      .dwattr $C$DW$247, DW_AT_accessibility(DW_ACCESS_public)
    2205              
    2206              $C$DW$248       .dwtag  DW_TAG_member
    2207                      .dwattr $C$DW$248, DW_AT_type(*$C$DW$T$38)
    2208                      .dwattr $C$DW$248, DW_AT_name("lsw")
    2209                      .dwattr $C$DW$248, DW_AT_TI_symbol_name("_lsw")
    2210                      .dwattr $C$DW$248, DW_AT_data_member_location[DW_OP_plus_uconst 0x32]
    2211                      .dwattr $C$DW$248, DW_AT_accessibility(DW_ACCESS_public)
    2212              
    2213              $C$DW$249       .dwtag  DW_TAG_member
    2214                      .dwattr $C$DW$249, DW_AT_type(*$C$DW$T$38)
    2215                      .dwattr $C$DW$249, DW_AT_name("TripFlagDMC")
    2216                      .dwattr $C$DW$249, DW_AT_TI_symbol_name("_TripFlagDMC")
    2217                      .dwattr $C$DW$249, DW_AT_data_member_location[DW_OP_plus_uconst 0x33]
    2218                      .dwattr $C$DW$249, DW_AT_accessibility(DW_ACCESS_public)
    2219              
    2220              $C$DW$250       .dwtag  DW_TAG_member
    2221                      .dwattr $C$DW$250, DW_AT_type(*$C$DW$T$38)
    2222                      .dwattr $C$DW$250, DW_AT_name("clearTripFlagDMC")
    2223                      .dwattr $C$DW$250, DW_AT_TI_symbol_name("_clearTripFlagDMC")
    2224                      .dwattr $C$DW$250, DW_AT_data_member_location[DW_OP_plus_uconst 0x34]
    2225                      .dwattr $C$DW$250, DW_AT_accessibility(DW_ACCESS_public)
    2226              
    2227              $C$DW$251       .dwtag  DW_TAG_member
    2228                      .dwattr $C$DW$251, DW_AT_type(*$C$DW$T$38)
TMS320C2000 Assembler PC v20.2.5 Fri Jan  6 17:23:30 2023

Copyright (c) 1996-2018 Texas Instruments Incorporated
drv8301.asm                                                          PAGE   42

    2229                      .dwattr $C$DW$251, DW_AT_name("RunMotor")
    2230                      .dwattr $C$DW$251, DW_AT_TI_symbol_name("_RunMotor")
    2231                      .dwattr $C$DW$251, DW_AT_data_member_location[DW_OP_plus_uconst 0x35]
    2232                      .dwattr $C$DW$251, DW_AT_accessibility(DW_ACCESS_public)
    2233              
    2234              $C$DW$252       .dwtag  DW_TAG_member
    2235                      .dwattr $C$DW$252, DW_AT_type(*$C$DW$T$38)
    2236                      .dwattr $C$DW$252, DW_AT_name("SpeedLoopPrescaler")
    2237                      .dwattr $C$DW$252, DW_AT_TI_symbol_name("_SpeedLoopPrescaler")
    2238                      .dwattr $C$DW$252, DW_AT_data_member_location[DW_OP_plus_uconst 0x36]
    2239                      .dwattr $C$DW$252, DW_AT_accessibility(DW_ACCESS_public)
    2240              
    2241              $C$DW$253       .dwtag  DW_TAG_member
    2242                      .dwattr $C$DW$253, DW_AT_type(*$C$DW$T$38)
    2243                      .dwattr $C$DW$253, DW_AT_name("SpeedLoopCount")
    2244                      .dwattr $C$DW$253, DW_AT_TI_symbol_name("_SpeedLoopCount")
    2245                      .dwattr $C$DW$253, DW_AT_data_member_location[DW_OP_plus_uconst 0x37]
    2246                      .dwattr $C$DW$253, DW_AT_accessibility(DW_ACCESS_public)
    2247              
    2248              $C$DW$254       .dwtag  DW_TAG_member
    2249                      .dwattr $C$DW$254, DW_AT_type(*$C$DW$T$38)
    2250                      .dwattr $C$DW$254, DW_AT_name("PosSenseReverse")
    2251                      .dwattr $C$DW$254, DW_AT_TI_symbol_name("_PosSenseReverse")
    2252                      .dwattr $C$DW$254, DW_AT_data_member_location[DW_OP_plus_uconst 0x38]
    2253                      .dwattr $C$DW$254, DW_AT_accessibility(DW_ACCESS_public)
    2254              
    2255              $C$DW$255       .dwtag  DW_TAG_member
    2256                      .dwattr $C$DW$255, DW_AT_type(*$C$DW$T$38)
    2257                      .dwattr $C$DW$255, DW_AT_name("newCmdDRV")
    2258                      .dwattr $C$DW$255, DW_AT_TI_symbol_name("_newCmdDRV")
    2259                      .dwattr $C$DW$255, DW_AT_data_member_location[DW_OP_plus_uconst 0x39]
    2260                      .dwattr $C$DW$255, DW_AT_accessibility(DW_ACCESS_public)
    2261              
    2262              $C$DW$256       .dwtag  DW_TAG_member
    2263                      .dwattr $C$DW$256, DW_AT_type(*$C$DW$T$44)
    2264                      .dwattr $C$DW$256, DW_AT_name("T")
    2265                      .dwattr $C$DW$256, DW_AT_TI_symbol_name("_T")
    2266                      .dwattr $C$DW$256, DW_AT_data_member_location[DW_OP_plus_uconst 0x3a]
    2267                      .dwattr $C$DW$256, DW_AT_accessibility(DW_ACCESS_public)
    2268              
    2269              $C$DW$257       .dwtag  DW_TAG_member
    2270                      .dwattr $C$DW$257, DW_AT_type(*$C$DW$T$75)
    2271                      .dwattr $C$DW$257, DW_AT_name("clarke")
    2272                      .dwattr $C$DW$257, DW_AT_TI_symbol_name("_clarke")
    2273                      .dwattr $C$DW$257, DW_AT_data_member_location[DW_OP_plus_uconst 0x3c]
    2274                      .dwattr $C$DW$257, DW_AT_accessibility(DW_ACCESS_public)
    2275              
    2276              $C$DW$258       .dwtag  DW_TAG_member
    2277                      .dwattr $C$DW$258, DW_AT_type(*$C$DW$T$76)
    2278                      .dwattr $C$DW$258, DW_AT_name("park")
    2279                      .dwattr $C$DW$258, DW_AT_TI_symbol_name("_park")
    2280                      .dwattr $C$DW$258, DW_AT_data_member_location[DW_OP_plus_uconst 0x46]
    2281                      .dwattr $C$DW$258, DW_AT_accessibility(DW_ACCESS_public)
    2282              
    2283              $C$DW$259       .dwtag  DW_TAG_member
TMS320C2000 Assembler PC v20.2.5 Fri Jan  6 17:23:30 2023

Copyright (c) 1996-2018 Texas Instruments Incorporated
drv8301.asm                                                          PAGE   43

    2284                      .dwattr $C$DW$259, DW_AT_type(*$C$DW$T$77)
    2285                      .dwattr $C$DW$259, DW_AT_name("ipark")
    2286                      .dwattr $C$DW$259, DW_AT_TI_symbol_name("_ipark")
    2287                      .dwattr $C$DW$259, DW_AT_data_member_location[DW_OP_plus_uconst 0x54]
    2288                      .dwattr $C$DW$259, DW_AT_accessibility(DW_ACCESS_public)
    2289              
    2290              $C$DW$260       .dwtag  DW_TAG_member
    2291                      .dwattr $C$DW$260, DW_AT_type(*$C$DW$T$78)
    2292                      .dwattr $C$DW$260, DW_AT_name("pi_pos")
    2293                      .dwattr $C$DW$260, DW_AT_TI_symbol_name("_pi_pos")
    2294                      .dwattr $C$DW$260, DW_AT_data_member_location[DW_OP_plus_uconst 0x62]
    2295                      .dwattr $C$DW$260, DW_AT_accessibility(DW_ACCESS_public)
    2296              
    2297              $C$DW$261       .dwtag  DW_TAG_member
    2298                      .dwattr $C$DW$261, DW_AT_type(*$C$DW$T$79)
    2299                      .dwattr $C$DW$261, DW_AT_name("pid_spd")
    2300                      .dwattr $C$DW$261, DW_AT_TI_symbol_name("_pid_spd")
    2301                      .dwattr $C$DW$261, DW_AT_data_member_location[DW_OP_plus_uconst 0x7a]
    2302                      .dwattr $C$DW$261, DW_AT_accessibility(DW_ACCESS_public)
    2303              
    2304              $C$DW$262       .dwtag  DW_TAG_member
    2305                      .dwattr $C$DW$262, DW_AT_type(*$C$DW$T$78)
    2306                      .dwattr $C$DW$262, DW_AT_name("pi_id")
    2307                      .dwattr $C$DW$262, DW_AT_TI_symbol_name("_pi_id")
    2308                      .dwattr $C$DW$262, DW_AT_data_member_location[DW_OP_plus_uconst 0xa2]
    2309                      .dwattr $C$DW$262, DW_AT_accessibility(DW_ACCESS_public)
    2310              
    2311              $C$DW$263       .dwtag  DW_TAG_member
    2312                      .dwattr $C$DW$263, DW_AT_type(*$C$DW$T$78)
    2313                      .dwattr $C$DW$263, DW_AT_name("pi_iq")
    2314                      .dwattr $C$DW$263, DW_AT_TI_symbol_name("_pi_iq")
    2315                      .dwattr $C$DW$263, DW_AT_data_member_location[DW_OP_plus_uconst 0xba]
    2316                      .dwattr $C$DW$263, DW_AT_accessibility(DW_ACCESS_public)
    2317              
    2318              $C$DW$264       .dwtag  DW_TAG_member
    2319                      .dwattr $C$DW$264, DW_AT_type(*$C$DW$T$80)
    2320                      .dwattr $C$DW$264, DW_AT_name("pi_spd")
    2321                      .dwattr $C$DW$264, DW_AT_TI_symbol_name("_pi_spd")
    2322                      .dwattr $C$DW$264, DW_AT_data_member_location[DW_OP_plus_uconst 0xd2]
    2323                      .dwattr $C$DW$264, DW_AT_accessibility(DW_ACCESS_public)
    2324              
    2325              $C$DW$265       .dwtag  DW_TAG_member
    2326                      .dwattr $C$DW$265, DW_AT_type(*$C$DW$T$81)
    2327                      .dwattr $C$DW$265, DW_AT_name("svgen")
    2328                      .dwattr $C$DW$265, DW_AT_TI_symbol_name("_svgen")
    2329                      .dwattr $C$DW$265, DW_AT_data_member_location[DW_OP_plus_uconst 0xfa]
    2330                      .dwattr $C$DW$265, DW_AT_accessibility(DW_ACCESS_public)
    2331              
    2332              $C$DW$266       .dwtag  DW_TAG_member
    2333                      .dwattr $C$DW$266, DW_AT_type(*$C$DW$T$82)
    2334                      .dwattr $C$DW$266, DW_AT_name("rc")
    2335                      .dwattr $C$DW$266, DW_AT_TI_symbol_name("_rc")
    2336                      .dwattr $C$DW$266, DW_AT_data_member_location[DW_OP_plus_uconst 0x10c]
    2337                      .dwattr $C$DW$266, DW_AT_accessibility(DW_ACCESS_public)
    2338              
TMS320C2000 Assembler PC v20.2.5 Fri Jan  6 17:23:30 2023

Copyright (c) 1996-2018 Texas Instruments Incorporated
drv8301.asm                                                          PAGE   44

    2339              $C$DW$267       .dwtag  DW_TAG_member
    2340                      .dwattr $C$DW$267, DW_AT_type(*$C$DW$T$83)
    2341                      .dwattr $C$DW$267, DW_AT_name("rg")
    2342                      .dwattr $C$DW$267, DW_AT_TI_symbol_name("_rg")
    2343                      .dwattr $C$DW$267, DW_AT_data_member_location[DW_OP_plus_uconst 0x11c]
    2344                      .dwattr $C$DW$267, DW_AT_accessibility(DW_ACCESS_public)
    2345              
    2346              $C$DW$268       .dwtag  DW_TAG_member
    2347                      .dwattr $C$DW$268, DW_AT_type(*$C$DW$T$84)
    2348                      .dwattr $C$DW$268, DW_AT_name("volt")
    2349                      .dwattr $C$DW$268, DW_AT_TI_symbol_name("_volt")
    2350                      .dwattr $C$DW$268, DW_AT_data_member_location[DW_OP_plus_uconst 0x128]
    2351                      .dwattr $C$DW$268, DW_AT_accessibility(DW_ACCESS_public)
    2352              
    2353              $C$DW$269       .dwtag  DW_TAG_member
    2354                      .dwattr $C$DW$269, DW_AT_type(*$C$DW$T$85)
    2355                      .dwattr $C$DW$269, DW_AT_name("smo_const")
    2356                      .dwattr $C$DW$269, DW_AT_TI_symbol_name("_smo_const")
    2357                      .dwattr $C$DW$269, DW_AT_data_member_location[DW_OP_plus_uconst 0x13e]
    2358                      .dwattr $C$DW$269, DW_AT_accessibility(DW_ACCESS_public)
    2359              
    2360              $C$DW$270       .dwtag  DW_TAG_member
    2361                      .dwattr $C$DW$270, DW_AT_type(*$C$DW$T$86)
    2362                      .dwattr $C$DW$270, DW_AT_name("smo")
    2363                      .dwattr $C$DW$270, DW_AT_TI_symbol_name("_smo")
    2364                      .dwattr $C$DW$270, DW_AT_data_member_location[DW_OP_plus_uconst 0x14c]
    2365                      .dwattr $C$DW$270, DW_AT_accessibility(DW_ACCESS_public)
    2366              
    2367              $C$DW$271       .dwtag  DW_TAG_member
    2368                      .dwattr $C$DW$271, DW_AT_type(*$C$DW$T$87)
    2369                      .dwattr $C$DW$271, DW_AT_name("speed1")
    2370                      .dwattr $C$DW$271, DW_AT_TI_symbol_name("_speed1")
    2371                      .dwattr $C$DW$271, DW_AT_data_member_location[DW_OP_plus_uconst 0x170]
    2372                      .dwattr $C$DW$271, DW_AT_accessibility(DW_ACCESS_public)
    2373              
    2374              $C$DW$272       .dwtag  DW_TAG_member
    2375                      .dwattr $C$DW$272, DW_AT_type(*$C$DW$T$88)
    2376                      .dwattr $C$DW$272, DW_AT_name("speed")
    2377                      .dwattr $C$DW$272, DW_AT_TI_symbol_name("_speed")
    2378                      .dwattr $C$DW$272, DW_AT_data_member_location[DW_OP_plus_uconst 0x182]
    2379                      .dwattr $C$DW$272, DW_AT_accessibility(DW_ACCESS_public)
    2380              
    2381              $C$DW$273       .dwtag  DW_TAG_member
    2382                      .dwattr $C$DW$273, DW_AT_type(*$C$DW$T$89)
    2383                      .dwattr $C$DW$273, DW_AT_name("qep")
    2384                      .dwattr $C$DW$273, DW_AT_TI_symbol_name("_qep")
    2385                      .dwattr $C$DW$273, DW_AT_data_member_location[DW_OP_plus_uconst 0x196]
    2386                      .dwattr $C$DW$273, DW_AT_accessibility(DW_ACCESS_public)
    2387              
    2388              $C$DW$274       .dwtag  DW_TAG_member
    2389                      .dwattr $C$DW$274, DW_AT_type(*$C$DW$T$90)
    2390                      .dwattr $C$DW$274, DW_AT_name("drv8301")
    2391                      .dwattr $C$DW$274, DW_AT_TI_symbol_name("_drv8301")
    2392                      .dwattr $C$DW$274, DW_AT_data_member_location[DW_OP_plus_uconst 0x1a8]
    2393                      .dwattr $C$DW$274, DW_AT_accessibility(DW_ACCESS_public)
TMS320C2000 Assembler PC v20.2.5 Fri Jan  6 17:23:30 2023

Copyright (c) 1996-2018 Texas Instruments Incorporated
drv8301.asm                                                          PAGE   45

    2394              
    2395              $C$DW$275       .dwtag  DW_TAG_member
    2396                      .dwattr $C$DW$275, DW_AT_type(*$C$DW$T$91)
    2397                      .dwattr $C$DW$275, DW_AT_name("drv8305")
    2398                      .dwattr $C$DW$275, DW_AT_TI_symbol_name("_drv8305")
    2399                      .dwattr $C$DW$275, DW_AT_data_member_location[DW_OP_plus_uconst 0x1af]
    2400                      .dwattr $C$DW$275, DW_AT_accessibility(DW_ACCESS_public)
    2401              
    2402                      .dwendtag $C$DW$T$92
    2403              
    2404              $C$DW$T$299     .dwtag  DW_TAG_typedef
    2405                      .dwattr $C$DW$T$299, DW_AT_name("MOTOR_VARS")
    2406                      .dwattr $C$DW$T$299, DW_AT_type(*$C$DW$T$92)
    2407                      .dwattr $C$DW$T$299, DW_AT_language(DW_LANG_C)
    2408              
    2409              $C$DW$T$300     .dwtag  DW_TAG_pointer_type
    2410                      .dwattr $C$DW$T$300, DW_AT_type(*$C$DW$T$299)
    2411                      .dwattr $C$DW$T$300, DW_AT_address_class(0x20)
    2412              
    2413              $C$DW$276       .dwtag  DW_TAG_TI_far_type
    2414                      .dwattr $C$DW$276, DW_AT_type(*$C$DW$T$300)
    2415              
    2416              $C$DW$T$301     .dwtag  DW_TAG_const_type
    2417                      .dwattr $C$DW$T$301, DW_AT_type(*$C$DW$276)
    2418              
    2419              
    2420              $C$DW$T$93      .dwtag  DW_TAG_union_type
    2421                      .dwattr $C$DW$T$93, DW_AT_byte_size(0x01)
    2422              $C$DW$277       .dwtag  DW_TAG_member
    2423                      .dwattr $C$DW$277, DW_AT_type(*$C$DW$T$38)
    2424                      .dwattr $C$DW$277, DW_AT_name("all")
    2425                      .dwattr $C$DW$277, DW_AT_TI_symbol_name("_all")
    2426                      .dwattr $C$DW$277, DW_AT_data_member_location[DW_OP_plus_uconst 0x0]
    2427                      .dwattr $C$DW$277, DW_AT_accessibility(DW_ACCESS_public)
    2428              
    2429              $C$DW$278       .dwtag  DW_TAG_member
    2430                      .dwattr $C$DW$278, DW_AT_type(*$C$DW$T$164)
    2431                      .dwattr $C$DW$278, DW_AT_name("bit")
    2432                      .dwattr $C$DW$278, DW_AT_TI_symbol_name("_bit")
    2433                      .dwattr $C$DW$278, DW_AT_data_member_location[DW_OP_plus_uconst 0x0]
    2434                      .dwattr $C$DW$278, DW_AT_accessibility(DW_ACCESS_public)
    2435              
    2436                      .dwendtag $C$DW$T$93
    2437              
    2438              $C$DW$T$52      .dwtag  DW_TAG_typedef
    2439                      .dwattr $C$DW$T$52, DW_AT_name("DRV8301_STATUS_REG_1")
    2440                      .dwattr $C$DW$T$52, DW_AT_type(*$C$DW$T$93)
    2441                      .dwattr $C$DW$T$52, DW_AT_language(DW_LANG_C)
    2442              
    2443              
    2444              $C$DW$T$94      .dwtag  DW_TAG_union_type
    2445                      .dwattr $C$DW$T$94, DW_AT_byte_size(0x01)
    2446              $C$DW$279       .dwtag  DW_TAG_member
    2447                      .dwattr $C$DW$279, DW_AT_type(*$C$DW$T$38)
    2448                      .dwattr $C$DW$279, DW_AT_name("all")
TMS320C2000 Assembler PC v20.2.5 Fri Jan  6 17:23:30 2023

Copyright (c) 1996-2018 Texas Instruments Incorporated
drv8301.asm                                                          PAGE   46

    2449                      .dwattr $C$DW$279, DW_AT_TI_symbol_name("_all")
    2450                      .dwattr $C$DW$279, DW_AT_data_member_location[DW_OP_plus_uconst 0x0]
    2451                      .dwattr $C$DW$279, DW_AT_accessibility(DW_ACCESS_public)
    2452              
    2453              $C$DW$280       .dwtag  DW_TAG_member
    2454                      .dwattr $C$DW$280, DW_AT_type(*$C$DW$T$165)
    2455                      .dwattr $C$DW$280, DW_AT_name("bit")
    2456                      .dwattr $C$DW$280, DW_AT_TI_symbol_name("_bit")
    2457                      .dwattr $C$DW$280, DW_AT_data_member_location[DW_OP_plus_uconst 0x0]
    2458                      .dwattr $C$DW$280, DW_AT_accessibility(DW_ACCESS_public)
    2459              
    2460                      .dwendtag $C$DW$T$94
    2461              
    2462              $C$DW$T$53      .dwtag  DW_TAG_typedef
    2463                      .dwattr $C$DW$T$53, DW_AT_name("DRV8301_STATUS_REG_2")
    2464                      .dwattr $C$DW$T$53, DW_AT_type(*$C$DW$T$94)
    2465                      .dwattr $C$DW$T$53, DW_AT_language(DW_LANG_C)
    2466              
    2467              
    2468              $C$DW$T$95      .dwtag  DW_TAG_union_type
    2469                      .dwattr $C$DW$T$95, DW_AT_byte_size(0x01)
    2470              $C$DW$281       .dwtag  DW_TAG_member
    2471                      .dwattr $C$DW$281, DW_AT_type(*$C$DW$T$38)
    2472                      .dwattr $C$DW$281, DW_AT_name("all")
    2473                      .dwattr $C$DW$281, DW_AT_TI_symbol_name("_all")
    2474                      .dwattr $C$DW$281, DW_AT_data_member_location[DW_OP_plus_uconst 0x0]
    2475                      .dwattr $C$DW$281, DW_AT_accessibility(DW_ACCESS_public)
    2476              
    2477              $C$DW$282       .dwtag  DW_TAG_member
    2478                      .dwattr $C$DW$282, DW_AT_type(*$C$DW$T$162)
    2479                      .dwattr $C$DW$282, DW_AT_name("bit")
    2480                      .dwattr $C$DW$282, DW_AT_TI_symbol_name("_bit")
    2481                      .dwattr $C$DW$282, DW_AT_data_member_location[DW_OP_plus_uconst 0x0]
    2482                      .dwattr $C$DW$282, DW_AT_accessibility(DW_ACCESS_public)
    2483              
    2484                      .dwendtag $C$DW$T$95
    2485              
    2486              $C$DW$T$54      .dwtag  DW_TAG_typedef
    2487                      .dwattr $C$DW$T$54, DW_AT_name("DRV8301_CONTROL_REG_1")
    2488                      .dwattr $C$DW$T$54, DW_AT_type(*$C$DW$T$95)
    2489                      .dwattr $C$DW$T$54, DW_AT_language(DW_LANG_C)
    2490              
    2491              
    2492              $C$DW$T$96      .dwtag  DW_TAG_union_type
    2493                      .dwattr $C$DW$T$96, DW_AT_byte_size(0x01)
    2494              $C$DW$283       .dwtag  DW_TAG_member
    2495                      .dwattr $C$DW$283, DW_AT_type(*$C$DW$T$38)
    2496                      .dwattr $C$DW$283, DW_AT_name("all")
    2497                      .dwattr $C$DW$283, DW_AT_TI_symbol_name("_all")
    2498                      .dwattr $C$DW$283, DW_AT_data_member_location[DW_OP_plus_uconst 0x0]
    2499                      .dwattr $C$DW$283, DW_AT_accessibility(DW_ACCESS_public)
    2500              
    2501              $C$DW$284       .dwtag  DW_TAG_member
    2502                      .dwattr $C$DW$284, DW_AT_type(*$C$DW$T$163)
    2503                      .dwattr $C$DW$284, DW_AT_name("bit")
TMS320C2000 Assembler PC v20.2.5 Fri Jan  6 17:23:30 2023

Copyright (c) 1996-2018 Texas Instruments Incorporated
drv8301.asm                                                          PAGE   47

    2504                      .dwattr $C$DW$284, DW_AT_TI_symbol_name("_bit")
    2505                      .dwattr $C$DW$284, DW_AT_data_member_location[DW_OP_plus_uconst 0x0]
    2506                      .dwattr $C$DW$284, DW_AT_accessibility(DW_ACCESS_public)
    2507              
    2508                      .dwendtag $C$DW$T$96
    2509              
    2510              $C$DW$T$55      .dwtag  DW_TAG_typedef
    2511                      .dwattr $C$DW$T$55, DW_AT_name("DRV8301_CONTROL_REG_2")
    2512                      .dwattr $C$DW$T$55, DW_AT_type(*$C$DW$T$96)
    2513                      .dwattr $C$DW$T$55, DW_AT_language(DW_LANG_C)
    2514              
    2515              
    2516              $C$DW$T$97      .dwtag  DW_TAG_union_type
    2517                      .dwattr $C$DW$T$97, DW_AT_byte_size(0x01)
    2518              $C$DW$285       .dwtag  DW_TAG_member
    2519                      .dwattr $C$DW$285, DW_AT_type(*$C$DW$T$38)
    2520                      .dwattr $C$DW$285, DW_AT_name("all")
    2521                      .dwattr $C$DW$285, DW_AT_TI_symbol_name("_all")
    2522                      .dwattr $C$DW$285, DW_AT_data_member_location[DW_OP_plus_uconst 0x0]
    2523                      .dwattr $C$DW$285, DW_AT_accessibility(DW_ACCESS_public)
    2524              
    2525              $C$DW$286       .dwtag  DW_TAG_member
    2526                      .dwattr $C$DW$286, DW_AT_type(*$C$DW$T$176)
    2527                      .dwattr $C$DW$286, DW_AT_name("bit")
    2528                      .dwattr $C$DW$286, DW_AT_TI_symbol_name("_bit")
    2529                      .dwattr $C$DW$286, DW_AT_data_member_location[DW_OP_plus_uconst 0x0]
    2530                      .dwattr $C$DW$286, DW_AT_accessibility(DW_ACCESS_public)
    2531              
    2532                      .dwendtag $C$DW$T$97
    2533              
    2534              $C$DW$T$57      .dwtag  DW_TAG_typedef
    2535                      .dwattr $C$DW$T$57, DW_AT_name("DRV8305_WWD_REG")
    2536                      .dwattr $C$DW$T$57, DW_AT_type(*$C$DW$T$97)
    2537                      .dwattr $C$DW$T$57, DW_AT_language(DW_LANG_C)
    2538              
    2539              
    2540              $C$DW$T$98      .dwtag  DW_TAG_union_type
    2541                      .dwattr $C$DW$T$98, DW_AT_byte_size(0x01)
    2542              $C$DW$287       .dwtag  DW_TAG_member
    2543                      .dwattr $C$DW$287, DW_AT_type(*$C$DW$T$38)
    2544                      .dwattr $C$DW$287, DW_AT_name("all")
    2545                      .dwattr $C$DW$287, DW_AT_TI_symbol_name("_all")
    2546                      .dwattr $C$DW$287, DW_AT_data_member_location[DW_OP_plus_uconst 0x0]
    2547                      .dwattr $C$DW$287, DW_AT_accessibility(DW_ACCESS_public)
    2548              
    2549              $C$DW$288       .dwtag  DW_TAG_member
    2550                      .dwattr $C$DW$288, DW_AT_type(*$C$DW$T$172)
    2551                      .dwattr $C$DW$288, DW_AT_name("bit")
    2552                      .dwattr $C$DW$288, DW_AT_TI_symbol_name("_bit")
    2553                      .dwattr $C$DW$288, DW_AT_data_member_location[DW_OP_plus_uconst 0x0]
    2554                      .dwattr $C$DW$288, DW_AT_accessibility(DW_ACCESS_public)
    2555              
    2556                      .dwendtag $C$DW$T$98
    2557              
    2558              $C$DW$T$58      .dwtag  DW_TAG_typedef
TMS320C2000 Assembler PC v20.2.5 Fri Jan  6 17:23:30 2023

Copyright (c) 1996-2018 Texas Instruments Incorporated
drv8301.asm                                                          PAGE   48

    2559                      .dwattr $C$DW$T$58, DW_AT_name("DRV8305_OV_VDS_FAULTS_REG")
    2560                      .dwattr $C$DW$T$58, DW_AT_type(*$C$DW$T$98)
    2561                      .dwattr $C$DW$T$58, DW_AT_language(DW_LANG_C)
    2562              
    2563              
    2564              $C$DW$T$99      .dwtag  DW_TAG_union_type
    2565                      .dwattr $C$DW$T$99, DW_AT_byte_size(0x01)
    2566              $C$DW$289       .dwtag  DW_TAG_member
    2567                      .dwattr $C$DW$289, DW_AT_type(*$C$DW$T$38)
    2568                      .dwattr $C$DW$289, DW_AT_name("all")
    2569                      .dwattr $C$DW$289, DW_AT_TI_symbol_name("_all")
    2570                      .dwattr $C$DW$289, DW_AT_data_member_location[DW_OP_plus_uconst 0x0]
    2571                      .dwattr $C$DW$289, DW_AT_accessibility(DW_ACCESS_public)
    2572              
    2573              $C$DW$290       .dwtag  DW_TAG_member
    2574                      .dwattr $C$DW$290, DW_AT_type(*$C$DW$T$169)
    2575                      .dwattr $C$DW$290, DW_AT_name("bit")
    2576                      .dwattr $C$DW$290, DW_AT_TI_symbol_name("_bit")
    2577                      .dwattr $C$DW$290, DW_AT_data_member_location[DW_OP_plus_uconst 0x0]
    2578                      .dwattr $C$DW$290, DW_AT_accessibility(DW_ACCESS_public)
    2579              
    2580                      .dwendtag $C$DW$T$99
    2581              
    2582              $C$DW$T$59      .dwtag  DW_TAG_typedef
    2583                      .dwattr $C$DW$T$59, DW_AT_name("DRV8305_IC_FAULTS_REG")
    2584                      .dwattr $C$DW$T$59, DW_AT_type(*$C$DW$T$99)
    2585                      .dwattr $C$DW$T$59, DW_AT_language(DW_LANG_C)
    2586              
    2587              
    2588              $C$DW$T$100     .dwtag  DW_TAG_union_type
    2589                      .dwattr $C$DW$T$100, DW_AT_byte_size(0x01)
    2590              $C$DW$291       .dwtag  DW_TAG_member
    2591                      .dwattr $C$DW$291, DW_AT_type(*$C$DW$T$38)
    2592                      .dwattr $C$DW$291, DW_AT_name("all")
    2593                      .dwattr $C$DW$291, DW_AT_TI_symbol_name("_all")
    2594                      .dwattr $C$DW$291, DW_AT_data_member_location[DW_OP_plus_uconst 0x0]
    2595                      .dwattr $C$DW$291, DW_AT_accessibility(DW_ACCESS_public)
    2596              
    2597              $C$DW$292       .dwtag  DW_TAG_member
    2598                      .dwattr $C$DW$292, DW_AT_type(*$C$DW$T$167)
    2599                      .dwattr $C$DW$292, DW_AT_name("bit")
    2600                      .dwattr $C$DW$292, DW_AT_TI_symbol_name("_bit")
    2601                      .dwattr $C$DW$292, DW_AT_data_member_location[DW_OP_plus_uconst 0x0]
    2602                      .dwattr $C$DW$292, DW_AT_accessibility(DW_ACCESS_public)
    2603              
    2604                      .dwendtag $C$DW$T$100
    2605              
    2606              $C$DW$T$60      .dwtag  DW_TAG_typedef
    2607                      .dwattr $C$DW$T$60, DW_AT_name("DRV8305_GD_VGS_FAULTS_REG")
    2608                      .dwattr $C$DW$T$60, DW_AT_type(*$C$DW$T$100)
    2609                      .dwattr $C$DW$T$60, DW_AT_language(DW_LANG_C)
    2610              
    2611              
    2612              $C$DW$T$101     .dwtag  DW_TAG_union_type
    2613                      .dwattr $C$DW$T$101, DW_AT_byte_size(0x01)
TMS320C2000 Assembler PC v20.2.5 Fri Jan  6 17:23:30 2023

Copyright (c) 1996-2018 Texas Instruments Incorporated
drv8301.asm                                                          PAGE   49

    2614              $C$DW$293       .dwtag  DW_TAG_member
    2615                      .dwattr $C$DW$293, DW_AT_type(*$C$DW$T$38)
    2616                      .dwattr $C$DW$293, DW_AT_name("all")
    2617                      .dwattr $C$DW$293, DW_AT_TI_symbol_name("_all")
    2618                      .dwattr $C$DW$293, DW_AT_data_member_location[DW_OP_plus_uconst 0x0]
    2619                      .dwattr $C$DW$293, DW_AT_accessibility(DW_ACCESS_public)
    2620              
    2621              $C$DW$294       .dwtag  DW_TAG_member
    2622                      .dwattr $C$DW$294, DW_AT_type(*$C$DW$T$168)
    2623                      .dwattr $C$DW$294, DW_AT_name("bit")
    2624                      .dwattr $C$DW$294, DW_AT_TI_symbol_name("_bit")
    2625                      .dwattr $C$DW$294, DW_AT_data_member_location[DW_OP_plus_uconst 0x0]
    2626                      .dwattr $C$DW$294, DW_AT_accessibility(DW_ACCESS_public)
    2627              
    2628                      .dwendtag $C$DW$T$101
    2629              
    2630              $C$DW$T$61      .dwtag  DW_TAG_typedef
    2631                      .dwattr $C$DW$T$61, DW_AT_name("DRV8305_HS_GATE_DRIVER_CNTRL_REG")
    2632                      .dwattr $C$DW$T$61, DW_AT_type(*$C$DW$T$101)
    2633                      .dwattr $C$DW$T$61, DW_AT_language(DW_LANG_C)
    2634              
    2635              
    2636              $C$DW$T$102     .dwtag  DW_TAG_union_type
    2637                      .dwattr $C$DW$T$102, DW_AT_byte_size(0x01)
    2638              $C$DW$295       .dwtag  DW_TAG_member
    2639                      .dwattr $C$DW$295, DW_AT_type(*$C$DW$T$38)
    2640                      .dwattr $C$DW$295, DW_AT_name("all")
    2641                      .dwattr $C$DW$295, DW_AT_TI_symbol_name("_all")
    2642                      .dwattr $C$DW$295, DW_AT_data_member_location[DW_OP_plus_uconst 0x0]
    2643                      .dwattr $C$DW$295, DW_AT_accessibility(DW_ACCESS_public)
    2644              
    2645              $C$DW$296       .dwtag  DW_TAG_member
    2646                      .dwattr $C$DW$296, DW_AT_type(*$C$DW$T$171)
    2647                      .dwattr $C$DW$296, DW_AT_name("bit")
    2648                      .dwattr $C$DW$296, DW_AT_TI_symbol_name("_bit")
    2649                      .dwattr $C$DW$296, DW_AT_data_member_location[DW_OP_plus_uconst 0x0]
    2650                      .dwattr $C$DW$296, DW_AT_accessibility(DW_ACCESS_public)
    2651              
    2652                      .dwendtag $C$DW$T$102
    2653              
    2654              $C$DW$T$62      .dwtag  DW_TAG_typedef
    2655                      .dwattr $C$DW$T$62, DW_AT_name("DRV8305_LS_GATE_DRIVER_CNTRL_REG")
    2656                      .dwattr $C$DW$T$62, DW_AT_type(*$C$DW$T$102)
    2657                      .dwattr $C$DW$T$62, DW_AT_language(DW_LANG_C)
    2658              
    2659              
    2660              $C$DW$T$103     .dwtag  DW_TAG_union_type
    2661                      .dwattr $C$DW$T$103, DW_AT_byte_size(0x01)
    2662              $C$DW$297       .dwtag  DW_TAG_member
    2663                      .dwattr $C$DW$297, DW_AT_type(*$C$DW$T$38)
    2664                      .dwattr $C$DW$297, DW_AT_name("all")
    2665                      .dwattr $C$DW$297, DW_AT_TI_symbol_name("_all")
    2666                      .dwattr $C$DW$297, DW_AT_data_member_location[DW_OP_plus_uconst 0x0]
    2667                      .dwattr $C$DW$297, DW_AT_accessibility(DW_ACCESS_public)
    2668              
TMS320C2000 Assembler PC v20.2.5 Fri Jan  6 17:23:30 2023

Copyright (c) 1996-2018 Texas Instruments Incorporated
drv8301.asm                                                          PAGE   50

    2669              $C$DW$298       .dwtag  DW_TAG_member
    2670                      .dwattr $C$DW$298, DW_AT_type(*$C$DW$T$166)
    2671                      .dwattr $C$DW$298, DW_AT_name("bit")
    2672                      .dwattr $C$DW$298, DW_AT_TI_symbol_name("_bit")
    2673                      .dwattr $C$DW$298, DW_AT_data_member_location[DW_OP_plus_uconst 0x0]
    2674                      .dwattr $C$DW$298, DW_AT_accessibility(DW_ACCESS_public)
    2675              
    2676                      .dwendtag $C$DW$T$103
    2677              
    2678              $C$DW$T$63      .dwtag  DW_TAG_typedef
    2679                      .dwattr $C$DW$T$63, DW_AT_name("DRV8305_GD_CNTRL_REG")
    2680                      .dwattr $C$DW$T$63, DW_AT_type(*$C$DW$T$103)
    2681                      .dwattr $C$DW$T$63, DW_AT_language(DW_LANG_C)
    2682              
    2683              
    2684              $C$DW$T$104     .dwtag  DW_TAG_union_type
    2685                      .dwattr $C$DW$T$104, DW_AT_byte_size(0x01)
    2686              $C$DW$299       .dwtag  DW_TAG_member
    2687                      .dwattr $C$DW$299, DW_AT_type(*$C$DW$T$38)
    2688                      .dwattr $C$DW$299, DW_AT_name("all")
    2689                      .dwattr $C$DW$299, DW_AT_TI_symbol_name("_all")
    2690                      .dwattr $C$DW$299, DW_AT_data_member_location[DW_OP_plus_uconst 0x0]
    2691                      .dwattr $C$DW$299, DW_AT_accessibility(DW_ACCESS_public)
    2692              
    2693              $C$DW$300       .dwtag  DW_TAG_member
    2694                      .dwattr $C$DW$300, DW_AT_type(*$C$DW$T$170)
    2695                      .dwattr $C$DW$300, DW_AT_name("bit")
    2696                      .dwattr $C$DW$300, DW_AT_TI_symbol_name("_bit")
    2697                      .dwattr $C$DW$300, DW_AT_data_member_location[DW_OP_plus_uconst 0x0]
    2698                      .dwattr $C$DW$300, DW_AT_accessibility(DW_ACCESS_public)
    2699              
    2700                      .dwendtag $C$DW$T$104
    2701              
    2702              $C$DW$T$64      .dwtag  DW_TAG_typedef
    2703                      .dwattr $C$DW$T$64, DW_AT_name("DRV8305_IC_OPS_REG")
    2704                      .dwattr $C$DW$T$64, DW_AT_type(*$C$DW$T$104)
    2705                      .dwattr $C$DW$T$64, DW_AT_language(DW_LANG_C)
    2706              
    2707              
    2708              $C$DW$T$105     .dwtag  DW_TAG_union_type
    2709                      .dwattr $C$DW$T$105, DW_AT_byte_size(0x01)
    2710              $C$DW$301       .dwtag  DW_TAG_member
    2711                      .dwattr $C$DW$301, DW_AT_type(*$C$DW$T$38)
    2712                      .dwattr $C$DW$301, DW_AT_name("all")
    2713                      .dwattr $C$DW$301, DW_AT_TI_symbol_name("_all")
    2714                      .dwattr $C$DW$301, DW_AT_data_member_location[DW_OP_plus_uconst 0x0]
    2715                      .dwattr $C$DW$301, DW_AT_accessibility(DW_ACCESS_public)
    2716              
    2717              $C$DW$302       .dwtag  DW_TAG_member
    2718                      .dwattr $C$DW$302, DW_AT_type(*$C$DW$T$173)
    2719                      .dwattr $C$DW$302, DW_AT_name("bit")
    2720                      .dwattr $C$DW$302, DW_AT_TI_symbol_name("_bit")
    2721                      .dwattr $C$DW$302, DW_AT_data_member_location[DW_OP_plus_uconst 0x0]
    2722                      .dwattr $C$DW$302, DW_AT_accessibility(DW_ACCESS_public)
    2723              
TMS320C2000 Assembler PC v20.2.5 Fri Jan  6 17:23:30 2023

Copyright (c) 1996-2018 Texas Instruments Incorporated
drv8301.asm                                                          PAGE   51

    2724                      .dwendtag $C$DW$T$105
    2725              
    2726              $C$DW$T$65      .dwtag  DW_TAG_typedef
    2727                      .dwattr $C$DW$T$65, DW_AT_name("DRV8305_SHUNT_AMP_CNTRL_REG")
    2728                      .dwattr $C$DW$T$65, DW_AT_type(*$C$DW$T$105)
    2729                      .dwattr $C$DW$T$65, DW_AT_language(DW_LANG_C)
    2730              
    2731              
    2732              $C$DW$T$106     .dwtag  DW_TAG_union_type
    2733                      .dwattr $C$DW$T$106, DW_AT_byte_size(0x01)
    2734              $C$DW$303       .dwtag  DW_TAG_member
    2735                      .dwattr $C$DW$303, DW_AT_type(*$C$DW$T$38)
    2736                      .dwattr $C$DW$303, DW_AT_name("all")
    2737                      .dwattr $C$DW$303, DW_AT_TI_symbol_name("_all")
    2738                      .dwattr $C$DW$303, DW_AT_data_member_location[DW_OP_plus_uconst 0x0]
    2739                      .dwattr $C$DW$303, DW_AT_accessibility(DW_ACCESS_public)
    2740              
    2741              $C$DW$304       .dwtag  DW_TAG_member
    2742                      .dwattr $C$DW$304, DW_AT_type(*$C$DW$T$175)
    2743                      .dwattr $C$DW$304, DW_AT_name("bit")
    2744                      .dwattr $C$DW$304, DW_AT_TI_symbol_name("_bit")
    2745                      .dwattr $C$DW$304, DW_AT_data_member_location[DW_OP_plus_uconst 0x0]
    2746                      .dwattr $C$DW$304, DW_AT_accessibility(DW_ACCESS_public)
    2747              
    2748                      .dwendtag $C$DW$T$106
    2749              
    2750              $C$DW$T$66      .dwtag  DW_TAG_typedef
    2751                      .dwattr $C$DW$T$66, DW_AT_name("DRV8305_VREG_CNTRL_REG")
    2752                      .dwattr $C$DW$T$66, DW_AT_type(*$C$DW$T$106)
    2753                      .dwattr $C$DW$T$66, DW_AT_language(DW_LANG_C)
    2754              
    2755              
    2756              $C$DW$T$107     .dwtag  DW_TAG_union_type
    2757                      .dwattr $C$DW$T$107, DW_AT_byte_size(0x01)
    2758              $C$DW$305       .dwtag  DW_TAG_member
    2759                      .dwattr $C$DW$305, DW_AT_type(*$C$DW$T$38)
    2760                      .dwattr $C$DW$305, DW_AT_name("all")
    2761                      .dwattr $C$DW$305, DW_AT_TI_symbol_name("_all")
    2762                      .dwattr $C$DW$305, DW_AT_data_member_location[DW_OP_plus_uconst 0x0]
    2763                      .dwattr $C$DW$305, DW_AT_accessibility(DW_ACCESS_public)
    2764              
    2765              $C$DW$306       .dwtag  DW_TAG_member
    2766                      .dwattr $C$DW$306, DW_AT_type(*$C$DW$T$174)
    2767                      .dwattr $C$DW$306, DW_AT_name("bit")
    2768                      .dwattr $C$DW$306, DW_AT_TI_symbol_name("_bit")
    2769                      .dwattr $C$DW$306, DW_AT_data_member_location[DW_OP_plus_uconst 0x0]
    2770                      .dwattr $C$DW$306, DW_AT_accessibility(DW_ACCESS_public)
    2771              
    2772                      .dwendtag $C$DW$T$107
    2773              
    2774              $C$DW$T$67      .dwtag  DW_TAG_typedef
    2775                      .dwattr $C$DW$T$67, DW_AT_name("DRV8305_VDS_SNS_CNTRL_REG")
    2776                      .dwattr $C$DW$T$67, DW_AT_type(*$C$DW$T$107)
    2777                      .dwattr $C$DW$T$67, DW_AT_language(DW_LANG_C)
    2778              
TMS320C2000 Assembler PC v20.2.5 Fri Jan  6 17:23:30 2023

Copyright (c) 1996-2018 Texas Instruments Incorporated
drv8301.asm                                                          PAGE   52

    2779              
    2780              $C$DW$T$108     .dwtag  DW_TAG_structure_type
    2781                      .dwattr $C$DW$T$108, DW_AT_name("AQCSFRC_BITS")
    2782                      .dwattr $C$DW$T$108, DW_AT_byte_size(0x01)
    2783              $C$DW$307       .dwtag  DW_TAG_member
    2784                      .dwattr $C$DW$307, DW_AT_type(*$C$DW$T$38)
    2785                      .dwattr $C$DW$307, DW_AT_name("CSFA")
    2786                      .dwattr $C$DW$307, DW_AT_TI_symbol_name("_CSFA")
    2787                      .dwattr $C$DW$307, DW_AT_bit_offset(0x0e)
    2788                      .dwattr $C$DW$307, DW_AT_bit_size(0x02)
    2789                      .dwattr $C$DW$307, DW_AT_data_member_location[DW_OP_plus_uconst 0x0]
    2790                      .dwattr $C$DW$307, DW_AT_accessibility(DW_ACCESS_public)
    2791              
    2792              $C$DW$308       .dwtag  DW_TAG_member
    2793                      .dwattr $C$DW$308, DW_AT_type(*$C$DW$T$38)
    2794                      .dwattr $C$DW$308, DW_AT_name("CSFB")
    2795                      .dwattr $C$DW$308, DW_AT_TI_symbol_name("_CSFB")
    2796                      .dwattr $C$DW$308, DW_AT_bit_offset(0x0c)
    2797                      .dwattr $C$DW$308, DW_AT_bit_size(0x02)
    2798                      .dwattr $C$DW$308, DW_AT_data_member_location[DW_OP_plus_uconst 0x0]
    2799                      .dwattr $C$DW$308, DW_AT_accessibility(DW_ACCESS_public)
    2800              
    2801              $C$DW$309       .dwtag  DW_TAG_member
    2802                      .dwattr $C$DW$309, DW_AT_type(*$C$DW$T$38)
    2803                      .dwattr $C$DW$309, DW_AT_name("rsvd1")
    2804                      .dwattr $C$DW$309, DW_AT_TI_symbol_name("_rsvd1")
    2805                      .dwattr $C$DW$309, DW_AT_bit_offset(0x00)
    2806                      .dwattr $C$DW$309, DW_AT_bit_size(0x0c)
    2807                      .dwattr $C$DW$309, DW_AT_data_member_location[DW_OP_plus_uconst 0x0]
    2808                      .dwattr $C$DW$309, DW_AT_accessibility(DW_ACCESS_public)
    2809              
    2810                      .dwendtag $C$DW$T$108
    2811              
    2812              
    2813              $C$DW$T$109     .dwtag  DW_TAG_union_type
    2814                      .dwattr $C$DW$T$109, DW_AT_name("AQCSFRC_REG")
    2815                      .dwattr $C$DW$T$109, DW_AT_byte_size(0x01)
    2816              $C$DW$310       .dwtag  DW_TAG_member
    2817                      .dwattr $C$DW$310, DW_AT_type(*$C$DW$T$38)
    2818                      .dwattr $C$DW$310, DW_AT_name("all")
    2819                      .dwattr $C$DW$310, DW_AT_TI_symbol_name("_all")
    2820                      .dwattr $C$DW$310, DW_AT_data_member_location[DW_OP_plus_uconst 0x0]
    2821                      .dwattr $C$DW$310, DW_AT_accessibility(DW_ACCESS_public)
    2822              
    2823              $C$DW$311       .dwtag  DW_TAG_member
    2824                      .dwattr $C$DW$311, DW_AT_type(*$C$DW$T$108)
    2825                      .dwattr $C$DW$311, DW_AT_name("bit")
    2826                      .dwattr $C$DW$311, DW_AT_TI_symbol_name("_bit")
    2827                      .dwattr $C$DW$311, DW_AT_data_member_location[DW_OP_plus_uconst 0x0]
    2828                      .dwattr $C$DW$311, DW_AT_accessibility(DW_ACCESS_public)
    2829              
    2830                      .dwendtag $C$DW$T$109
    2831              
    2832              
    2833              $C$DW$T$110     .dwtag  DW_TAG_structure_type
TMS320C2000 Assembler PC v20.2.5 Fri Jan  6 17:23:30 2023

Copyright (c) 1996-2018 Texas Instruments Incorporated
drv8301.asm                                                          PAGE   53

    2834                      .dwattr $C$DW$T$110, DW_AT_name("AQCTLA2_BITS")
    2835                      .dwattr $C$DW$T$110, DW_AT_byte_size(0x01)
    2836              $C$DW$312       .dwtag  DW_TAG_member
    2837                      .dwattr $C$DW$312, DW_AT_type(*$C$DW$T$38)
    2838                      .dwattr $C$DW$312, DW_AT_name("T1U")
    2839                      .dwattr $C$DW$312, DW_AT_TI_symbol_name("_T1U")
    2840                      .dwattr $C$DW$312, DW_AT_bit_offset(0x0e)
    2841                      .dwattr $C$DW$312, DW_AT_bit_size(0x02)
    2842                      .dwattr $C$DW$312, DW_AT_data_member_location[DW_OP_plus_uconst 0x0]
    2843                      .dwattr $C$DW$312, DW_AT_accessibility(DW_ACCESS_public)
    2844              
    2845              $C$DW$313       .dwtag  DW_TAG_member
    2846                      .dwattr $C$DW$313, DW_AT_type(*$C$DW$T$38)
    2847                      .dwattr $C$DW$313, DW_AT_name("T1D")
    2848                      .dwattr $C$DW$313, DW_AT_TI_symbol_name("_T1D")
    2849                      .dwattr $C$DW$313, DW_AT_bit_offset(0x0c)
    2850                      .dwattr $C$DW$313, DW_AT_bit_size(0x02)
    2851                      .dwattr $C$DW$313, DW_AT_data_member_location[DW_OP_plus_uconst 0x0]
    2852                      .dwattr $C$DW$313, DW_AT_accessibility(DW_ACCESS_public)
    2853              
    2854              $C$DW$314       .dwtag  DW_TAG_member
    2855                      .dwattr $C$DW$314, DW_AT_type(*$C$DW$T$38)
    2856                      .dwattr $C$DW$314, DW_AT_name("T2U")
    2857                      .dwattr $C$DW$314, DW_AT_TI_symbol_name("_T2U")
    2858                      .dwattr $C$DW$314, DW_AT_bit_offset(0x0a)
    2859                      .dwattr $C$DW$314, DW_AT_bit_size(0x02)
    2860                      .dwattr $C$DW$314, DW_AT_data_member_location[DW_OP_plus_uconst 0x0]
    2861                      .dwattr $C$DW$314, DW_AT_accessibility(DW_ACCESS_public)
    2862              
    2863              $C$DW$315       .dwtag  DW_TAG_member
    2864                      .dwattr $C$DW$315, DW_AT_type(*$C$DW$T$38)
    2865                      .dwattr $C$DW$315, DW_AT_name("T2D")
    2866                      .dwattr $C$DW$315, DW_AT_TI_symbol_name("_T2D")
    2867                      .dwattr $C$DW$315, DW_AT_bit_offset(0x08)
    2868                      .dwattr $C$DW$315, DW_AT_bit_size(0x02)
    2869                      .dwattr $C$DW$315, DW_AT_data_member_location[DW_OP_plus_uconst 0x0]
    2870                      .dwattr $C$DW$315, DW_AT_accessibility(DW_ACCESS_public)
    2871              
    2872              $C$DW$316       .dwtag  DW_TAG_member
    2873                      .dwattr $C$DW$316, DW_AT_type(*$C$DW$T$38)
    2874                      .dwattr $C$DW$316, DW_AT_name("rsvd1")
    2875                      .dwattr $C$DW$316, DW_AT_TI_symbol_name("_rsvd1")
    2876                      .dwattr $C$DW$316, DW_AT_bit_offset(0x00)
    2877                      .dwattr $C$DW$316, DW_AT_bit_size(0x08)
    2878                      .dwattr $C$DW$316, DW_AT_data_member_location[DW_OP_plus_uconst 0x0]
    2879                      .dwattr $C$DW$316, DW_AT_accessibility(DW_ACCESS_public)
    2880              
    2881                      .dwendtag $C$DW$T$110
    2882              
    2883              
    2884              $C$DW$T$111     .dwtag  DW_TAG_union_type
    2885                      .dwattr $C$DW$T$111, DW_AT_name("AQCTLA2_REG")
    2886                      .dwattr $C$DW$T$111, DW_AT_byte_size(0x01)
    2887              $C$DW$317       .dwtag  DW_TAG_member
    2888                      .dwattr $C$DW$317, DW_AT_type(*$C$DW$T$38)
TMS320C2000 Assembler PC v20.2.5 Fri Jan  6 17:23:30 2023

Copyright (c) 1996-2018 Texas Instruments Incorporated
drv8301.asm                                                          PAGE   54

    2889                      .dwattr $C$DW$317, DW_AT_name("all")
    2890                      .dwattr $C$DW$317, DW_AT_TI_symbol_name("_all")
    2891                      .dwattr $C$DW$317, DW_AT_data_member_location[DW_OP_plus_uconst 0x0]
    2892                      .dwattr $C$DW$317, DW_AT_accessibility(DW_ACCESS_public)
    2893              
    2894              $C$DW$318       .dwtag  DW_TAG_member
    2895                      .dwattr $C$DW$318, DW_AT_type(*$C$DW$T$110)
    2896                      .dwattr $C$DW$318, DW_AT_name("bit")
    2897                      .dwattr $C$DW$318, DW_AT_TI_symbol_name("_bit")
    2898                      .dwattr $C$DW$318, DW_AT_data_member_location[DW_OP_plus_uconst 0x0]
    2899                      .dwattr $C$DW$318, DW_AT_accessibility(DW_ACCESS_public)
    2900              
    2901                      .dwendtag $C$DW$T$111
    2902              
    2903              
    2904              $C$DW$T$112     .dwtag  DW_TAG_structure_type
    2905                      .dwattr $C$DW$T$112, DW_AT_name("AQCTLA_BITS")
    2906                      .dwattr $C$DW$T$112, DW_AT_byte_size(0x01)
    2907              $C$DW$319       .dwtag  DW_TAG_member
    2908                      .dwattr $C$DW$319, DW_AT_type(*$C$DW$T$38)
    2909                      .dwattr $C$DW$319, DW_AT_name("ZRO")
    2910                      .dwattr $C$DW$319, DW_AT_TI_symbol_name("_ZRO")
    2911                      .dwattr $C$DW$319, DW_AT_bit_offset(0x0e)
    2912                      .dwattr $C$DW$319, DW_AT_bit_size(0x02)
    2913                      .dwattr $C$DW$319, DW_AT_data_member_location[DW_OP_plus_uconst 0x0]
    2914                      .dwattr $C$DW$319, DW_AT_accessibility(DW_ACCESS_public)
    2915              
    2916              $C$DW$320       .dwtag  DW_TAG_member
    2917                      .dwattr $C$DW$320, DW_AT_type(*$C$DW$T$38)
    2918                      .dwattr $C$DW$320, DW_AT_name("PRD")
    2919                      .dwattr $C$DW$320, DW_AT_TI_symbol_name("_PRD")
    2920                      .dwattr $C$DW$320, DW_AT_bit_offset(0x0c)
    2921                      .dwattr $C$DW$320, DW_AT_bit_size(0x02)
    2922                      .dwattr $C$DW$320, DW_AT_data_member_location[DW_OP_plus_uconst 0x0]
    2923                      .dwattr $C$DW$320, DW_AT_accessibility(DW_ACCESS_public)
    2924              
    2925              $C$DW$321       .dwtag  DW_TAG_member
    2926                      .dwattr $C$DW$321, DW_AT_type(*$C$DW$T$38)
    2927                      .dwattr $C$DW$321, DW_AT_name("CAU")
    2928                      .dwattr $C$DW$321, DW_AT_TI_symbol_name("_CAU")
    2929                      .dwattr $C$DW$321, DW_AT_bit_offset(0x0a)
    2930                      .dwattr $C$DW$321, DW_AT_bit_size(0x02)
    2931                      .dwattr $C$DW$321, DW_AT_data_member_location[DW_OP_plus_uconst 0x0]
    2932                      .dwattr $C$DW$321, DW_AT_accessibility(DW_ACCESS_public)
    2933              
    2934              $C$DW$322       .dwtag  DW_TAG_member
    2935                      .dwattr $C$DW$322, DW_AT_type(*$C$DW$T$38)
    2936                      .dwattr $C$DW$322, DW_AT_name("CAD")
    2937                      .dwattr $C$DW$322, DW_AT_TI_symbol_name("_CAD")
    2938                      .dwattr $C$DW$322, DW_AT_bit_offset(0x08)
    2939                      .dwattr $C$DW$322, DW_AT_bit_size(0x02)
    2940                      .dwattr $C$DW$322, DW_AT_data_member_location[DW_OP_plus_uconst 0x0]
    2941                      .dwattr $C$DW$322, DW_AT_accessibility(DW_ACCESS_public)
    2942              
    2943              $C$DW$323       .dwtag  DW_TAG_member
TMS320C2000 Assembler PC v20.2.5 Fri Jan  6 17:23:30 2023

Copyright (c) 1996-2018 Texas Instruments Incorporated
drv8301.asm                                                          PAGE   55

    2944                      .dwattr $C$DW$323, DW_AT_type(*$C$DW$T$38)
    2945                      .dwattr $C$DW$323, DW_AT_name("CBU")
    2946                      .dwattr $C$DW$323, DW_AT_TI_symbol_name("_CBU")
    2947                      .dwattr $C$DW$323, DW_AT_bit_offset(0x06)
    2948                      .dwattr $C$DW$323, DW_AT_bit_size(0x02)
    2949                      .dwattr $C$DW$323, DW_AT_data_member_location[DW_OP_plus_uconst 0x0]
    2950                      .dwattr $C$DW$323, DW_AT_accessibility(DW_ACCESS_public)
    2951              
    2952              $C$DW$324       .dwtag  DW_TAG_member
    2953                      .dwattr $C$DW$324, DW_AT_type(*$C$DW$T$38)
    2954                      .dwattr $C$DW$324, DW_AT_name("CBD")
    2955                      .dwattr $C$DW$324, DW_AT_TI_symbol_name("_CBD")
    2956                      .dwattr $C$DW$324, DW_AT_bit_offset(0x04)
    2957                      .dwattr $C$DW$324, DW_AT_bit_size(0x02)
    2958                      .dwattr $C$DW$324, DW_AT_data_member_location[DW_OP_plus_uconst 0x0]
    2959                      .dwattr $C$DW$324, DW_AT_accessibility(DW_ACCESS_public)
    2960              
    2961              $C$DW$325       .dwtag  DW_TAG_member
    2962                      .dwattr $C$DW$325, DW_AT_type(*$C$DW$T$38)
    2963                      .dwattr $C$DW$325, DW_AT_name("rsvd1")
    2964                      .dwattr $C$DW$325, DW_AT_TI_symbol_name("_rsvd1")
    2965                      .dwattr $C$DW$325, DW_AT_bit_offset(0x00)
    2966                      .dwattr $C$DW$325, DW_AT_bit_size(0x04)
    2967                      .dwattr $C$DW$325, DW_AT_data_member_location[DW_OP_plus_uconst 0x0]
    2968                      .dwattr $C$DW$325, DW_AT_accessibility(DW_ACCESS_public)
    2969              
    2970                      .dwendtag $C$DW$T$112
    2971              
    2972              
    2973              $C$DW$T$113     .dwtag  DW_TAG_union_type
    2974                      .dwattr $C$DW$T$113, DW_AT_name("AQCTLA_REG")
    2975                      .dwattr $C$DW$T$113, DW_AT_byte_size(0x01)
    2976              $C$DW$326       .dwtag  DW_TAG_member
    2977                      .dwattr $C$DW$326, DW_AT_type(*$C$DW$T$38)
    2978                      .dwattr $C$DW$326, DW_AT_name("all")
    2979                      .dwattr $C$DW$326, DW_AT_TI_symbol_name("_all")
    2980                      .dwattr $C$DW$326, DW_AT_data_member_location[DW_OP_plus_uconst 0x0]
    2981                      .dwattr $C$DW$326, DW_AT_accessibility(DW_ACCESS_public)
    2982              
    2983              $C$DW$327       .dwtag  DW_TAG_member
    2984                      .dwattr $C$DW$327, DW_AT_type(*$C$DW$T$112)
    2985                      .dwattr $C$DW$327, DW_AT_name("bit")
    2986                      .dwattr $C$DW$327, DW_AT_TI_symbol_name("_bit")
    2987                      .dwattr $C$DW$327, DW_AT_data_member_location[DW_OP_plus_uconst 0x0]
    2988                      .dwattr $C$DW$327, DW_AT_accessibility(DW_ACCESS_public)
    2989              
    2990                      .dwendtag $C$DW$T$113
    2991              
    2992              
    2993              $C$DW$T$114     .dwtag  DW_TAG_structure_type
    2994                      .dwattr $C$DW$T$114, DW_AT_name("AQCTLB2_BITS")
    2995                      .dwattr $C$DW$T$114, DW_AT_byte_size(0x01)
    2996              $C$DW$328       .dwtag  DW_TAG_member
    2997                      .dwattr $C$DW$328, DW_AT_type(*$C$DW$T$38)
    2998                      .dwattr $C$DW$328, DW_AT_name("T1U")
TMS320C2000 Assembler PC v20.2.5 Fri Jan  6 17:23:30 2023

Copyright (c) 1996-2018 Texas Instruments Incorporated
drv8301.asm                                                          PAGE   56

    2999                      .dwattr $C$DW$328, DW_AT_TI_symbol_name("_T1U")
    3000                      .dwattr $C$DW$328, DW_AT_bit_offset(0x0e)
    3001                      .dwattr $C$DW$328, DW_AT_bit_size(0x02)
    3002                      .dwattr $C$DW$328, DW_AT_data_member_location[DW_OP_plus_uconst 0x0]
    3003                      .dwattr $C$DW$328, DW_AT_accessibility(DW_ACCESS_public)
    3004              
    3005              $C$DW$329       .dwtag  DW_TAG_member
    3006                      .dwattr $C$DW$329, DW_AT_type(*$C$DW$T$38)
    3007                      .dwattr $C$DW$329, DW_AT_name("T1D")
    3008                      .dwattr $C$DW$329, DW_AT_TI_symbol_name("_T1D")
    3009                      .dwattr $C$DW$329, DW_AT_bit_offset(0x0c)
    3010                      .dwattr $C$DW$329, DW_AT_bit_size(0x02)
    3011                      .dwattr $C$DW$329, DW_AT_data_member_location[DW_OP_plus_uconst 0x0]
    3012                      .dwattr $C$DW$329, DW_AT_accessibility(DW_ACCESS_public)
    3013              
    3014              $C$DW$330       .dwtag  DW_TAG_member
    3015                      .dwattr $C$DW$330, DW_AT_type(*$C$DW$T$38)
    3016                      .dwattr $C$DW$330, DW_AT_name("T2U")
    3017                      .dwattr $C$DW$330, DW_AT_TI_symbol_name("_T2U")
    3018                      .dwattr $C$DW$330, DW_AT_bit_offset(0x0a)
    3019                      .dwattr $C$DW$330, DW_AT_bit_size(0x02)
    3020                      .dwattr $C$DW$330, DW_AT_data_member_location[DW_OP_plus_uconst 0x0]
    3021                      .dwattr $C$DW$330, DW_AT_accessibility(DW_ACCESS_public)
    3022              
    3023              $C$DW$331       .dwtag  DW_TAG_member
    3024                      .dwattr $C$DW$331, DW_AT_type(*$C$DW$T$38)
    3025                      .dwattr $C$DW$331, DW_AT_name("T2D")
    3026                      .dwattr $C$DW$331, DW_AT_TI_symbol_name("_T2D")
    3027                      .dwattr $C$DW$331, DW_AT_bit_offset(0x08)
    3028                      .dwattr $C$DW$331, DW_AT_bit_size(0x02)
    3029                      .dwattr $C$DW$331, DW_AT_data_member_location[DW_OP_plus_uconst 0x0]
    3030                      .dwattr $C$DW$331, DW_AT_accessibility(DW_ACCESS_public)
    3031              
    3032              $C$DW$332       .dwtag  DW_TAG_member
    3033                      .dwattr $C$DW$332, DW_AT_type(*$C$DW$T$38)
    3034                      .dwattr $C$DW$332, DW_AT_name("rsvd1")
    3035                      .dwattr $C$DW$332, DW_AT_TI_symbol_name("_rsvd1")
    3036                      .dwattr $C$DW$332, DW_AT_bit_offset(0x00)
    3037                      .dwattr $C$DW$332, DW_AT_bit_size(0x08)
    3038                      .dwattr $C$DW$332, DW_AT_data_member_location[DW_OP_plus_uconst 0x0]
    3039                      .dwattr $C$DW$332, DW_AT_accessibility(DW_ACCESS_public)
    3040              
    3041                      .dwendtag $C$DW$T$114
    3042              
    3043              
    3044              $C$DW$T$115     .dwtag  DW_TAG_union_type
    3045                      .dwattr $C$DW$T$115, DW_AT_name("AQCTLB2_REG")
    3046                      .dwattr $C$DW$T$115, DW_AT_byte_size(0x01)
    3047              $C$DW$333       .dwtag  DW_TAG_member
    3048                      .dwattr $C$DW$333, DW_AT_type(*$C$DW$T$38)
    3049                      .dwattr $C$DW$333, DW_AT_name("all")
    3050                      .dwattr $C$DW$333, DW_AT_TI_symbol_name("_all")
    3051                      .dwattr $C$DW$333, DW_AT_data_member_location[DW_OP_plus_uconst 0x0]
    3052                      .dwattr $C$DW$333, DW_AT_accessibility(DW_ACCESS_public)
    3053              
TMS320C2000 Assembler PC v20.2.5 Fri Jan  6 17:23:30 2023

Copyright (c) 1996-2018 Texas Instruments Incorporated
drv8301.asm                                                          PAGE   57

    3054              $C$DW$334       .dwtag  DW_TAG_member
    3055                      .dwattr $C$DW$334, DW_AT_type(*$C$DW$T$114)
    3056                      .dwattr $C$DW$334, DW_AT_name("bit")
    3057                      .dwattr $C$DW$334, DW_AT_TI_symbol_name("_bit")
    3058                      .dwattr $C$DW$334, DW_AT_data_member_location[DW_OP_plus_uconst 0x0]
    3059                      .dwattr $C$DW$334, DW_AT_accessibility(DW_ACCESS_public)
    3060              
    3061                      .dwendtag $C$DW$T$115
    3062              
    3063              
    3064              $C$DW$T$116     .dwtag  DW_TAG_structure_type
    3065                      .dwattr $C$DW$T$116, DW_AT_name("AQCTLB_BITS")
    3066                      .dwattr $C$DW$T$116, DW_AT_byte_size(0x01)
    3067              $C$DW$335       .dwtag  DW_TAG_member
    3068                      .dwattr $C$DW$335, DW_AT_type(*$C$DW$T$38)
    3069                      .dwattr $C$DW$335, DW_AT_name("ZRO")
    3070                      .dwattr $C$DW$335, DW_AT_TI_symbol_name("_ZRO")
    3071                      .dwattr $C$DW$335, DW_AT_bit_offset(0x0e)
    3072                      .dwattr $C$DW$335, DW_AT_bit_size(0x02)
    3073                      .dwattr $C$DW$335, DW_AT_data_member_location[DW_OP_plus_uconst 0x0]
    3074                      .dwattr $C$DW$335, DW_AT_accessibility(DW_ACCESS_public)
    3075              
    3076              $C$DW$336       .dwtag  DW_TAG_member
    3077                      .dwattr $C$DW$336, DW_AT_type(*$C$DW$T$38)
    3078                      .dwattr $C$DW$336, DW_AT_name("PRD")
    3079                      .dwattr $C$DW$336, DW_AT_TI_symbol_name("_PRD")
    3080                      .dwattr $C$DW$336, DW_AT_bit_offset(0x0c)
    3081                      .dwattr $C$DW$336, DW_AT_bit_size(0x02)
    3082                      .dwattr $C$DW$336, DW_AT_data_member_location[DW_OP_plus_uconst 0x0]
    3083                      .dwattr $C$DW$336, DW_AT_accessibility(DW_ACCESS_public)
    3084              
    3085              $C$DW$337       .dwtag  DW_TAG_member
    3086                      .dwattr $C$DW$337, DW_AT_type(*$C$DW$T$38)
    3087                      .dwattr $C$DW$337, DW_AT_name("CAU")
    3088                      .dwattr $C$DW$337, DW_AT_TI_symbol_name("_CAU")
    3089                      .dwattr $C$DW$337, DW_AT_bit_offset(0x0a)
    3090                      .dwattr $C$DW$337, DW_AT_bit_size(0x02)
    3091                      .dwattr $C$DW$337, DW_AT_data_member_location[DW_OP_plus_uconst 0x0]
    3092                      .dwattr $C$DW$337, DW_AT_accessibility(DW_ACCESS_public)
    3093              
    3094              $C$DW$338       .dwtag  DW_TAG_member
    3095                      .dwattr $C$DW$338, DW_AT_type(*$C$DW$T$38)
    3096                      .dwattr $C$DW$338, DW_AT_name("CAD")
    3097                      .dwattr $C$DW$338, DW_AT_TI_symbol_name("_CAD")
    3098                      .dwattr $C$DW$338, DW_AT_bit_offset(0x08)
    3099                      .dwattr $C$DW$338, DW_AT_bit_size(0x02)
    3100                      .dwattr $C$DW$338, DW_AT_data_member_location[DW_OP_plus_uconst 0x0]
    3101                      .dwattr $C$DW$338, DW_AT_accessibility(DW_ACCESS_public)
    3102              
    3103              $C$DW$339       .dwtag  DW_TAG_member
    3104                      .dwattr $C$DW$339, DW_AT_type(*$C$DW$T$38)
    3105                      .dwattr $C$DW$339, DW_AT_name("CBU")
    3106                      .dwattr $C$DW$339, DW_AT_TI_symbol_name("_CBU")
    3107                      .dwattr $C$DW$339, DW_AT_bit_offset(0x06)
    3108                      .dwattr $C$DW$339, DW_AT_bit_size(0x02)
TMS320C2000 Assembler PC v20.2.5 Fri Jan  6 17:23:30 2023

Copyright (c) 1996-2018 Texas Instruments Incorporated
drv8301.asm                                                          PAGE   58

    3109                      .dwattr $C$DW$339, DW_AT_data_member_location[DW_OP_plus_uconst 0x0]
    3110                      .dwattr $C$DW$339, DW_AT_accessibility(DW_ACCESS_public)
    3111              
    3112              $C$DW$340       .dwtag  DW_TAG_member
    3113                      .dwattr $C$DW$340, DW_AT_type(*$C$DW$T$38)
    3114                      .dwattr $C$DW$340, DW_AT_name("CBD")
    3115                      .dwattr $C$DW$340, DW_AT_TI_symbol_name("_CBD")
    3116                      .dwattr $C$DW$340, DW_AT_bit_offset(0x04)
    3117                      .dwattr $C$DW$340, DW_AT_bit_size(0x02)
    3118                      .dwattr $C$DW$340, DW_AT_data_member_location[DW_OP_plus_uconst 0x0]
    3119                      .dwattr $C$DW$340, DW_AT_accessibility(DW_ACCESS_public)
    3120              
    3121              $C$DW$341       .dwtag  DW_TAG_member
    3122                      .dwattr $C$DW$341, DW_AT_type(*$C$DW$T$38)
    3123                      .dwattr $C$DW$341, DW_AT_name("rsvd1")
    3124                      .dwattr $C$DW$341, DW_AT_TI_symbol_name("_rsvd1")
    3125                      .dwattr $C$DW$341, DW_AT_bit_offset(0x00)
    3126                      .dwattr $C$DW$341, DW_AT_bit_size(0x04)
    3127                      .dwattr $C$DW$341, DW_AT_data_member_location[DW_OP_plus_uconst 0x0]
    3128                      .dwattr $C$DW$341, DW_AT_accessibility(DW_ACCESS_public)
    3129              
    3130                      .dwendtag $C$DW$T$116
    3131              
    3132              
    3133              $C$DW$T$117     .dwtag  DW_TAG_union_type
    3134                      .dwattr $C$DW$T$117, DW_AT_name("AQCTLB_REG")
    3135                      .dwattr $C$DW$T$117, DW_AT_byte_size(0x01)
    3136              $C$DW$342       .dwtag  DW_TAG_member
    3137                      .dwattr $C$DW$342, DW_AT_type(*$C$DW$T$38)
    3138                      .dwattr $C$DW$342, DW_AT_name("all")
    3139                      .dwattr $C$DW$342, DW_AT_TI_symbol_name("_all")
    3140                      .dwattr $C$DW$342, DW_AT_data_member_location[DW_OP_plus_uconst 0x0]
    3141                      .dwattr $C$DW$342, DW_AT_accessibility(DW_ACCESS_public)
    3142              
    3143              $C$DW$343       .dwtag  DW_TAG_member
    3144                      .dwattr $C$DW$343, DW_AT_type(*$C$DW$T$116)
    3145                      .dwattr $C$DW$343, DW_AT_name("bit")
    3146                      .dwattr $C$DW$343, DW_AT_TI_symbol_name("_bit")
    3147                      .dwattr $C$DW$343, DW_AT_data_member_location[DW_OP_plus_uconst 0x0]
    3148                      .dwattr $C$DW$343, DW_AT_accessibility(DW_ACCESS_public)
    3149              
    3150                      .dwendtag $C$DW$T$117
    3151              
    3152              
    3153              $C$DW$T$118     .dwtag  DW_TAG_structure_type
    3154                      .dwattr $C$DW$T$118, DW_AT_name("AQCTL_BITS")
    3155                      .dwattr $C$DW$T$118, DW_AT_byte_size(0x01)
    3156              $C$DW$344       .dwtag  DW_TAG_member
    3157                      .dwattr $C$DW$344, DW_AT_type(*$C$DW$T$38)
    3158                      .dwattr $C$DW$344, DW_AT_name("LDAQAMODE")
    3159                      .dwattr $C$DW$344, DW_AT_TI_symbol_name("_LDAQAMODE")
    3160                      .dwattr $C$DW$344, DW_AT_bit_offset(0x0e)
    3161                      .dwattr $C$DW$344, DW_AT_bit_size(0x02)
    3162                      .dwattr $C$DW$344, DW_AT_data_member_location[DW_OP_plus_uconst 0x0]
    3163                      .dwattr $C$DW$344, DW_AT_accessibility(DW_ACCESS_public)
TMS320C2000 Assembler PC v20.2.5 Fri Jan  6 17:23:30 2023

Copyright (c) 1996-2018 Texas Instruments Incorporated
drv8301.asm                                                          PAGE   59

    3164              
    3165              $C$DW$345       .dwtag  DW_TAG_member
    3166                      .dwattr $C$DW$345, DW_AT_type(*$C$DW$T$38)
    3167                      .dwattr $C$DW$345, DW_AT_name("LDAQBMODE")
    3168                      .dwattr $C$DW$345, DW_AT_TI_symbol_name("_LDAQBMODE")
    3169                      .dwattr $C$DW$345, DW_AT_bit_offset(0x0c)
    3170                      .dwattr $C$DW$345, DW_AT_bit_size(0x02)
    3171                      .dwattr $C$DW$345, DW_AT_data_member_location[DW_OP_plus_uconst 0x0]
    3172                      .dwattr $C$DW$345, DW_AT_accessibility(DW_ACCESS_public)
    3173              
    3174              $C$DW$346       .dwtag  DW_TAG_member
    3175                      .dwattr $C$DW$346, DW_AT_type(*$C$DW$T$38)
    3176                      .dwattr $C$DW$346, DW_AT_name("SHDWAQAMODE")
    3177                      .dwattr $C$DW$346, DW_AT_TI_symbol_name("_SHDWAQAMODE")
    3178                      .dwattr $C$DW$346, DW_AT_bit_offset(0x0b)
    3179                      .dwattr $C$DW$346, DW_AT_bit_size(0x01)
    3180                      .dwattr $C$DW$346, DW_AT_data_member_location[DW_OP_plus_uconst 0x0]
    3181                      .dwattr $C$DW$346, DW_AT_accessibility(DW_ACCESS_public)
    3182              
    3183              $C$DW$347       .dwtag  DW_TAG_member
    3184                      .dwattr $C$DW$347, DW_AT_type(*$C$DW$T$38)
    3185                      .dwattr $C$DW$347, DW_AT_name("rsvd1")
    3186                      .dwattr $C$DW$347, DW_AT_TI_symbol_name("_rsvd1")
    3187                      .dwattr $C$DW$347, DW_AT_bit_offset(0x0a)
    3188                      .dwattr $C$DW$347, DW_AT_bit_size(0x01)
    3189                      .dwattr $C$DW$347, DW_AT_data_member_location[DW_OP_plus_uconst 0x0]
    3190                      .dwattr $C$DW$347, DW_AT_accessibility(DW_ACCESS_public)
    3191              
    3192              $C$DW$348       .dwtag  DW_TAG_member
    3193                      .dwattr $C$DW$348, DW_AT_type(*$C$DW$T$38)
    3194                      .dwattr $C$DW$348, DW_AT_name("SHDWAQBMODE")
    3195                      .dwattr $C$DW$348, DW_AT_TI_symbol_name("_SHDWAQBMODE")
    3196                      .dwattr $C$DW$348, DW_AT_bit_offset(0x09)
    3197                      .dwattr $C$DW$348, DW_AT_bit_size(0x01)
    3198                      .dwattr $C$DW$348, DW_AT_data_member_location[DW_OP_plus_uconst 0x0]
    3199                      .dwattr $C$DW$348, DW_AT_accessibility(DW_ACCESS_public)
    3200              
    3201              $C$DW$349       .dwtag  DW_TAG_member
    3202                      .dwattr $C$DW$349, DW_AT_type(*$C$DW$T$38)
    3203                      .dwattr $C$DW$349, DW_AT_name("rsvd2")
    3204                      .dwattr $C$DW$349, DW_AT_TI_symbol_name("_rsvd2")
    3205                      .dwattr $C$DW$349, DW_AT_bit_offset(0x08)
    3206                      .dwattr $C$DW$349, DW_AT_bit_size(0x01)
    3207                      .dwattr $C$DW$349, DW_AT_data_member_location[DW_OP_plus_uconst 0x0]
    3208                      .dwattr $C$DW$349, DW_AT_accessibility(DW_ACCESS_public)
    3209              
    3210              $C$DW$350       .dwtag  DW_TAG_member
    3211                      .dwattr $C$DW$350, DW_AT_type(*$C$DW$T$38)
    3212                      .dwattr $C$DW$350, DW_AT_name("LDAQASYNC")
    3213                      .dwattr $C$DW$350, DW_AT_TI_symbol_name("_LDAQASYNC")
    3214                      .dwattr $C$DW$350, DW_AT_bit_offset(0x06)
    3215                      .dwattr $C$DW$350, DW_AT_bit_size(0x02)
    3216                      .dwattr $C$DW$350, DW_AT_data_member_location[DW_OP_plus_uconst 0x0]
    3217                      .dwattr $C$DW$350, DW_AT_accessibility(DW_ACCESS_public)
    3218              
TMS320C2000 Assembler PC v20.2.5 Fri Jan  6 17:23:30 2023

Copyright (c) 1996-2018 Texas Instruments Incorporated
drv8301.asm                                                          PAGE   60

    3219              $C$DW$351       .dwtag  DW_TAG_member
    3220                      .dwattr $C$DW$351, DW_AT_type(*$C$DW$T$38)
    3221                      .dwattr $C$DW$351, DW_AT_name("LDAQBSYNC")
    3222                      .dwattr $C$DW$351, DW_AT_TI_symbol_name("_LDAQBSYNC")
    3223                      .dwattr $C$DW$351, DW_AT_bit_offset(0x04)
    3224                      .dwattr $C$DW$351, DW_AT_bit_size(0x02)
    3225                      .dwattr $C$DW$351, DW_AT_data_member_location[DW_OP_plus_uconst 0x0]
    3226                      .dwattr $C$DW$351, DW_AT_accessibility(DW_ACCESS_public)
    3227              
    3228              $C$DW$352       .dwtag  DW_TAG_member
    3229                      .dwattr $C$DW$352, DW_AT_type(*$C$DW$T$38)
    3230                      .dwattr $C$DW$352, DW_AT_name("rsvd3")
    3231                      .dwattr $C$DW$352, DW_AT_TI_symbol_name("_rsvd3")
    3232                      .dwattr $C$DW$352, DW_AT_bit_offset(0x00)
    3233                      .dwattr $C$DW$352, DW_AT_bit_size(0x04)
    3234                      .dwattr $C$DW$352, DW_AT_data_member_location[DW_OP_plus_uconst 0x0]
    3235                      .dwattr $C$DW$352, DW_AT_accessibility(DW_ACCESS_public)
    3236              
    3237                      .dwendtag $C$DW$T$118
    3238              
    3239              
    3240              $C$DW$T$119     .dwtag  DW_TAG_union_type
    3241                      .dwattr $C$DW$T$119, DW_AT_name("AQCTL_REG")
    3242                      .dwattr $C$DW$T$119, DW_AT_byte_size(0x01)
    3243              $C$DW$353       .dwtag  DW_TAG_member
    3244                      .dwattr $C$DW$353, DW_AT_type(*$C$DW$T$38)
    3245                      .dwattr $C$DW$353, DW_AT_name("all")
    3246                      .dwattr $C$DW$353, DW_AT_TI_symbol_name("_all")
    3247                      .dwattr $C$DW$353, DW_AT_data_member_location[DW_OP_plus_uconst 0x0]
    3248                      .dwattr $C$DW$353, DW_AT_accessibility(DW_ACCESS_public)
    3249              
    3250              $C$DW$354       .dwtag  DW_TAG_member
    3251                      .dwattr $C$DW$354, DW_AT_type(*$C$DW$T$118)
    3252                      .dwattr $C$DW$354, DW_AT_name("bit")
    3253                      .dwattr $C$DW$354, DW_AT_TI_symbol_name("_bit")
    3254                      .dwattr $C$DW$354, DW_AT_data_member_location[DW_OP_plus_uconst 0x0]
    3255                      .dwattr $C$DW$354, DW_AT_accessibility(DW_ACCESS_public)
    3256              
    3257                      .dwendtag $C$DW$T$119
    3258              
    3259              
    3260              $C$DW$T$120     .dwtag  DW_TAG_structure_type
    3261                      .dwattr $C$DW$T$120, DW_AT_name("AQSFRC_BITS")
    3262                      .dwattr $C$DW$T$120, DW_AT_byte_size(0x01)
    3263              $C$DW$355       .dwtag  DW_TAG_member
    3264                      .dwattr $C$DW$355, DW_AT_type(*$C$DW$T$38)
    3265                      .dwattr $C$DW$355, DW_AT_name("ACTSFA")
    3266                      .dwattr $C$DW$355, DW_AT_TI_symbol_name("_ACTSFA")
    3267                      .dwattr $C$DW$355, DW_AT_bit_offset(0x0e)
    3268                      .dwattr $C$DW$355, DW_AT_bit_size(0x02)
    3269                      .dwattr $C$DW$355, DW_AT_data_member_location[DW_OP_plus_uconst 0x0]
    3270                      .dwattr $C$DW$355, DW_AT_accessibility(DW_ACCESS_public)
    3271              
    3272              $C$DW$356       .dwtag  DW_TAG_member
    3273                      .dwattr $C$DW$356, DW_AT_type(*$C$DW$T$38)
TMS320C2000 Assembler PC v20.2.5 Fri Jan  6 17:23:30 2023

Copyright (c) 1996-2018 Texas Instruments Incorporated
drv8301.asm                                                          PAGE   61

    3274                      .dwattr $C$DW$356, DW_AT_name("OTSFA")
    3275                      .dwattr $C$DW$356, DW_AT_TI_symbol_name("_OTSFA")
    3276                      .dwattr $C$DW$356, DW_AT_bit_offset(0x0d)
    3277                      .dwattr $C$DW$356, DW_AT_bit_size(0x01)
    3278                      .dwattr $C$DW$356, DW_AT_data_member_location[DW_OP_plus_uconst 0x0]
    3279                      .dwattr $C$DW$356, DW_AT_accessibility(DW_ACCESS_public)
    3280              
    3281              $C$DW$357       .dwtag  DW_TAG_member
    3282                      .dwattr $C$DW$357, DW_AT_type(*$C$DW$T$38)
    3283                      .dwattr $C$DW$357, DW_AT_name("ACTSFB")
    3284                      .dwattr $C$DW$357, DW_AT_TI_symbol_name("_ACTSFB")
    3285                      .dwattr $C$DW$357, DW_AT_bit_offset(0x0b)
    3286                      .dwattr $C$DW$357, DW_AT_bit_size(0x02)
    3287                      .dwattr $C$DW$357, DW_AT_data_member_location[DW_OP_plus_uconst 0x0]
    3288                      .dwattr $C$DW$357, DW_AT_accessibility(DW_ACCESS_public)
    3289              
    3290              $C$DW$358       .dwtag  DW_TAG_member
    3291                      .dwattr $C$DW$358, DW_AT_type(*$C$DW$T$38)
    3292                      .dwattr $C$DW$358, DW_AT_name("OTSFB")
    3293                      .dwattr $C$DW$358, DW_AT_TI_symbol_name("_OTSFB")
    3294                      .dwattr $C$DW$358, DW_AT_bit_offset(0x0a)
    3295                      .dwattr $C$DW$358, DW_AT_bit_size(0x01)
    3296                      .dwattr $C$DW$358, DW_AT_data_member_location[DW_OP_plus_uconst 0x0]
    3297                      .dwattr $C$DW$358, DW_AT_accessibility(DW_ACCESS_public)
    3298              
    3299              $C$DW$359       .dwtag  DW_TAG_member
    3300                      .dwattr $C$DW$359, DW_AT_type(*$C$DW$T$38)
    3301                      .dwattr $C$DW$359, DW_AT_name("RLDCSF")
    3302                      .dwattr $C$DW$359, DW_AT_TI_symbol_name("_RLDCSF")
    3303                      .dwattr $C$DW$359, DW_AT_bit_offset(0x08)
    3304                      .dwattr $C$DW$359, DW_AT_bit_size(0x02)
    3305                      .dwattr $C$DW$359, DW_AT_data_member_location[DW_OP_plus_uconst 0x0]
    3306                      .dwattr $C$DW$359, DW_AT_accessibility(DW_ACCESS_public)
    3307              
    3308              $C$DW$360       .dwtag  DW_TAG_member
    3309                      .dwattr $C$DW$360, DW_AT_type(*$C$DW$T$38)
    3310                      .dwattr $C$DW$360, DW_AT_name("rsvd1")
    3311                      .dwattr $C$DW$360, DW_AT_TI_symbol_name("_rsvd1")
    3312                      .dwattr $C$DW$360, DW_AT_bit_offset(0x00)
    3313                      .dwattr $C$DW$360, DW_AT_bit_size(0x08)
    3314                      .dwattr $C$DW$360, DW_AT_data_member_location[DW_OP_plus_uconst 0x0]
    3315                      .dwattr $C$DW$360, DW_AT_accessibility(DW_ACCESS_public)
    3316              
    3317                      .dwendtag $C$DW$T$120
    3318              
    3319              
    3320              $C$DW$T$121     .dwtag  DW_TAG_union_type
    3321                      .dwattr $C$DW$T$121, DW_AT_name("AQSFRC_REG")
    3322                      .dwattr $C$DW$T$121, DW_AT_byte_size(0x01)
    3323              $C$DW$361       .dwtag  DW_TAG_member
    3324                      .dwattr $C$DW$361, DW_AT_type(*$C$DW$T$38)
    3325                      .dwattr $C$DW$361, DW_AT_name("all")
    3326                      .dwattr $C$DW$361, DW_AT_TI_symbol_name("_all")
    3327                      .dwattr $C$DW$361, DW_AT_data_member_location[DW_OP_plus_uconst 0x0]
    3328                      .dwattr $C$DW$361, DW_AT_accessibility(DW_ACCESS_public)
TMS320C2000 Assembler PC v20.2.5 Fri Jan  6 17:23:30 2023

Copyright (c) 1996-2018 Texas Instruments Incorporated
drv8301.asm                                                          PAGE   62

    3329              
    3330              $C$DW$362       .dwtag  DW_TAG_member
    3331                      .dwattr $C$DW$362, DW_AT_type(*$C$DW$T$120)
    3332                      .dwattr $C$DW$362, DW_AT_name("bit")
    3333                      .dwattr $C$DW$362, DW_AT_TI_symbol_name("_bit")
    3334                      .dwattr $C$DW$362, DW_AT_data_member_location[DW_OP_plus_uconst 0x0]
    3335                      .dwattr $C$DW$362, DW_AT_accessibility(DW_ACCESS_public)
    3336              
    3337                      .dwendtag $C$DW$T$121
    3338              
    3339              
    3340              $C$DW$T$122     .dwtag  DW_TAG_structure_type
    3341                      .dwattr $C$DW$T$122, DW_AT_name("AQTSRCSEL_BITS")
    3342                      .dwattr $C$DW$T$122, DW_AT_byte_size(0x01)
    3343              $C$DW$363       .dwtag  DW_TAG_member
    3344                      .dwattr $C$DW$363, DW_AT_type(*$C$DW$T$38)
    3345                      .dwattr $C$DW$363, DW_AT_name("T1SEL")
    3346                      .dwattr $C$DW$363, DW_AT_TI_symbol_name("_T1SEL")
    3347                      .dwattr $C$DW$363, DW_AT_bit_offset(0x0c)
    3348                      .dwattr $C$DW$363, DW_AT_bit_size(0x04)
    3349                      .dwattr $C$DW$363, DW_AT_data_member_location[DW_OP_plus_uconst 0x0]
    3350                      .dwattr $C$DW$363, DW_AT_accessibility(DW_ACCESS_public)
    3351              
    3352              $C$DW$364       .dwtag  DW_TAG_member
    3353                      .dwattr $C$DW$364, DW_AT_type(*$C$DW$T$38)
    3354                      .dwattr $C$DW$364, DW_AT_name("T2SEL")
    3355                      .dwattr $C$DW$364, DW_AT_TI_symbol_name("_T2SEL")
    3356                      .dwattr $C$DW$364, DW_AT_bit_offset(0x08)
    3357                      .dwattr $C$DW$364, DW_AT_bit_size(0x04)
    3358                      .dwattr $C$DW$364, DW_AT_data_member_location[DW_OP_plus_uconst 0x0]
    3359                      .dwattr $C$DW$364, DW_AT_accessibility(DW_ACCESS_public)
    3360              
    3361              $C$DW$365       .dwtag  DW_TAG_member
    3362                      .dwattr $C$DW$365, DW_AT_type(*$C$DW$T$38)
    3363                      .dwattr $C$DW$365, DW_AT_name("rsvd1")
    3364                      .dwattr $C$DW$365, DW_AT_TI_symbol_name("_rsvd1")
    3365                      .dwattr $C$DW$365, DW_AT_bit_offset(0x00)
    3366                      .dwattr $C$DW$365, DW_AT_bit_size(0x08)
    3367                      .dwattr $C$DW$365, DW_AT_data_member_location[DW_OP_plus_uconst 0x0]
    3368                      .dwattr $C$DW$365, DW_AT_accessibility(DW_ACCESS_public)
    3369              
    3370                      .dwendtag $C$DW$T$122
    3371              
    3372              
    3373              $C$DW$T$123     .dwtag  DW_TAG_union_type
    3374                      .dwattr $C$DW$T$123, DW_AT_name("AQTSRCSEL_REG")
    3375                      .dwattr $C$DW$T$123, DW_AT_byte_size(0x01)
    3376              $C$DW$366       .dwtag  DW_TAG_member
    3377                      .dwattr $C$DW$366, DW_AT_type(*$C$DW$T$38)
    3378                      .dwattr $C$DW$366, DW_AT_name("all")
    3379                      .dwattr $C$DW$366, DW_AT_TI_symbol_name("_all")
    3380                      .dwattr $C$DW$366, DW_AT_data_member_location[DW_OP_plus_uconst 0x0]
    3381                      .dwattr $C$DW$366, DW_AT_accessibility(DW_ACCESS_public)
    3382              
    3383              $C$DW$367       .dwtag  DW_TAG_member
TMS320C2000 Assembler PC v20.2.5 Fri Jan  6 17:23:30 2023

Copyright (c) 1996-2018 Texas Instruments Incorporated
drv8301.asm                                                          PAGE   63

    3384                      .dwattr $C$DW$367, DW_AT_type(*$C$DW$T$122)
    3385                      .dwattr $C$DW$367, DW_AT_name("bit")
    3386                      .dwattr $C$DW$367, DW_AT_TI_symbol_name("_bit")
    3387                      .dwattr $C$DW$367, DW_AT_data_member_location[DW_OP_plus_uconst 0x0]
    3388                      .dwattr $C$DW$367, DW_AT_accessibility(DW_ACCESS_public)
    3389              
    3390                      .dwendtag $C$DW$T$123
    3391              
    3392              
    3393              $C$DW$T$124     .dwtag  DW_TAG_structure_type
    3394                      .dwattr $C$DW$T$124, DW_AT_name("CMPA_BITS")
    3395                      .dwattr $C$DW$T$124, DW_AT_byte_size(0x02)
    3396              $C$DW$368       .dwtag  DW_TAG_member
    3397                      .dwattr $C$DW$368, DW_AT_type(*$C$DW$T$38)
    3398                      .dwattr $C$DW$368, DW_AT_name("CMPAHR")
    3399                      .dwattr $C$DW$368, DW_AT_TI_symbol_name("_CMPAHR")
    3400                      .dwattr $C$DW$368, DW_AT_bit_offset(0x00)
    3401                      .dwattr $C$DW$368, DW_AT_bit_size(0x10)
    3402                      .dwattr $C$DW$368, DW_AT_data_member_location[DW_OP_plus_uconst 0x0]
    3403                      .dwattr $C$DW$368, DW_AT_accessibility(DW_ACCESS_public)
    3404              
    3405              $C$DW$369       .dwtag  DW_TAG_member
    3406                      .dwattr $C$DW$369, DW_AT_type(*$C$DW$T$38)
    3407                      .dwattr $C$DW$369, DW_AT_name("CMPA")
    3408                      .dwattr $C$DW$369, DW_AT_TI_symbol_name("_CMPA")
    3409                      .dwattr $C$DW$369, DW_AT_bit_offset(0x00)
    3410                      .dwattr $C$DW$369, DW_AT_bit_size(0x10)
    3411                      .dwattr $C$DW$369, DW_AT_data_member_location[DW_OP_plus_uconst 0x1]
    3412                      .dwattr $C$DW$369, DW_AT_accessibility(DW_ACCESS_public)
    3413              
    3414                      .dwendtag $C$DW$T$124
    3415              
    3416              
    3417              $C$DW$T$125     .dwtag  DW_TAG_union_type
    3418                      .dwattr $C$DW$T$125, DW_AT_name("CMPA_REG")
    3419                      .dwattr $C$DW$T$125, DW_AT_byte_size(0x02)
    3420              $C$DW$370       .dwtag  DW_TAG_member
    3421                      .dwattr $C$DW$370, DW_AT_type(*$C$DW$T$40)
    3422                      .dwattr $C$DW$370, DW_AT_name("all")
    3423                      .dwattr $C$DW$370, DW_AT_TI_symbol_name("_all")
    3424                      .dwattr $C$DW$370, DW_AT_data_member_location[DW_OP_plus_uconst 0x0]
    3425                      .dwattr $C$DW$370, DW_AT_accessibility(DW_ACCESS_public)
    3426              
    3427              $C$DW$371       .dwtag  DW_TAG_member
    3428                      .dwattr $C$DW$371, DW_AT_type(*$C$DW$T$124)
    3429                      .dwattr $C$DW$371, DW_AT_name("bit")
    3430                      .dwattr $C$DW$371, DW_AT_TI_symbol_name("_bit")
    3431                      .dwattr $C$DW$371, DW_AT_data_member_location[DW_OP_plus_uconst 0x0]
    3432                      .dwattr $C$DW$371, DW_AT_accessibility(DW_ACCESS_public)
    3433              
    3434                      .dwendtag $C$DW$T$125
    3435              
    3436              
    3437              $C$DW$T$126     .dwtag  DW_TAG_structure_type
    3438                      .dwattr $C$DW$T$126, DW_AT_name("CMPB_BITS")
TMS320C2000 Assembler PC v20.2.5 Fri Jan  6 17:23:30 2023

Copyright (c) 1996-2018 Texas Instruments Incorporated
drv8301.asm                                                          PAGE   64

    3439                      .dwattr $C$DW$T$126, DW_AT_byte_size(0x02)
    3440              $C$DW$372       .dwtag  DW_TAG_member
    3441                      .dwattr $C$DW$372, DW_AT_type(*$C$DW$T$38)
    3442                      .dwattr $C$DW$372, DW_AT_name("CMPBHR")
    3443                      .dwattr $C$DW$372, DW_AT_TI_symbol_name("_CMPBHR")
    3444                      .dwattr $C$DW$372, DW_AT_bit_offset(0x00)
    3445                      .dwattr $C$DW$372, DW_AT_bit_size(0x10)
    3446                      .dwattr $C$DW$372, DW_AT_data_member_location[DW_OP_plus_uconst 0x0]
    3447                      .dwattr $C$DW$372, DW_AT_accessibility(DW_ACCESS_public)
    3448              
    3449              $C$DW$373       .dwtag  DW_TAG_member
    3450                      .dwattr $C$DW$373, DW_AT_type(*$C$DW$T$38)
    3451                      .dwattr $C$DW$373, DW_AT_name("CMPB")
    3452                      .dwattr $C$DW$373, DW_AT_TI_symbol_name("_CMPB")
    3453                      .dwattr $C$DW$373, DW_AT_bit_offset(0x00)
    3454                      .dwattr $C$DW$373, DW_AT_bit_size(0x10)
    3455                      .dwattr $C$DW$373, DW_AT_data_member_location[DW_OP_plus_uconst 0x1]
    3456                      .dwattr $C$DW$373, DW_AT_accessibility(DW_ACCESS_public)
    3457              
    3458                      .dwendtag $C$DW$T$126
    3459              
    3460              
    3461              $C$DW$T$127     .dwtag  DW_TAG_union_type
    3462                      .dwattr $C$DW$T$127, DW_AT_name("CMPB_REG")
    3463                      .dwattr $C$DW$T$127, DW_AT_byte_size(0x02)
    3464              $C$DW$374       .dwtag  DW_TAG_member
    3465                      .dwattr $C$DW$374, DW_AT_type(*$C$DW$T$40)
    3466                      .dwattr $C$DW$374, DW_AT_name("all")
    3467                      .dwattr $C$DW$374, DW_AT_TI_symbol_name("_all")
    3468                      .dwattr $C$DW$374, DW_AT_data_member_location[DW_OP_plus_uconst 0x0]
    3469                      .dwattr $C$DW$374, DW_AT_accessibility(DW_ACCESS_public)
    3470              
    3471              $C$DW$375       .dwtag  DW_TAG_member
    3472                      .dwattr $C$DW$375, DW_AT_type(*$C$DW$T$126)
    3473                      .dwattr $C$DW$375, DW_AT_name("bit")
    3474                      .dwattr $C$DW$375, DW_AT_TI_symbol_name("_bit")
    3475                      .dwattr $C$DW$375, DW_AT_data_member_location[DW_OP_plus_uconst 0x0]
    3476                      .dwattr $C$DW$375, DW_AT_accessibility(DW_ACCESS_public)
    3477              
    3478                      .dwendtag $C$DW$T$127
    3479              
    3480              
    3481              $C$DW$T$128     .dwtag  DW_TAG_structure_type
    3482                      .dwattr $C$DW$T$128, DW_AT_name("CMPCTL2_BITS")
    3483                      .dwattr $C$DW$T$128, DW_AT_byte_size(0x01)
    3484              $C$DW$376       .dwtag  DW_TAG_member
    3485                      .dwattr $C$DW$376, DW_AT_type(*$C$DW$T$38)
    3486                      .dwattr $C$DW$376, DW_AT_name("LOADCMODE")
    3487                      .dwattr $C$DW$376, DW_AT_TI_symbol_name("_LOADCMODE")
    3488                      .dwattr $C$DW$376, DW_AT_bit_offset(0x0e)
    3489                      .dwattr $C$DW$376, DW_AT_bit_size(0x02)
    3490                      .dwattr $C$DW$376, DW_AT_data_member_location[DW_OP_plus_uconst 0x0]
    3491                      .dwattr $C$DW$376, DW_AT_accessibility(DW_ACCESS_public)
    3492              
    3493              $C$DW$377       .dwtag  DW_TAG_member
TMS320C2000 Assembler PC v20.2.5 Fri Jan  6 17:23:30 2023

Copyright (c) 1996-2018 Texas Instruments Incorporated
