TMS320C2000 Assembler PC v20.2.5 Fri Jan  6 17:23:28 2023

Copyright (c) 1996-2018 Texas Instruments Incorporated
DRV830x_SPI.asm                                                      PAGE    1

       1              ;***************************************************************
       2              ;* TMS320C2000 G3 C/C++ Codegen                               PC v20.2.5.LTS *
       3              ;* Date/Time created: Fri Jan  6 17:23:28 2023                 *
       4              ;***************************************************************
       5                      .compiler_opts --abi=coffabi --cla_support=cla0 --float_support=fpu32 --hll_source=on --mem_model:cod
       6                      .asg    XAR2, FP
       7              
       8              $C$DW$CU        .dwtag  DW_TAG_compile_unit
       9                      .dwattr $C$DW$CU, DW_AT_name("../DRV830x_SPI.c")
      10                      .dwattr $C$DW$CU, DW_AT_producer("TI TMS320C2000 G3 C/C++ Codegen PC v20.2.5.LTS Copyright (c) 1996-2
      11                      .dwattr $C$DW$CU, DW_AT_TI_version(0x01)
      12                      .dwattr $C$DW$CU, DW_AT_comp_dir("C:\Users\jason\workspace_v10_4\MonoMtrServo_379D\F2837x_RAM")
      13              
      14              $C$DW$1 .dwtag  DW_TAG_subprogram
      15                      .dwattr $C$DW$1, DW_AT_name("GPIO_WritePin")
      16                      .dwattr $C$DW$1, DW_AT_TI_symbol_name("_GPIO_WritePin")
      17                      .dwattr $C$DW$1, DW_AT_declaration
      18                      .dwattr $C$DW$1, DW_AT_external
      19              $C$DW$2 .dwtag  DW_TAG_formal_parameter
      20                      .dwattr $C$DW$2, DW_AT_type(*$C$DW$T$38)
      21              
      22              $C$DW$3 .dwtag  DW_TAG_formal_parameter
      23                      .dwattr $C$DW$3, DW_AT_type(*$C$DW$T$38)
      24              
      25                      .dwendtag $C$DW$1
      26              
      27              
      28              $C$DW$4 .dwtag  DW_TAG_subprogram
      29                      .dwattr $C$DW$4, DW_AT_name("F28x_usDelay")
      30                      .dwattr $C$DW$4, DW_AT_TI_symbol_name("_F28x_usDelay")
      31                      .dwattr $C$DW$4, DW_AT_declaration
      32                      .dwattr $C$DW$4, DW_AT_external
      33              $C$DW$5 .dwtag  DW_TAG_formal_parameter
      34                      .dwattr $C$DW$5, DW_AT_type(*$C$DW$T$12)
      35              
      36                      .dwendtag $C$DW$4
      37              
      38              ;       C:\ti\ccs1040\ccs\tools\compiler\ti-cgt-c2000_20.2.5.LTS\bin\opt2000.exe C:\\Users\\jason\\AppData\\L
      39              ;       C:\ti\ccs1040\ccs\tools\compiler\ti-cgt-c2000_20.2.5.LTS\bin\ac2000.exe -@C:\\Users\\jason\\AppData\\
      40 00000000               .sect   ".text"
      41                      .clink
      42                      .global _SPI_Driver
      43              
      44              $C$DW$6 .dwtag  DW_TAG_subprogram
      45                      .dwattr $C$DW$6, DW_AT_name("SPI_Driver")
      46                      .dwattr $C$DW$6, DW_AT_low_pc(_SPI_Driver)
      47                      .dwattr $C$DW$6, DW_AT_high_pc(0x00)
      48                      .dwattr $C$DW$6, DW_AT_TI_symbol_name("_SPI_Driver")
      49                      .dwattr $C$DW$6, DW_AT_external
      50                      .dwattr $C$DW$6, DW_AT_type(*$C$DW$T$38)
      51                      .dwattr $C$DW$6, DW_AT_TI_begin_file("../DRV830x_SPI.c")
      52                      .dwattr $C$DW$6, DW_AT_TI_begin_line(0x1b)
      53                      .dwattr $C$DW$6, DW_AT_TI_begin_column(0x08)
      54                      .dwattr $C$DW$6, DW_AT_TI_max_frame_size(-8)
      55                      .dwpsn  file "../DRV830x_SPI.c",line 28,column 1,is_stmt,address _SPI_Driver,isa 0
TMS320C2000 Assembler PC v20.2.5 Fri Jan  6 17:23:28 2023

Copyright (c) 1996-2018 Texas Instruments Incorporated
DRV830x_SPI.asm                                                      PAGE    2

      56              
      57                      .dwfde $C$DW$CIE, _SPI_Driver
      58              $C$DW$7 .dwtag  DW_TAG_formal_parameter
      59                      .dwattr $C$DW$7, DW_AT_name("s")
      60                      .dwattr $C$DW$7, DW_AT_TI_symbol_name("_s")
      61                      .dwattr $C$DW$7, DW_AT_type(*$C$DW$T$74)
      62                      .dwattr $C$DW$7, DW_AT_location[DW_OP_reg12]
      63              
      64              $C$DW$8 .dwtag  DW_TAG_formal_parameter
      65                      .dwattr $C$DW$8, DW_AT_name("data")
      66                      .dwattr $C$DW$8, DW_AT_TI_symbol_name("_data")
      67                      .dwattr $C$DW$8, DW_AT_type(*$C$DW$T$38)
      68                      .dwattr $C$DW$8, DW_AT_location[DW_OP_reg0]
      69              
      70              $C$DW$9 .dwtag  DW_TAG_formal_parameter
      71                      .dwattr $C$DW$9, DW_AT_name("scsPin")
      72                      .dwattr $C$DW$9, DW_AT_TI_symbol_name("_scsPin")
      73                      .dwattr $C$DW$9, DW_AT_type(*$C$DW$T$38)
      74                      .dwattr $C$DW$9, DW_AT_location[DW_OP_reg1]
      75              
      76              
      77              ;***************************************************************
      78              ;* FNAME: _SPI_Driver                   FR SIZE:   6           *
      79              ;*                                                             *
      80              ;* FUNCTION ENVIRONMENT                                        *
      81              ;*                                                             *
      82              ;* FUNCTION PROPERTIES                                         *
      83              ;*                            0 Parameter,  0 Auto,  6 SOE     *
      84              ;***************************************************************
      85              
      86              _SPI_Driver:
      87              ;* AR2   assigned to _s
      88              $C$DW$10        .dwtag  DW_TAG_variable
      89                      .dwattr $C$DW$10, DW_AT_name("s")
      90                      .dwattr $C$DW$10, DW_AT_TI_symbol_name("_s")
      91                      .dwattr $C$DW$10, DW_AT_type(*$C$DW$T$306)
      92                      .dwattr $C$DW$10, DW_AT_location[DW_OP_reg8]
      93              
      94              ;* AR1   assigned to _data
      95              $C$DW$11        .dwtag  DW_TAG_variable
      96                      .dwattr $C$DW$11, DW_AT_name("data")
      97                      .dwattr $C$DW$11, DW_AT_TI_symbol_name("_data")
      98                      .dwattr $C$DW$11, DW_AT_type(*$C$DW$T$38)
      99                      .dwattr $C$DW$11, DW_AT_location[DW_OP_reg6]
     100              
     101              ;* AR3   assigned to _scsPin
     102              $C$DW$12        .dwtag  DW_TAG_variable
     103                      .dwattr $C$DW$12, DW_AT_name("scsPin")
     104                      .dwattr $C$DW$12, DW_AT_TI_symbol_name("_scsPin")
     105                      .dwattr $C$DW$12, DW_AT_type(*$C$DW$T$312)
     106                      .dwattr $C$DW$12, DW_AT_location[DW_OP_reg10]
     107              
     108                      .dwcfi  cfa_offset, -2
     109                      .dwcfi  save_reg_to_mem, 26, 0
     110 00000000 B2BD          MOVL      *SP++,XAR1            ; [CPU_ALU] 
TMS320C2000 Assembler PC v20.2.5 Fri Jan  6 17:23:28 2023

Copyright (c) 1996-2018 Texas Instruments Incorporated
DRV830x_SPI.asm                                                      PAGE    3

     111                      .dwcfi  save_reg_to_mem, 7, 2
     112                      .dwcfi  cfa_offset, -4
     113 00000001 AABD          MOVL      *SP++,XAR2            ; [CPU_ALU] 
     114                      .dwcfi  save_reg_to_mem, 9, 4
     115                      .dwcfi  cfa_offset, -6
     116 00000002 A2BD          MOVL      *SP++,XAR3            ; [CPU_ALU] 
     117                      .dwcfi  save_reg_to_mem, 11, 6
     118                      .dwcfi  cfa_offset, -8
     119 00000003 5BA8          MOVZ      AR3,AH                ; [CPU_ALU] |28| 
     120 00000004 59A9          MOVZ      AR1,AL                ; [CPU_ALU] |28| 
     121 00000005 86A4          MOVL      XAR2,XAR4             ; [CPU_ALU] |28| 
     122                      .dwpsn  file "../DRV830x_SPI.c",line 29,column 2,is_stmt,isa 0
     123 00000006 9B00          MOVB      AH,#0                 ; [CPU_ALU] |29| 
     124 00000007 92A3          MOV       AL,AR3                ; [CPU_ALU] |29| 
     125              $C$DW$13        .dwtag  DW_TAG_TI_branch
     126                      .dwattr $C$DW$13, DW_AT_low_pc(0x00)
     127                      .dwattr $C$DW$13, DW_AT_name("_GPIO_WritePin")
     128                      .dwattr $C$DW$13, DW_AT_TI_call
     129              
     130 00000008 7640!         LCR       #_GPIO_WritePin       ; [CPU_ALU] |29| 
         00000009 0000 
     131                      ; call occurs [#_GPIO_WritePin] ; [] |29| 
     132                      .dwpsn  file "../DRV830x_SPI.c",line 30,column 2,is_stmt,isa 0
     133 0000000a D008          MOVB      XAR0,#8               ; [CPU_ALU] |30| 
     134 0000000b 7992          MOV       *+XAR2[AR0],AR1       ; [CPU_ALU] |30| 
     135 0000000c       $C$L1:    
     136                      .dwpsn  file "../DRV830x_SPI.c",line 31,column 8,is_stmt,isa 0
     137 0000000c 46D2          TBIT      *+XAR2[2],#6          ; [CPU_ALU] |31| 
     138 0000000d 6CFF          B         $C$L1,NTC             ; [CPU_ALU] |31| 
     139                      ; branchcc occurs ; [] |31| 
     140                      .dwpsn  file "../DRV830x_SPI.c",line 32,column 2,is_stmt,isa 0
     141 0000000e 59FA          MOVZ      AR1,*+XAR2[7]         ; [CPU_ALU] |32| 
     142                      .dwpsn  file "../DRV830x_SPI.c",line 33,column 2,is_stmt,isa 0
     143 0000000f 92A3          MOV       AL,AR3                ; [CPU_ALU] |33| 
     144 00000010 9B01          MOVB      AH,#1                 ; [CPU_ALU] |33| 
     145              $C$DW$14        .dwtag  DW_TAG_TI_branch
     146                      .dwattr $C$DW$14, DW_AT_low_pc(0x00)
     147                      .dwattr $C$DW$14, DW_AT_name("_GPIO_WritePin")
     148                      .dwattr $C$DW$14, DW_AT_TI_call
     149              
     150 00000011 7640!         LCR       #_GPIO_WritePin       ; [CPU_ALU] |33| 
         00000012 0000 
     151                      ; call occurs [#_GPIO_WritePin] ; [] |33| 
     152 00000013 82BE          MOVL      XAR3,*--SP            ; [CPU_ALU] 
     153                      .dwcfi  cfa_offset, -6
     154                      .dwcfi  restore_reg, 11
     155                      .dwpsn  file "../DRV830x_SPI.c",line 35,column 2,is_stmt,isa 0
     156 00000014 92A1          MOV       AL,AR1                ; [CPU_ALU] |35| 
     157 00000015 86BE          MOVL      XAR2,*--SP            ; [CPU_ALU] 
     158                      .dwcfi  cfa_offset, -4
     159                      .dwcfi  restore_reg, 9
     160 00000016 8BBE          MOVL      XAR1,*--SP            ; [CPU_ALU] 
     161                      .dwcfi  cfa_offset, -2
     162                      .dwcfi  restore_reg, 7
     163              $C$DW$15        .dwtag  DW_TAG_TI_branch
TMS320C2000 Assembler PC v20.2.5 Fri Jan  6 17:23:28 2023

Copyright (c) 1996-2018 Texas Instruments Incorporated
DRV830x_SPI.asm                                                      PAGE    4

     164                      .dwattr $C$DW$15, DW_AT_low_pc(0x00)
     165                      .dwattr $C$DW$15, DW_AT_TI_return
     166              
     167 00000017 0006          LRETR     ; [CPU_ALU] 
     168                      ; return occurs ; [] 
     169                      .dwattr $C$DW$6, DW_AT_TI_end_file("../DRV830x_SPI.c")
     170                      .dwattr $C$DW$6, DW_AT_TI_end_line(0x24)
     171                      .dwattr $C$DW$6, DW_AT_TI_end_column(0x01)
     172                      .dwendentry
     173                      .dwendtag $C$DW$6
     174              
     175 00000018               .sect   ".text"
     176                      .clink
     177                      .global _DRV8305_SPI_Write
     178              
     179              $C$DW$16        .dwtag  DW_TAG_subprogram
     180                      .dwattr $C$DW$16, DW_AT_name("DRV8305_SPI_Write")
     181                      .dwattr $C$DW$16, DW_AT_low_pc(_DRV8305_SPI_Write)
     182                      .dwattr $C$DW$16, DW_AT_high_pc(0x00)
     183                      .dwattr $C$DW$16, DW_AT_TI_symbol_name("_DRV8305_SPI_Write")
     184                      .dwattr $C$DW$16, DW_AT_external
     185                      .dwattr $C$DW$16, DW_AT_type(*$C$DW$T$38)
     186                      .dwattr $C$DW$16, DW_AT_TI_begin_file("../DRV830x_SPI.c")
     187                      .dwattr $C$DW$16, DW_AT_TI_begin_line(0x59)
     188                      .dwattr $C$DW$16, DW_AT_TI_begin_column(0x08)
     189                      .dwattr $C$DW$16, DW_AT_TI_max_frame_size(-6)
     190                      .dwpsn  file "../DRV830x_SPI.c",line 90,column 1,is_stmt,address _DRV8305_SPI_Write,isa 0
     191              
     192                      .dwfde $C$DW$CIE, _DRV8305_SPI_Write
     193              $C$DW$17        .dwtag  DW_TAG_formal_parameter
     194                      .dwattr $C$DW$17, DW_AT_name("motor")
     195                      .dwattr $C$DW$17, DW_AT_TI_symbol_name("_motor")
     196                      .dwattr $C$DW$17, DW_AT_type(*$C$DW$T$302)
     197                      .dwattr $C$DW$17, DW_AT_location[DW_OP_reg12]
     198              
     199              $C$DW$18        .dwtag  DW_TAG_formal_parameter
     200                      .dwattr $C$DW$18, DW_AT_name("address")
     201                      .dwattr $C$DW$18, DW_AT_TI_symbol_name("_address")
     202                      .dwattr $C$DW$18, DW_AT_type(*$C$DW$T$38)
     203                      .dwattr $C$DW$18, DW_AT_location[DW_OP_reg0]
     204              
     205              
     206              ;***************************************************************
     207              ;* FNAME: _DRV8305_SPI_Write            FR SIZE:   4           *
     208              ;*                                                             *
     209              ;* FUNCTION ENVIRONMENT                                        *
     210              ;*                                                             *
     211              ;* FUNCTION PROPERTIES                                         *
     212              ;*                            0 Parameter,  1 Auto,  2 SOE     *
     213              ;***************************************************************
     214              
     215              _DRV8305_SPI_Write:
     216              $C$DW$19        .dwtag  DW_TAG_variable
     217                      .dwattr $C$DW$19, DW_AT_name("w")
     218                      .dwattr $C$DW$19, DW_AT_TI_symbol_name("_w")
TMS320C2000 Assembler PC v20.2.5 Fri Jan  6 17:23:28 2023

Copyright (c) 1996-2018 Texas Instruments Incorporated
DRV830x_SPI.asm                                                      PAGE    5

     219                      .dwattr $C$DW$19, DW_AT_type(*$C$DW$T$178)
     220                      .dwattr $C$DW$19, DW_AT_location[DW_OP_breg20 -1]
     221              
     222              ;* AR4   assigned to _motor
     223              $C$DW$20        .dwtag  DW_TAG_variable
     224                      .dwattr $C$DW$20, DW_AT_name("motor")
     225                      .dwattr $C$DW$20, DW_AT_TI_symbol_name("_motor")
     226                      .dwattr $C$DW$20, DW_AT_type(*$C$DW$T$303)
     227                      .dwattr $C$DW$20, DW_AT_location[DW_OP_reg12]
     228              
     229              ;* AR0   assigned to _address
     230              $C$DW$21        .dwtag  DW_TAG_variable
     231                      .dwattr $C$DW$21, DW_AT_name("address")
     232                      .dwattr $C$DW$21, DW_AT_TI_symbol_name("_address")
     233                      .dwattr $C$DW$21, DW_AT_type(*$C$DW$T$312)
     234                      .dwattr $C$DW$21, DW_AT_location[DW_OP_reg4]
     235              
     236              ;* AR5   assigned to _cntrlReg
     237              $C$DW$22        .dwtag  DW_TAG_variable
     238                      .dwattr $C$DW$22, DW_AT_name("cntrlReg")
     239                      .dwattr $C$DW$22, DW_AT_TI_symbol_name("_cntrlReg")
     240                      .dwattr $C$DW$22, DW_AT_type(*$C$DW$T$315)
     241                      .dwattr $C$DW$22, DW_AT_location[DW_OP_reg14]
     242              
     243                      .dwcfi  cfa_offset, -2
     244                      .dwcfi  save_reg_to_mem, 26, 0
     245 00000018 B2BD          MOVL      *SP++,XAR1            ; [CPU_ALU] 
     246                      .dwcfi  save_reg_to_mem, 7, 2
     247                      .dwcfi  cfa_offset, -4
     248 00000019 FE02          ADDB      SP,#2                 ; [CPU_ARAU] 
     249                      .dwcfi  cfa_offset, -6
     250 0000001a 58A9          MOVZ      AR0,AL                ; [CPU_ALU] |90| 
     251                      .dwpsn  file "../DRV830x_SPI.c",line 94,column 5,is_stmt,isa 0
     252 0000001b A8A9          MOVL      ACC,XAR4              ; [CPU_ALU] |94| 
     253                      .dwpsn  file "../DRV830x_SPI.c",line 96,column 2,is_stmt,isa 0
     254 0000001c 1841          AND       *-SP[1],#0x07ff       ; [CPU_ALU] |96| 
         0000001d 07FF 
     255                      .dwpsn  file "../DRV830x_SPI.c",line 100,column 2,is_stmt,isa 0
     256 0000001e D108          MOVB      XAR1,#8               ; [CPU_ALU] |100| 
     257                      .dwpsn  file "../DRV830x_SPI.c",line 94,column 5,is_stmt,isa 0
     258 0000001f FF10          ADD       ACC,#431 << 0         ; [CPU_ALU] |94| 
         00000020 01AF 
     259 00000021 83A9          MOVL      XAR5,ACC              ; [CPU_ALU] |94| 
     260                      .dwpsn  file "../DRV830x_SPI.c",line 96,column 2,is_stmt,isa 0
     261 00000022 CCA0          AND       AL,AR0,#0x000f        ; [CPU_ALU] |96| 
         00000023 000F 
     262 00000024 FF8A          LSL       AL,11                 ; [CPU_ALU] |96| 
     263 00000025 9841          OR        *-SP[1],AL            ; [CPU_ALU] |96| 
     264                      .dwpsn  file "../DRV830x_SPI.c",line 98,column 2,is_stmt,isa 0
     265 00000026 CD41          AND       AH,*-SP[1],#0xf800    ; [CPU_ALU] |98| 
         00000027 F800 
     266 00000028 CC95          AND       AL,*+XAR5[AR0],#0x07ff ; [CPU_ALU] |98| 
         00000029 07FF 
     267 0000002a CAA8          OR        AL,AH                 ; [CPU_ALU] |98| 
     268                      .dwpsn  file "../DRV830x_SPI.c",line 100,column 2,is_stmt,isa 0
TMS320C2000 Assembler PC v20.2.5 Fri Jan  6 17:23:28 2023

Copyright (c) 1996-2018 Texas Instruments Incorporated
DRV830x_SPI.asm                                                      PAGE    6

     269 0000002b D00A          MOVB      XAR0,#10              ; [CPU_ALU] |100| 
     270                      .dwpsn  file "../DRV830x_SPI.c",line 98,column 2,is_stmt,isa 0
     271 0000002c 9641          MOV       *-SP[1],AL            ; [CPU_ALU] |98| 
     272                      .dwpsn  file "../DRV830x_SPI.c",line 100,column 2,is_stmt,isa 0
     273 0000002d 9394          MOV       AH,*+XAR4[AR0]        ; [CPU_ALU] |100| 
     274 0000002e 8A9C          MOVL      XAR4,*+XAR4[AR1]      ; [CPU_ALU] |100| 
     275              $C$DW$23        .dwtag  DW_TAG_TI_branch
     276                      .dwattr $C$DW$23, DW_AT_low_pc(0x00)
     277                      .dwattr $C$DW$23, DW_AT_name("_SPI_Driver")
     278                      .dwattr $C$DW$23, DW_AT_TI_call
     279              
     280 0000002f 7640'         LCR       #_SPI_Driver          ; [CPU_ALU] |100| 
         00000030 0000 
     281                      ; call occurs [#_SPI_Driver] ; [] |100| 
     282 00000031 FE82          SUBB      SP,#2                 ; [CPU_ARAU] 
     283                      .dwcfi  cfa_offset, -4
     284 00000032 8BBE          MOVL      XAR1,*--SP            ; [CPU_ALU] 
     285                      .dwcfi  cfa_offset, -2
     286                      .dwcfi  restore_reg, 7
     287              $C$DW$24        .dwtag  DW_TAG_TI_branch
     288                      .dwattr $C$DW$24, DW_AT_low_pc(0x00)
     289                      .dwattr $C$DW$24, DW_AT_TI_return
     290              
     291 00000033 0006          LRETR     ; [CPU_ALU] 
     292                      ; return occurs ; [] 
     293                      .dwattr $C$DW$16, DW_AT_TI_end_file("../DRV830x_SPI.c")
     294                      .dwattr $C$DW$16, DW_AT_TI_end_line(0x65)
     295                      .dwattr $C$DW$16, DW_AT_TI_end_column(0x01)
     296                      .dwendentry
     297                      .dwendtag $C$DW$16
     298              
     299 00000034               .sect   ".text"
     300                      .clink
     301                      .global _DRV8305_SPI_Read
     302              
     303              $C$DW$25        .dwtag  DW_TAG_subprogram
     304                      .dwattr $C$DW$25, DW_AT_name("DRV8305_SPI_Read")
     305                      .dwattr $C$DW$25, DW_AT_low_pc(_DRV8305_SPI_Read)
     306                      .dwattr $C$DW$25, DW_AT_high_pc(0x00)
     307                      .dwattr $C$DW$25, DW_AT_TI_symbol_name("_DRV8305_SPI_Read")
     308                      .dwattr $C$DW$25, DW_AT_external
     309                      .dwattr $C$DW$25, DW_AT_type(*$C$DW$T$38)
     310                      .dwattr $C$DW$25, DW_AT_TI_begin_file("../DRV830x_SPI.c")
     311                      .dwattr $C$DW$25, DW_AT_TI_begin_line(0x4b)
     312                      .dwattr $C$DW$25, DW_AT_TI_begin_column(0x08)
     313                      .dwattr $C$DW$25, DW_AT_TI_max_frame_size(-6)
     314                      .dwpsn  file "../DRV830x_SPI.c",line 76,column 1,is_stmt,address _DRV8305_SPI_Read,isa 0
     315              
     316                      .dwfde $C$DW$CIE, _DRV8305_SPI_Read
     317              $C$DW$26        .dwtag  DW_TAG_formal_parameter
     318                      .dwattr $C$DW$26, DW_AT_name("motor")
     319                      .dwattr $C$DW$26, DW_AT_TI_symbol_name("_motor")
     320                      .dwattr $C$DW$26, DW_AT_type(*$C$DW$T$302)
     321                      .dwattr $C$DW$26, DW_AT_location[DW_OP_reg12]
     322              
TMS320C2000 Assembler PC v20.2.5 Fri Jan  6 17:23:28 2023

Copyright (c) 1996-2018 Texas Instruments Incorporated
DRV830x_SPI.asm                                                      PAGE    7

     323              $C$DW$27        .dwtag  DW_TAG_formal_parameter
     324                      .dwattr $C$DW$27, DW_AT_name("address")
     325                      .dwattr $C$DW$27, DW_AT_TI_symbol_name("_address")
     326                      .dwattr $C$DW$27, DW_AT_type(*$C$DW$T$38)
     327                      .dwattr $C$DW$27, DW_AT_location[DW_OP_reg0]
     328              
     329              
     330              ;***************************************************************
     331              ;* FNAME: _DRV8305_SPI_Read             FR SIZE:   4           *
     332              ;*                                                             *
     333              ;* FUNCTION ENVIRONMENT                                        *
     334              ;*                                                             *
     335              ;* FUNCTION PROPERTIES                                         *
     336              ;*                            0 Parameter,  1 Auto,  2 SOE     *
     337              ;***************************************************************
     338              
     339              _DRV8305_SPI_Read:
     340              $C$DW$28        .dwtag  DW_TAG_variable
     341                      .dwattr $C$DW$28, DW_AT_name("w")
     342                      .dwattr $C$DW$28, DW_AT_TI_symbol_name("_w")
     343                      .dwattr $C$DW$28, DW_AT_type(*$C$DW$T$178)
     344                      .dwattr $C$DW$28, DW_AT_location[DW_OP_breg20 -1]
     345              
     346              ;* AR4   assigned to _motor
     347              $C$DW$29        .dwtag  DW_TAG_variable
     348                      .dwattr $C$DW$29, DW_AT_name("motor")
     349                      .dwattr $C$DW$29, DW_AT_TI_symbol_name("_motor")
     350                      .dwattr $C$DW$29, DW_AT_type(*$C$DW$T$303)
     351                      .dwattr $C$DW$29, DW_AT_location[DW_OP_reg12]
     352              
     353              ;* AL    assigned to _address
     354              $C$DW$30        .dwtag  DW_TAG_variable
     355                      .dwattr $C$DW$30, DW_AT_name("address")
     356                      .dwattr $C$DW$30, DW_AT_TI_symbol_name("_address")
     357                      .dwattr $C$DW$30, DW_AT_type(*$C$DW$T$312)
     358                      .dwattr $C$DW$30, DW_AT_location[DW_OP_reg0]
     359              
     360                      .dwcfi  cfa_offset, -2
     361                      .dwcfi  save_reg_to_mem, 26, 0
     362 00000034 B2BD          MOVL      *SP++,XAR1            ; [CPU_ALU] 
     363                      .dwcfi  save_reg_to_mem, 7, 2
     364                      .dwcfi  cfa_offset, -4
     365 00000035 FE02          ADDB      SP,#2                 ; [CPU_ARAU] 
     366                      .dwcfi  cfa_offset, -6
     367                      .dwpsn  file "../DRV830x_SPI.c",line 79,column 2,is_stmt,isa 0
     368 00000036 5603          MOV       ACC,AL << #11         ; [CPU_ALU] |79| 
         00000037 0BA9 
     369                      .dwpsn  file "../DRV830x_SPI.c",line 83,column 2,is_stmt,isa 0
     370 00000038 D00A          MOVB      XAR0,#10              ; [CPU_ALU] |83| 
     371 00000039 D108          MOVB      XAR1,#8               ; [CPU_ALU] |83| 
     372                      .dwpsn  file "../DRV830x_SPI.c",line 79,column 2,is_stmt,isa 0
     373 0000003a 1AA9          OR        AL,#0x8000            ; [CPU_ALU] |79| 
         0000003b 8000 
     374 0000003c 9641          MOV       *-SP[1],AL            ; [CPU_ALU] |79| 
     375                      .dwpsn  file "../DRV830x_SPI.c",line 83,column 2,is_stmt,isa 0
TMS320C2000 Assembler PC v20.2.5 Fri Jan  6 17:23:28 2023

Copyright (c) 1996-2018 Texas Instruments Incorporated
DRV830x_SPI.asm                                                      PAGE    8

     376 0000003d 9394          MOV       AH,*+XAR4[AR0]        ; [CPU_ALU] |83| 
     377 0000003e 8A9C          MOVL      XAR4,*+XAR4[AR1]      ; [CPU_ALU] |83| 
     378              $C$DW$31        .dwtag  DW_TAG_TI_branch
     379                      .dwattr $C$DW$31, DW_AT_low_pc(0x00)
     380                      .dwattr $C$DW$31, DW_AT_name("_SPI_Driver")
     381                      .dwattr $C$DW$31, DW_AT_TI_call
     382              
     383 0000003f 7640'         LCR       #_SPI_Driver          ; [CPU_ALU] |83| 
         00000040 0000 
     384                      ; call occurs [#_SPI_Driver] ; [] |83| 
     385 00000041 FE82          SUBB      SP,#2                 ; [CPU_ARAU] 
     386                      .dwcfi  cfa_offset, -4
     387 00000042 8BBE          MOVL      XAR1,*--SP            ; [CPU_ALU] 
     388                      .dwcfi  cfa_offset, -2
     389                      .dwcfi  restore_reg, 7
     390              $C$DW$32        .dwtag  DW_TAG_TI_branch
     391                      .dwattr $C$DW$32, DW_AT_low_pc(0x00)
     392                      .dwattr $C$DW$32, DW_AT_TI_return
     393              
     394 00000043 0006          LRETR     ; [CPU_ALU] 
     395                      ; return occurs ; [] 
     396                      .dwattr $C$DW$25, DW_AT_TI_end_file("../DRV830x_SPI.c")
     397                      .dwattr $C$DW$25, DW_AT_TI_end_line(0x54)
     398                      .dwattr $C$DW$25, DW_AT_TI_end_column(0x01)
     399                      .dwendentry
     400                      .dwendtag $C$DW$25
     401              
     402 00000044               .sect   ".text"
     403                      .clink
     404                      .global _DRV8301_SPI_Write
     405              
     406              $C$DW$33        .dwtag  DW_TAG_subprogram
     407                      .dwattr $C$DW$33, DW_AT_name("DRV8301_SPI_Write")
     408                      .dwattr $C$DW$33, DW_AT_low_pc(_DRV8301_SPI_Write)
     409                      .dwattr $C$DW$33, DW_AT_high_pc(0x00)
     410                      .dwattr $C$DW$33, DW_AT_TI_symbol_name("_DRV8301_SPI_Write")
     411                      .dwattr $C$DW$33, DW_AT_external
     412                      .dwattr $C$DW$33, DW_AT_type(*$C$DW$T$38)
     413                      .dwattr $C$DW$33, DW_AT_TI_begin_file("../DRV830x_SPI.c")
     414                      .dwattr $C$DW$33, DW_AT_TI_begin_line(0x7b)
     415                      .dwattr $C$DW$33, DW_AT_TI_begin_column(0x08)
     416                      .dwattr $C$DW$33, DW_AT_TI_max_frame_size(-6)
     417                      .dwpsn  file "../DRV830x_SPI.c",line 124,column 1,is_stmt,address _DRV8301_SPI_Write,isa 0
     418              
     419                      .dwfde $C$DW$CIE, _DRV8301_SPI_Write
     420              $C$DW$34        .dwtag  DW_TAG_formal_parameter
     421                      .dwattr $C$DW$34, DW_AT_name("motor")
     422                      .dwattr $C$DW$34, DW_AT_TI_symbol_name("_motor")
     423                      .dwattr $C$DW$34, DW_AT_type(*$C$DW$T$302)
     424                      .dwattr $C$DW$34, DW_AT_location[DW_OP_reg12]
     425              
     426              $C$DW$35        .dwtag  DW_TAG_formal_parameter
     427                      .dwattr $C$DW$35, DW_AT_name("address")
     428                      .dwattr $C$DW$35, DW_AT_TI_symbol_name("_address")
     429                      .dwattr $C$DW$35, DW_AT_type(*$C$DW$T$38)
TMS320C2000 Assembler PC v20.2.5 Fri Jan  6 17:23:28 2023

Copyright (c) 1996-2018 Texas Instruments Incorporated
DRV830x_SPI.asm                                                      PAGE    9

     430                      .dwattr $C$DW$35, DW_AT_location[DW_OP_reg0]
     431              
     432              
     433              ;***************************************************************
     434              ;* FNAME: _DRV8301_SPI_Write            FR SIZE:   4           *
     435              ;*                                                             *
     436              ;* FUNCTION ENVIRONMENT                                        *
     437              ;*                                                             *
     438              ;* FUNCTION PROPERTIES                                         *
     439              ;*                            0 Parameter,  1 Auto,  2 SOE     *
     440              ;***************************************************************
     441              
     442              _DRV8301_SPI_Write:
     443              $C$DW$36        .dwtag  DW_TAG_variable
     444                      .dwattr $C$DW$36, DW_AT_name("w")
     445                      .dwattr $C$DW$36, DW_AT_TI_symbol_name("_w")
     446                      .dwattr $C$DW$36, DW_AT_type(*$C$DW$T$178)
     447                      .dwattr $C$DW$36, DW_AT_location[DW_OP_breg20 -1]
     448              
     449              ;* AR4   assigned to _motor
     450              $C$DW$37        .dwtag  DW_TAG_variable
     451                      .dwattr $C$DW$37, DW_AT_name("motor")
     452                      .dwattr $C$DW$37, DW_AT_TI_symbol_name("_motor")
     453                      .dwattr $C$DW$37, DW_AT_type(*$C$DW$T$303)
     454                      .dwattr $C$DW$37, DW_AT_location[DW_OP_reg12]
     455              
     456              ;* AR0   assigned to _address
     457              $C$DW$38        .dwtag  DW_TAG_variable
     458                      .dwattr $C$DW$38, DW_AT_name("address")
     459                      .dwattr $C$DW$38, DW_AT_TI_symbol_name("_address")
     460                      .dwattr $C$DW$38, DW_AT_type(*$C$DW$T$312)
     461                      .dwattr $C$DW$38, DW_AT_location[DW_OP_reg4]
     462              
     463              ;* AR5   assigned to _cntrlReg
     464              $C$DW$39        .dwtag  DW_TAG_variable
     465                      .dwattr $C$DW$39, DW_AT_name("cntrlReg")
     466                      .dwattr $C$DW$39, DW_AT_TI_symbol_name("_cntrlReg")
     467                      .dwattr $C$DW$39, DW_AT_type(*$C$DW$T$315)
     468                      .dwattr $C$DW$39, DW_AT_location[DW_OP_reg14]
     469              
     470                      .dwcfi  cfa_offset, -2
     471                      .dwcfi  save_reg_to_mem, 26, 0
     472 00000044 B2BD          MOVL      *SP++,XAR1            ; [CPU_ALU] 
     473                      .dwcfi  save_reg_to_mem, 7, 2
     474                      .dwcfi  cfa_offset, -4
     475 00000045 FE02          ADDB      SP,#2                 ; [CPU_ARAU] 
     476                      .dwcfi  cfa_offset, -6
     477 00000046 58A9          MOVZ      AR0,AL                ; [CPU_ALU] |124| 
     478                      .dwpsn  file "../DRV830x_SPI.c",line 128,column 5,is_stmt,isa 0
     479 00000047 A8A9          MOVL      ACC,XAR4              ; [CPU_ALU] |128| 
     480                      .dwpsn  file "../DRV830x_SPI.c",line 130,column 2,is_stmt,isa 0
     481 00000048 1841          AND       *-SP[1],#0x07ff       ; [CPU_ALU] |130| 
         00000049 07FF 
     482                      .dwpsn  file "../DRV830x_SPI.c",line 134,column 2,is_stmt,isa 0
     483 0000004a D108          MOVB      XAR1,#8               ; [CPU_ALU] |134| 
TMS320C2000 Assembler PC v20.2.5 Fri Jan  6 17:23:28 2023

Copyright (c) 1996-2018 Texas Instruments Incorporated
DRV830x_SPI.asm                                                      PAGE   10

     484                      .dwpsn  file "../DRV830x_SPI.c",line 128,column 5,is_stmt,isa 0
     485 0000004b FF13          ADD       ACC,#53 << 3          ; [CPU_ALU] |128| 
         0000004c 0035 
     486 0000004d 83A9          MOVL      XAR5,ACC              ; [CPU_ALU] |128| 
     487                      .dwpsn  file "../DRV830x_SPI.c",line 130,column 2,is_stmt,isa 0
     488 0000004e CCA0          AND       AL,AR0,#0x000f        ; [CPU_ALU] |130| 
         0000004f 000F 
     489 00000050 FF8A          LSL       AL,11                 ; [CPU_ALU] |130| 
     490 00000051 9841          OR        *-SP[1],AL            ; [CPU_ALU] |130| 
     491                      .dwpsn  file "../DRV830x_SPI.c",line 132,column 2,is_stmt,isa 0
     492 00000052 CD41          AND       AH,*-SP[1],#0xf800    ; [CPU_ALU] |132| 
         00000053 F800 
     493 00000054 CC95          AND       AL,*+XAR5[AR0],#0x07ff ; [CPU_ALU] |132| 
         00000055 07FF 
     494 00000056 CAA8          OR        AL,AH                 ; [CPU_ALU] |132| 
     495                      .dwpsn  file "../DRV830x_SPI.c",line 134,column 2,is_stmt,isa 0
     496 00000057 D00A          MOVB      XAR0,#10              ; [CPU_ALU] |134| 
     497                      .dwpsn  file "../DRV830x_SPI.c",line 132,column 2,is_stmt,isa 0
     498 00000058 9641          MOV       *-SP[1],AL            ; [CPU_ALU] |132| 
     499                      .dwpsn  file "../DRV830x_SPI.c",line 134,column 2,is_stmt,isa 0
     500 00000059 9394          MOV       AH,*+XAR4[AR0]        ; [CPU_ALU] |134| 
     501 0000005a 8A9C          MOVL      XAR4,*+XAR4[AR1]      ; [CPU_ALU] |134| 
     502              $C$DW$40        .dwtag  DW_TAG_TI_branch
     503                      .dwattr $C$DW$40, DW_AT_low_pc(0x00)
     504                      .dwattr $C$DW$40, DW_AT_name("_SPI_Driver")
     505                      .dwattr $C$DW$40, DW_AT_TI_call
     506              
     507 0000005b 7640'         LCR       #_SPI_Driver          ; [CPU_ALU] |134| 
         0000005c 0000 
     508                      ; call occurs [#_SPI_Driver] ; [] |134| 
     509 0000005d FE82          SUBB      SP,#2                 ; [CPU_ARAU] 
     510                      .dwcfi  cfa_offset, -4
     511 0000005e 8BBE          MOVL      XAR1,*--SP            ; [CPU_ALU] 
     512                      .dwcfi  cfa_offset, -2
     513                      .dwcfi  restore_reg, 7
     514              $C$DW$41        .dwtag  DW_TAG_TI_branch
     515                      .dwattr $C$DW$41, DW_AT_low_pc(0x00)
     516                      .dwattr $C$DW$41, DW_AT_TI_return
     517              
     518 0000005f 0006          LRETR     ; [CPU_ALU] 
     519                      ; return occurs ; [] 
     520                      .dwattr $C$DW$33, DW_AT_TI_end_file("../DRV830x_SPI.c")
     521                      .dwattr $C$DW$33, DW_AT_TI_end_line(0x87)
     522                      .dwattr $C$DW$33, DW_AT_TI_end_column(0x01)
     523                      .dwendentry
     524                      .dwendtag $C$DW$33
     525              
     526 00000060               .sect   ".text"
     527                      .clink
     528                      .global _DRV8301_SPI_Read
     529              
     530              $C$DW$42        .dwtag  DW_TAG_subprogram
     531                      .dwattr $C$DW$42, DW_AT_name("DRV8301_SPI_Read")
     532                      .dwattr $C$DW$42, DW_AT_low_pc(_DRV8301_SPI_Read)
     533                      .dwattr $C$DW$42, DW_AT_high_pc(0x00)
TMS320C2000 Assembler PC v20.2.5 Fri Jan  6 17:23:28 2023

Copyright (c) 1996-2018 Texas Instruments Incorporated
DRV830x_SPI.asm                                                      PAGE   11

     534                      .dwattr $C$DW$42, DW_AT_TI_symbol_name("_DRV8301_SPI_Read")
     535                      .dwattr $C$DW$42, DW_AT_external
     536                      .dwattr $C$DW$42, DW_AT_type(*$C$DW$T$38)
     537                      .dwattr $C$DW$42, DW_AT_TI_begin_file("../DRV830x_SPI.c")
     538                      .dwattr $C$DW$42, DW_AT_TI_begin_line(0x6a)
     539                      .dwattr $C$DW$42, DW_AT_TI_begin_column(0x08)
     540                      .dwattr $C$DW$42, DW_AT_TI_max_frame_size(-8)
     541                      .dwpsn  file "../DRV830x_SPI.c",line 107,column 1,is_stmt,address _DRV8301_SPI_Read,isa 0
     542              
     543                      .dwfde $C$DW$CIE, _DRV8301_SPI_Read
     544              $C$DW$43        .dwtag  DW_TAG_formal_parameter
     545                      .dwattr $C$DW$43, DW_AT_name("motor")
     546                      .dwattr $C$DW$43, DW_AT_TI_symbol_name("_motor")
     547                      .dwattr $C$DW$43, DW_AT_type(*$C$DW$T$302)
     548                      .dwattr $C$DW$43, DW_AT_location[DW_OP_reg12]
     549              
     550              $C$DW$44        .dwtag  DW_TAG_formal_parameter
     551                      .dwattr $C$DW$44, DW_AT_name("address")
     552                      .dwattr $C$DW$44, DW_AT_TI_symbol_name("_address")
     553                      .dwattr $C$DW$44, DW_AT_type(*$C$DW$T$38)
     554                      .dwattr $C$DW$44, DW_AT_location[DW_OP_reg0]
     555              
     556              
     557              ;***************************************************************
     558              ;* FNAME: _DRV8301_SPI_Read             FR SIZE:   6           *
     559              ;*                                                             *
     560              ;* FUNCTION ENVIRONMENT                                        *
     561              ;*                                                             *
     562              ;* FUNCTION PROPERTIES                                         *
     563              ;*                            0 Parameter,  2 Auto,  4 SOE     *
     564              ;***************************************************************
     565              
     566              _DRV8301_SPI_Read:
     567              $C$DW$45        .dwtag  DW_TAG_variable
     568                      .dwattr $C$DW$45, DW_AT_name("w")
     569                      .dwattr $C$DW$45, DW_AT_TI_symbol_name("_w")
     570                      .dwattr $C$DW$45, DW_AT_type(*$C$DW$T$178)
     571                      .dwattr $C$DW$45, DW_AT_location[DW_OP_breg20 -1]
     572              
     573              $C$DW$46        .dwtag  DW_TAG_variable
     574                      .dwattr $C$DW$46, DW_AT_name("dummy")
     575                      .dwattr $C$DW$46, DW_AT_TI_symbol_name("_dummy")
     576                      .dwattr $C$DW$46, DW_AT_type(*$C$DW$T$311)
     577                      .dwattr $C$DW$46, DW_AT_location[DW_OP_breg20 -2]
     578              
     579              ;* AR2   assigned to _motor
     580              $C$DW$47        .dwtag  DW_TAG_variable
     581                      .dwattr $C$DW$47, DW_AT_name("motor")
     582                      .dwattr $C$DW$47, DW_AT_TI_symbol_name("_motor")
     583                      .dwattr $C$DW$47, DW_AT_type(*$C$DW$T$303)
     584                      .dwattr $C$DW$47, DW_AT_location[DW_OP_reg8]
     585              
     586              ;* AL    assigned to _address
     587              $C$DW$48        .dwtag  DW_TAG_variable
     588                      .dwattr $C$DW$48, DW_AT_name("address")
TMS320C2000 Assembler PC v20.2.5 Fri Jan  6 17:23:28 2023

Copyright (c) 1996-2018 Texas Instruments Incorporated
DRV830x_SPI.asm                                                      PAGE   12

     589                      .dwattr $C$DW$48, DW_AT_TI_symbol_name("_address")
     590                      .dwattr $C$DW$48, DW_AT_type(*$C$DW$T$312)
     591                      .dwattr $C$DW$48, DW_AT_location[DW_OP_reg0]
     592              
     593                      .dwcfi  cfa_offset, -2
     594                      .dwcfi  save_reg_to_mem, 26, 0
     595 00000060 B2BD          MOVL      *SP++,XAR1            ; [CPU_ALU] 
     596                      .dwcfi  save_reg_to_mem, 7, 2
     597                      .dwcfi  cfa_offset, -4
     598 00000061 AABD          MOVL      *SP++,XAR2            ; [CPU_ALU] 
     599                      .dwcfi  save_reg_to_mem, 9, 4
     600                      .dwcfi  cfa_offset, -6
     601 00000062 FE02          ADDB      SP,#2                 ; [CPU_ARAU] 
     602                      .dwcfi  cfa_offset, -8
     603                      .dwpsn  file "../DRV830x_SPI.c",line 111,column 2,is_stmt,isa 0
     604 00000063 5603          MOV       ACC,AL << #11         ; [CPU_ALU] |111| 
         00000064 0BA9 
     605                      .dwpsn  file "../DRV830x_SPI.c",line 115,column 2,is_stmt,isa 0
     606 00000065 D00A          MOVB      XAR0,#10              ; [CPU_ALU] |115| 
     607                      .dwpsn  file "../DRV830x_SPI.c",line 107,column 1,is_stmt,isa 0
     608 00000066 86A4          MOVL      XAR2,XAR4             ; [CPU_ALU] |107| 
     609                      .dwpsn  file "../DRV830x_SPI.c",line 115,column 2,is_stmt,isa 0
     610 00000067 D108          MOVB      XAR1,#8               ; [CPU_ALU] |115| 
     611                      .dwpsn  file "../DRV830x_SPI.c",line 111,column 2,is_stmt,isa 0
     612 00000068 1AA9          OR        AL,#0x8000            ; [CPU_ALU] |111| 
         00000069 8000 
     613 0000006a 9641          MOV       *-SP[1],AL            ; [CPU_ALU] |111| 
     614                      .dwpsn  file "../DRV830x_SPI.c",line 115,column 2,is_stmt,isa 0
     615 0000006b 9392          MOV       AH,*+XAR2[AR0]        ; [CPU_ALU] |115| 
     616 0000006c 8A9A          MOVL      XAR4,*+XAR2[AR1]      ; [CPU_ALU] |115| 
     617              $C$DW$49        .dwtag  DW_TAG_TI_branch
     618                      .dwattr $C$DW$49, DW_AT_low_pc(0x00)
     619                      .dwattr $C$DW$49, DW_AT_name("_SPI_Driver")
     620                      .dwattr $C$DW$49, DW_AT_TI_call
     621              
     622 0000006d 7640'         LCR       #_SPI_Driver          ; [CPU_ALU] |115| 
         0000006e 0000 
     623                      ; call occurs [#_SPI_Driver] ; [] |115| 
     624 0000006f 9642          MOV       *-SP[2],AL            ; [CPU_ALU] |115| 
     625                      .dwpsn  file "../DRV830x_SPI.c",line 116,column 2,is_stmt,isa 0
     626 00000070 0226          MOVB      ACC,#38               ; [CPU_ALU] |116| 
     627              $C$DW$50        .dwtag  DW_TAG_TI_branch
     628                      .dwattr $C$DW$50, DW_AT_low_pc(0x00)
     629                      .dwattr $C$DW$50, DW_AT_name("_F28x_usDelay")
     630                      .dwattr $C$DW$50, DW_AT_TI_call
     631              
     632 00000071 7640!         LCR       #_F28x_usDelay        ; [CPU_ALU] |116| 
         00000072 0000 
     633                      ; call occurs [#_F28x_usDelay] ; [] |116| 
     634                      .dwpsn  file "../DRV830x_SPI.c",line 117,column 2,is_stmt,isa 0
     635 00000073 D108          MOVB      XAR1,#8               ; [CPU_ALU] |117| 
     636 00000074 D00A          MOVB      XAR0,#10              ; [CPU_ALU] |117| 
     637 00000075 9A00          MOVB      AL,#0                 ; [CPU_ALU] |117| 
     638 00000076 8A9A          MOVL      XAR4,*+XAR2[AR1]      ; [CPU_ALU] |117| 
     639 00000077 9392          MOV       AH,*+XAR2[AR0]        ; [CPU_ALU] |117| 
TMS320C2000 Assembler PC v20.2.5 Fri Jan  6 17:23:28 2023

Copyright (c) 1996-2018 Texas Instruments Incorporated
DRV830x_SPI.asm                                                      PAGE   13

     640              $C$DW$51        .dwtag  DW_TAG_TI_branch
     641                      .dwattr $C$DW$51, DW_AT_low_pc(0x00)
     642                      .dwattr $C$DW$51, DW_AT_name("_SPI_Driver")
     643                      .dwattr $C$DW$51, DW_AT_TI_call
     644              
     645 00000078 7640'         LCR       #_SPI_Driver          ; [CPU_ALU] |117| 
         00000079 0000 
     646                      ; call occurs [#_SPI_Driver] ; [] |117| 
     647 0000007a FE82          SUBB      SP,#2                 ; [CPU_ARAU] 
     648                      .dwcfi  cfa_offset, -6
     649 0000007b 86BE          MOVL      XAR2,*--SP            ; [CPU_ALU] 
     650                      .dwcfi  cfa_offset, -4
     651                      .dwcfi  restore_reg, 9
     652 0000007c 8BBE          MOVL      XAR1,*--SP            ; [CPU_ALU] 
     653                      .dwcfi  cfa_offset, -2
     654                      .dwcfi  restore_reg, 7
     655              $C$DW$52        .dwtag  DW_TAG_TI_branch
     656                      .dwattr $C$DW$52, DW_AT_low_pc(0x00)
     657                      .dwattr $C$DW$52, DW_AT_TI_return
     658              
     659 0000007d 0006          LRETR     ; [CPU_ALU] 
     660                      ; return occurs ; [] 
     661                      .dwattr $C$DW$42, DW_AT_TI_end_file("../DRV830x_SPI.c")
     662                      .dwattr $C$DW$42, DW_AT_TI_end_line(0x76)
     663                      .dwattr $C$DW$42, DW_AT_TI_end_column(0x01)
     664                      .dwendentry
     665                      .dwendtag $C$DW$42
     666              
     667              ;**************************************************************
     668              ;* UNDEFINED EXTERNAL REFERENCES                              *
     669              ;**************************************************************
     670                      .global _GPIO_WritePin
     671                      .global _F28x_usDelay
     672              
     673              ;***************************************************************
     674              ;* TYPE INFORMATION                                            *
     675              ;***************************************************************
     676              
     677              $C$DW$T$20      .dwtag  DW_TAG_structure_type
     678                      .dwattr $C$DW$T$20, DW_AT_byte_size(0x0a)
     679              $C$DW$53        .dwtag  DW_TAG_member
     680                      .dwattr $C$DW$53, DW_AT_type(*$C$DW$T$19)
     681                      .dwattr $C$DW$53, DW_AT_name("As")
     682                      .dwattr $C$DW$53, DW_AT_TI_symbol_name("_As")
     683                      .dwattr $C$DW$53, DW_AT_data_member_location[DW_OP_plus_uconst 0x0]
     684                      .dwattr $C$DW$53, DW_AT_accessibility(DW_ACCESS_public)
     685              
     686              $C$DW$54        .dwtag  DW_TAG_member
     687                      .dwattr $C$DW$54, DW_AT_type(*$C$DW$T$19)
     688                      .dwattr $C$DW$54, DW_AT_name("Bs")
     689                      .dwattr $C$DW$54, DW_AT_TI_symbol_name("_Bs")
     690                      .dwattr $C$DW$54, DW_AT_data_member_location[DW_OP_plus_uconst 0x2]
     691                      .dwattr $C$DW$54, DW_AT_accessibility(DW_ACCESS_public)
     692              
     693              $C$DW$55        .dwtag  DW_TAG_member
TMS320C2000 Assembler PC v20.2.5 Fri Jan  6 17:23:28 2023

Copyright (c) 1996-2018 Texas Instruments Incorporated
DRV830x_SPI.asm                                                      PAGE   14

     694                      .dwattr $C$DW$55, DW_AT_type(*$C$DW$T$19)
     695                      .dwattr $C$DW$55, DW_AT_name("Cs")
     696                      .dwattr $C$DW$55, DW_AT_TI_symbol_name("_Cs")
     697                      .dwattr $C$DW$55, DW_AT_data_member_location[DW_OP_plus_uconst 0x4]
     698                      .dwattr $C$DW$55, DW_AT_accessibility(DW_ACCESS_public)
     699              
     700              $C$DW$56        .dwtag  DW_TAG_member
     701                      .dwattr $C$DW$56, DW_AT_type(*$C$DW$T$19)
     702                      .dwattr $C$DW$56, DW_AT_name("Alpha")
     703                      .dwattr $C$DW$56, DW_AT_TI_symbol_name("_Alpha")
     704                      .dwattr $C$DW$56, DW_AT_data_member_location[DW_OP_plus_uconst 0x6]
     705                      .dwattr $C$DW$56, DW_AT_accessibility(DW_ACCESS_public)
     706              
     707              $C$DW$57        .dwtag  DW_TAG_member
     708                      .dwattr $C$DW$57, DW_AT_type(*$C$DW$T$19)
     709                      .dwattr $C$DW$57, DW_AT_name("Beta")
     710                      .dwattr $C$DW$57, DW_AT_TI_symbol_name("_Beta")
     711                      .dwattr $C$DW$57, DW_AT_data_member_location[DW_OP_plus_uconst 0x8]
     712                      .dwattr $C$DW$57, DW_AT_accessibility(DW_ACCESS_public)
     713              
     714                      .dwendtag $C$DW$T$20
     715              
     716              $C$DW$T$75      .dwtag  DW_TAG_typedef
     717                      .dwattr $C$DW$T$75, DW_AT_name("CLARKE")
     718                      .dwattr $C$DW$T$75, DW_AT_type(*$C$DW$T$20)
     719                      .dwattr $C$DW$T$75, DW_AT_language(DW_LANG_C)
     720              
     721              
     722              $C$DW$T$21      .dwtag  DW_TAG_structure_type
     723                      .dwattr $C$DW$T$21, DW_AT_byte_size(0x0e)
     724              $C$DW$58        .dwtag  DW_TAG_member
     725                      .dwattr $C$DW$58, DW_AT_type(*$C$DW$T$19)
     726                      .dwattr $C$DW$58, DW_AT_name("Alpha")
     727                      .dwattr $C$DW$58, DW_AT_TI_symbol_name("_Alpha")
     728                      .dwattr $C$DW$58, DW_AT_data_member_location[DW_OP_plus_uconst 0x0]
     729                      .dwattr $C$DW$58, DW_AT_accessibility(DW_ACCESS_public)
     730              
     731              $C$DW$59        .dwtag  DW_TAG_member
     732                      .dwattr $C$DW$59, DW_AT_type(*$C$DW$T$19)
     733                      .dwattr $C$DW$59, DW_AT_name("Beta")
     734                      .dwattr $C$DW$59, DW_AT_TI_symbol_name("_Beta")
     735                      .dwattr $C$DW$59, DW_AT_data_member_location[DW_OP_plus_uconst 0x2]
     736                      .dwattr $C$DW$59, DW_AT_accessibility(DW_ACCESS_public)
     737              
     738              $C$DW$60        .dwtag  DW_TAG_member
     739                      .dwattr $C$DW$60, DW_AT_type(*$C$DW$T$19)
     740                      .dwattr $C$DW$60, DW_AT_name("Angle")
     741                      .dwattr $C$DW$60, DW_AT_TI_symbol_name("_Angle")
     742                      .dwattr $C$DW$60, DW_AT_data_member_location[DW_OP_plus_uconst 0x4]
     743                      .dwattr $C$DW$60, DW_AT_accessibility(DW_ACCESS_public)
     744              
     745              $C$DW$61        .dwtag  DW_TAG_member
     746                      .dwattr $C$DW$61, DW_AT_type(*$C$DW$T$19)
     747                      .dwattr $C$DW$61, DW_AT_name("Ds")
     748                      .dwattr $C$DW$61, DW_AT_TI_symbol_name("_Ds")
TMS320C2000 Assembler PC v20.2.5 Fri Jan  6 17:23:28 2023

Copyright (c) 1996-2018 Texas Instruments Incorporated
DRV830x_SPI.asm                                                      PAGE   15

     749                      .dwattr $C$DW$61, DW_AT_data_member_location[DW_OP_plus_uconst 0x6]
     750                      .dwattr $C$DW$61, DW_AT_accessibility(DW_ACCESS_public)
     751              
     752              $C$DW$62        .dwtag  DW_TAG_member
     753                      .dwattr $C$DW$62, DW_AT_type(*$C$DW$T$19)
     754                      .dwattr $C$DW$62, DW_AT_name("Qs")
     755                      .dwattr $C$DW$62, DW_AT_TI_symbol_name("_Qs")
     756                      .dwattr $C$DW$62, DW_AT_data_member_location[DW_OP_plus_uconst 0x8]
     757                      .dwattr $C$DW$62, DW_AT_accessibility(DW_ACCESS_public)
     758              
     759              $C$DW$63        .dwtag  DW_TAG_member
     760                      .dwattr $C$DW$63, DW_AT_type(*$C$DW$T$19)
     761                      .dwattr $C$DW$63, DW_AT_name("Sine")
     762                      .dwattr $C$DW$63, DW_AT_TI_symbol_name("_Sine")
     763                      .dwattr $C$DW$63, DW_AT_data_member_location[DW_OP_plus_uconst 0xa]
     764                      .dwattr $C$DW$63, DW_AT_accessibility(DW_ACCESS_public)
     765              
     766              $C$DW$64        .dwtag  DW_TAG_member
     767                      .dwattr $C$DW$64, DW_AT_type(*$C$DW$T$19)
     768                      .dwattr $C$DW$64, DW_AT_name("Cosine")
     769                      .dwattr $C$DW$64, DW_AT_TI_symbol_name("_Cosine")
     770                      .dwattr $C$DW$64, DW_AT_data_member_location[DW_OP_plus_uconst 0xc]
     771                      .dwattr $C$DW$64, DW_AT_accessibility(DW_ACCESS_public)
     772              
     773                      .dwendtag $C$DW$T$21
     774              
     775              $C$DW$T$76      .dwtag  DW_TAG_typedef
     776                      .dwattr $C$DW$T$76, DW_AT_name("PARK")
     777                      .dwattr $C$DW$T$76, DW_AT_type(*$C$DW$T$21)
     778                      .dwattr $C$DW$T$76, DW_AT_language(DW_LANG_C)
     779              
     780              
     781              $C$DW$T$22      .dwtag  DW_TAG_structure_type
     782                      .dwattr $C$DW$T$22, DW_AT_byte_size(0x0e)
     783              $C$DW$65        .dwtag  DW_TAG_member
     784                      .dwattr $C$DW$65, DW_AT_type(*$C$DW$T$19)
     785                      .dwattr $C$DW$65, DW_AT_name("Alpha")
     786                      .dwattr $C$DW$65, DW_AT_TI_symbol_name("_Alpha")
     787                      .dwattr $C$DW$65, DW_AT_data_member_location[DW_OP_plus_uconst 0x0]
     788                      .dwattr $C$DW$65, DW_AT_accessibility(DW_ACCESS_public)
     789              
     790              $C$DW$66        .dwtag  DW_TAG_member
     791                      .dwattr $C$DW$66, DW_AT_type(*$C$DW$T$19)
     792                      .dwattr $C$DW$66, DW_AT_name("Beta")
     793                      .dwattr $C$DW$66, DW_AT_TI_symbol_name("_Beta")
     794                      .dwattr $C$DW$66, DW_AT_data_member_location[DW_OP_plus_uconst 0x2]
     795                      .dwattr $C$DW$66, DW_AT_accessibility(DW_ACCESS_public)
     796              
     797              $C$DW$67        .dwtag  DW_TAG_member
     798                      .dwattr $C$DW$67, DW_AT_type(*$C$DW$T$19)
     799                      .dwattr $C$DW$67, DW_AT_name("Angle")
     800                      .dwattr $C$DW$67, DW_AT_TI_symbol_name("_Angle")
     801                      .dwattr $C$DW$67, DW_AT_data_member_location[DW_OP_plus_uconst 0x4]
     802                      .dwattr $C$DW$67, DW_AT_accessibility(DW_ACCESS_public)
     803              
TMS320C2000 Assembler PC v20.2.5 Fri Jan  6 17:23:28 2023

Copyright (c) 1996-2018 Texas Instruments Incorporated
DRV830x_SPI.asm                                                      PAGE   16

     804              $C$DW$68        .dwtag  DW_TAG_member
     805                      .dwattr $C$DW$68, DW_AT_type(*$C$DW$T$19)
     806                      .dwattr $C$DW$68, DW_AT_name("Ds")
     807                      .dwattr $C$DW$68, DW_AT_TI_symbol_name("_Ds")
     808                      .dwattr $C$DW$68, DW_AT_data_member_location[DW_OP_plus_uconst 0x6]
     809                      .dwattr $C$DW$68, DW_AT_accessibility(DW_ACCESS_public)
     810              
     811              $C$DW$69        .dwtag  DW_TAG_member
     812                      .dwattr $C$DW$69, DW_AT_type(*$C$DW$T$19)
     813                      .dwattr $C$DW$69, DW_AT_name("Qs")
     814                      .dwattr $C$DW$69, DW_AT_TI_symbol_name("_Qs")
     815                      .dwattr $C$DW$69, DW_AT_data_member_location[DW_OP_plus_uconst 0x8]
     816                      .dwattr $C$DW$69, DW_AT_accessibility(DW_ACCESS_public)
     817              
     818              $C$DW$70        .dwtag  DW_TAG_member
     819                      .dwattr $C$DW$70, DW_AT_type(*$C$DW$T$19)
     820                      .dwattr $C$DW$70, DW_AT_name("Sine")
     821                      .dwattr $C$DW$70, DW_AT_TI_symbol_name("_Sine")
     822                      .dwattr $C$DW$70, DW_AT_data_member_location[DW_OP_plus_uconst 0xa]
     823                      .dwattr $C$DW$70, DW_AT_accessibility(DW_ACCESS_public)
     824              
     825              $C$DW$71        .dwtag  DW_TAG_member
     826                      .dwattr $C$DW$71, DW_AT_type(*$C$DW$T$19)
     827                      .dwattr $C$DW$71, DW_AT_name("Cosine")
     828                      .dwattr $C$DW$71, DW_AT_TI_symbol_name("_Cosine")
     829                      .dwattr $C$DW$71, DW_AT_data_member_location[DW_OP_plus_uconst 0xc]
     830                      .dwattr $C$DW$71, DW_AT_accessibility(DW_ACCESS_public)
     831              
     832                      .dwendtag $C$DW$T$22
     833              
     834              $C$DW$T$77      .dwtag  DW_TAG_typedef
     835                      .dwattr $C$DW$T$77, DW_AT_name("IPARK")
     836                      .dwattr $C$DW$T$77, DW_AT_type(*$C$DW$T$22)
     837                      .dwattr $C$DW$T$77, DW_AT_language(DW_LANG_C)
     838              
     839              
     840              $C$DW$T$23      .dwtag  DW_TAG_structure_type
     841                      .dwattr $C$DW$T$23, DW_AT_byte_size(0x18)
     842              $C$DW$72        .dwtag  DW_TAG_member
     843                      .dwattr $C$DW$72, DW_AT_type(*$C$DW$T$19)
     844                      .dwattr $C$DW$72, DW_AT_name("Ref")
     845                      .dwattr $C$DW$72, DW_AT_TI_symbol_name("_Ref")
     846                      .dwattr $C$DW$72, DW_AT_data_member_location[DW_OP_plus_uconst 0x0]
     847                      .dwattr $C$DW$72, DW_AT_accessibility(DW_ACCESS_public)
     848              
     849              $C$DW$73        .dwtag  DW_TAG_member
     850                      .dwattr $C$DW$73, DW_AT_type(*$C$DW$T$19)
     851                      .dwattr $C$DW$73, DW_AT_name("Fbk")
     852                      .dwattr $C$DW$73, DW_AT_TI_symbol_name("_Fbk")
     853                      .dwattr $C$DW$73, DW_AT_data_member_location[DW_OP_plus_uconst 0x2]
     854                      .dwattr $C$DW$73, DW_AT_accessibility(DW_ACCESS_public)
     855              
     856              $C$DW$74        .dwtag  DW_TAG_member
     857                      .dwattr $C$DW$74, DW_AT_type(*$C$DW$T$19)
     858                      .dwattr $C$DW$74, DW_AT_name("Out")
TMS320C2000 Assembler PC v20.2.5 Fri Jan  6 17:23:28 2023

Copyright (c) 1996-2018 Texas Instruments Incorporated
DRV830x_SPI.asm                                                      PAGE   17

     859                      .dwattr $C$DW$74, DW_AT_TI_symbol_name("_Out")
     860                      .dwattr $C$DW$74, DW_AT_data_member_location[DW_OP_plus_uconst 0x4]
     861                      .dwattr $C$DW$74, DW_AT_accessibility(DW_ACCESS_public)
     862              
     863              $C$DW$75        .dwtag  DW_TAG_member
     864                      .dwattr $C$DW$75, DW_AT_type(*$C$DW$T$19)
     865                      .dwattr $C$DW$75, DW_AT_name("Kp")
     866                      .dwattr $C$DW$75, DW_AT_TI_symbol_name("_Kp")
     867                      .dwattr $C$DW$75, DW_AT_data_member_location[DW_OP_plus_uconst 0x6]
     868                      .dwattr $C$DW$75, DW_AT_accessibility(DW_ACCESS_public)
     869              
     870              $C$DW$76        .dwtag  DW_TAG_member
     871                      .dwattr $C$DW$76, DW_AT_type(*$C$DW$T$19)
     872                      .dwattr $C$DW$76, DW_AT_name("Ki")
     873                      .dwattr $C$DW$76, DW_AT_TI_symbol_name("_Ki")
     874                      .dwattr $C$DW$76, DW_AT_data_member_location[DW_OP_plus_uconst 0x8]
     875                      .dwattr $C$DW$76, DW_AT_accessibility(DW_ACCESS_public)
     876              
     877              $C$DW$77        .dwtag  DW_TAG_member
     878                      .dwattr $C$DW$77, DW_AT_type(*$C$DW$T$19)
     879                      .dwattr $C$DW$77, DW_AT_name("Umax")
     880                      .dwattr $C$DW$77, DW_AT_TI_symbol_name("_Umax")
     881                      .dwattr $C$DW$77, DW_AT_data_member_location[DW_OP_plus_uconst 0xa]
     882                      .dwattr $C$DW$77, DW_AT_accessibility(DW_ACCESS_public)
     883              
     884              $C$DW$78        .dwtag  DW_TAG_member
     885                      .dwattr $C$DW$78, DW_AT_type(*$C$DW$T$19)
     886                      .dwattr $C$DW$78, DW_AT_name("Umin")
     887                      .dwattr $C$DW$78, DW_AT_TI_symbol_name("_Umin")
     888                      .dwattr $C$DW$78, DW_AT_data_member_location[DW_OP_plus_uconst 0xc]
     889                      .dwattr $C$DW$78, DW_AT_accessibility(DW_ACCESS_public)
     890              
     891              $C$DW$79        .dwtag  DW_TAG_member
     892                      .dwattr $C$DW$79, DW_AT_type(*$C$DW$T$19)
     893                      .dwattr $C$DW$79, DW_AT_name("up")
     894                      .dwattr $C$DW$79, DW_AT_TI_symbol_name("_up")
     895                      .dwattr $C$DW$79, DW_AT_data_member_location[DW_OP_plus_uconst 0xe]
     896                      .dwattr $C$DW$79, DW_AT_accessibility(DW_ACCESS_public)
     897              
     898              $C$DW$80        .dwtag  DW_TAG_member
     899                      .dwattr $C$DW$80, DW_AT_type(*$C$DW$T$19)
     900                      .dwattr $C$DW$80, DW_AT_name("ui")
     901                      .dwattr $C$DW$80, DW_AT_TI_symbol_name("_ui")
     902                      .dwattr $C$DW$80, DW_AT_data_member_location[DW_OP_plus_uconst 0x10]
     903                      .dwattr $C$DW$80, DW_AT_accessibility(DW_ACCESS_public)
     904              
     905              $C$DW$81        .dwtag  DW_TAG_member
     906                      .dwattr $C$DW$81, DW_AT_type(*$C$DW$T$19)
     907                      .dwattr $C$DW$81, DW_AT_name("v1")
     908                      .dwattr $C$DW$81, DW_AT_TI_symbol_name("_v1")
     909                      .dwattr $C$DW$81, DW_AT_data_member_location[DW_OP_plus_uconst 0x12]
     910                      .dwattr $C$DW$81, DW_AT_accessibility(DW_ACCESS_public)
     911              
     912              $C$DW$82        .dwtag  DW_TAG_member
     913                      .dwattr $C$DW$82, DW_AT_type(*$C$DW$T$19)
TMS320C2000 Assembler PC v20.2.5 Fri Jan  6 17:23:28 2023

Copyright (c) 1996-2018 Texas Instruments Incorporated
DRV830x_SPI.asm                                                      PAGE   18

     914                      .dwattr $C$DW$82, DW_AT_name("i1")
     915                      .dwattr $C$DW$82, DW_AT_TI_symbol_name("_i1")
     916                      .dwattr $C$DW$82, DW_AT_data_member_location[DW_OP_plus_uconst 0x14]
     917                      .dwattr $C$DW$82, DW_AT_accessibility(DW_ACCESS_public)
     918              
     919              $C$DW$83        .dwtag  DW_TAG_member
     920                      .dwattr $C$DW$83, DW_AT_type(*$C$DW$T$19)
     921                      .dwattr $C$DW$83, DW_AT_name("w1")
     922                      .dwattr $C$DW$83, DW_AT_TI_symbol_name("_w1")
     923                      .dwattr $C$DW$83, DW_AT_data_member_location[DW_OP_plus_uconst 0x16]
     924                      .dwattr $C$DW$83, DW_AT_accessibility(DW_ACCESS_public)
     925              
     926                      .dwendtag $C$DW$T$23
     927              
     928              $C$DW$T$78      .dwtag  DW_TAG_typedef
     929                      .dwattr $C$DW$T$78, DW_AT_name("PI_CONTROLLER")
     930                      .dwattr $C$DW$T$78, DW_AT_type(*$C$DW$T$23)
     931                      .dwattr $C$DW$T$78, DW_AT_language(DW_LANG_C)
     932              
     933              
     934              $C$DW$T$24      .dwtag  DW_TAG_structure_type
     935                      .dwattr $C$DW$T$24, DW_AT_byte_size(0x0a)
     936              $C$DW$84        .dwtag  DW_TAG_member
     937                      .dwattr $C$DW$84, DW_AT_type(*$C$DW$T$19)
     938                      .dwattr $C$DW$84, DW_AT_name("Ref")
     939                      .dwattr $C$DW$84, DW_AT_TI_symbol_name("_Ref")
     940                      .dwattr $C$DW$84, DW_AT_data_member_location[DW_OP_plus_uconst 0x0]
     941                      .dwattr $C$DW$84, DW_AT_accessibility(DW_ACCESS_public)
     942              
     943              $C$DW$85        .dwtag  DW_TAG_member
     944                      .dwattr $C$DW$85, DW_AT_type(*$C$DW$T$19)
     945                      .dwattr $C$DW$85, DW_AT_name("Fbk")
     946                      .dwattr $C$DW$85, DW_AT_TI_symbol_name("_Fbk")
     947                      .dwattr $C$DW$85, DW_AT_data_member_location[DW_OP_plus_uconst 0x2]
     948                      .dwattr $C$DW$85, DW_AT_accessibility(DW_ACCESS_public)
     949              
     950              $C$DW$86        .dwtag  DW_TAG_member
     951                      .dwattr $C$DW$86, DW_AT_type(*$C$DW$T$19)
     952                      .dwattr $C$DW$86, DW_AT_name("Out")
     953                      .dwattr $C$DW$86, DW_AT_TI_symbol_name("_Out")
     954                      .dwattr $C$DW$86, DW_AT_data_member_location[DW_OP_plus_uconst 0x4]
     955                      .dwattr $C$DW$86, DW_AT_accessibility(DW_ACCESS_public)
     956              
     957              $C$DW$87        .dwtag  DW_TAG_member
     958                      .dwattr $C$DW$87, DW_AT_type(*$C$DW$T$19)
     959                      .dwattr $C$DW$87, DW_AT_name("c1")
     960                      .dwattr $C$DW$87, DW_AT_TI_symbol_name("_c1")
     961                      .dwattr $C$DW$87, DW_AT_data_member_location[DW_OP_plus_uconst 0x6]
     962                      .dwattr $C$DW$87, DW_AT_accessibility(DW_ACCESS_public)
     963              
     964              $C$DW$88        .dwtag  DW_TAG_member
     965                      .dwattr $C$DW$88, DW_AT_type(*$C$DW$T$19)
     966                      .dwattr $C$DW$88, DW_AT_name("c2")
     967                      .dwattr $C$DW$88, DW_AT_TI_symbol_name("_c2")
     968                      .dwattr $C$DW$88, DW_AT_data_member_location[DW_OP_plus_uconst 0x8]
TMS320C2000 Assembler PC v20.2.5 Fri Jan  6 17:23:28 2023

Copyright (c) 1996-2018 Texas Instruments Incorporated
DRV830x_SPI.asm                                                      PAGE   19

     969                      .dwattr $C$DW$88, DW_AT_accessibility(DW_ACCESS_public)
     970              
     971                      .dwendtag $C$DW$T$24
     972              
     973              $C$DW$T$27      .dwtag  DW_TAG_typedef
     974                      .dwattr $C$DW$T$27, DW_AT_name("PID_TERMINALS")
     975                      .dwattr $C$DW$T$27, DW_AT_type(*$C$DW$T$24)
     976                      .dwattr $C$DW$T$27, DW_AT_language(DW_LANG_C)
     977              
     978              
     979              $C$DW$T$25      .dwtag  DW_TAG_structure_type
     980                      .dwattr $C$DW$T$25, DW_AT_byte_size(0x0e)
     981              $C$DW$89        .dwtag  DW_TAG_member
     982                      .dwattr $C$DW$89, DW_AT_type(*$C$DW$T$19)
     983                      .dwattr $C$DW$89, DW_AT_name("Kr")
     984                      .dwattr $C$DW$89, DW_AT_TI_symbol_name("_Kr")
     985                      .dwattr $C$DW$89, DW_AT_data_member_location[DW_OP_plus_uconst 0x0]
     986                      .dwattr $C$DW$89, DW_AT_accessibility(DW_ACCESS_public)
     987              
     988              $C$DW$90        .dwtag  DW_TAG_member
     989                      .dwattr $C$DW$90, DW_AT_type(*$C$DW$T$19)
     990                      .dwattr $C$DW$90, DW_AT_name("Kp")
     991                      .dwattr $C$DW$90, DW_AT_TI_symbol_name("_Kp")
     992                      .dwattr $C$DW$90, DW_AT_data_member_location[DW_OP_plus_uconst 0x2]
     993                      .dwattr $C$DW$90, DW_AT_accessibility(DW_ACCESS_public)
     994              
     995              $C$DW$91        .dwtag  DW_TAG_member
     996                      .dwattr $C$DW$91, DW_AT_type(*$C$DW$T$19)
     997                      .dwattr $C$DW$91, DW_AT_name("Ki")
     998                      .dwattr $C$DW$91, DW_AT_TI_symbol_name("_Ki")
     999                      .dwattr $C$DW$91, DW_AT_data_member_location[DW_OP_plus_uconst 0x4]
    1000                      .dwattr $C$DW$91, DW_AT_accessibility(DW_ACCESS_public)
    1001              
    1002              $C$DW$92        .dwtag  DW_TAG_member
    1003                      .dwattr $C$DW$92, DW_AT_type(*$C$DW$T$19)
    1004                      .dwattr $C$DW$92, DW_AT_name("Kd")
    1005                      .dwattr $C$DW$92, DW_AT_TI_symbol_name("_Kd")
    1006                      .dwattr $C$DW$92, DW_AT_data_member_location[DW_OP_plus_uconst 0x6]
    1007                      .dwattr $C$DW$92, DW_AT_accessibility(DW_ACCESS_public)
    1008              
    1009              $C$DW$93        .dwtag  DW_TAG_member
    1010                      .dwattr $C$DW$93, DW_AT_type(*$C$DW$T$19)
    1011                      .dwattr $C$DW$93, DW_AT_name("Km")
    1012                      .dwattr $C$DW$93, DW_AT_TI_symbol_name("_Km")
    1013                      .dwattr $C$DW$93, DW_AT_data_member_location[DW_OP_plus_uconst 0x8]
    1014                      .dwattr $C$DW$93, DW_AT_accessibility(DW_ACCESS_public)
    1015              
    1016              $C$DW$94        .dwtag  DW_TAG_member
    1017                      .dwattr $C$DW$94, DW_AT_type(*$C$DW$T$19)
    1018                      .dwattr $C$DW$94, DW_AT_name("Umax")
    1019                      .dwattr $C$DW$94, DW_AT_TI_symbol_name("_Umax")
    1020                      .dwattr $C$DW$94, DW_AT_data_member_location[DW_OP_plus_uconst 0xa]
    1021                      .dwattr $C$DW$94, DW_AT_accessibility(DW_ACCESS_public)
    1022              
    1023              $C$DW$95        .dwtag  DW_TAG_member
TMS320C2000 Assembler PC v20.2.5 Fri Jan  6 17:23:28 2023

Copyright (c) 1996-2018 Texas Instruments Incorporated
DRV830x_SPI.asm                                                      PAGE   20

    1024                      .dwattr $C$DW$95, DW_AT_type(*$C$DW$T$19)
    1025                      .dwattr $C$DW$95, DW_AT_name("Umin")
    1026                      .dwattr $C$DW$95, DW_AT_TI_symbol_name("_Umin")
    1027                      .dwattr $C$DW$95, DW_AT_data_member_location[DW_OP_plus_uconst 0xc]
    1028                      .dwattr $C$DW$95, DW_AT_accessibility(DW_ACCESS_public)
    1029              
    1030                      .dwendtag $C$DW$T$25
    1031              
    1032              $C$DW$T$28      .dwtag  DW_TAG_typedef
    1033                      .dwattr $C$DW$T$28, DW_AT_name("PID_PARAMETERS")
    1034                      .dwattr $C$DW$T$28, DW_AT_type(*$C$DW$T$25)
    1035                      .dwattr $C$DW$T$28, DW_AT_language(DW_LANG_C)
    1036              
    1037              
    1038              $C$DW$T$26      .dwtag  DW_TAG_structure_type
    1039                      .dwattr $C$DW$T$26, DW_AT_byte_size(0x10)
    1040              $C$DW$96        .dwtag  DW_TAG_member
    1041                      .dwattr $C$DW$96, DW_AT_type(*$C$DW$T$19)
    1042                      .dwattr $C$DW$96, DW_AT_name("up")
    1043                      .dwattr $C$DW$96, DW_AT_TI_symbol_name("_up")
    1044                      .dwattr $C$DW$96, DW_AT_data_member_location[DW_OP_plus_uconst 0x0]
    1045                      .dwattr $C$DW$96, DW_AT_accessibility(DW_ACCESS_public)
    1046              
    1047              $C$DW$97        .dwtag  DW_TAG_member
    1048                      .dwattr $C$DW$97, DW_AT_type(*$C$DW$T$19)
    1049                      .dwattr $C$DW$97, DW_AT_name("ui")
    1050                      .dwattr $C$DW$97, DW_AT_TI_symbol_name("_ui")
    1051                      .dwattr $C$DW$97, DW_AT_data_member_location[DW_OP_plus_uconst 0x2]
    1052                      .dwattr $C$DW$97, DW_AT_accessibility(DW_ACCESS_public)
    1053              
    1054              $C$DW$98        .dwtag  DW_TAG_member
    1055                      .dwattr $C$DW$98, DW_AT_type(*$C$DW$T$19)
    1056                      .dwattr $C$DW$98, DW_AT_name("ud")
    1057                      .dwattr $C$DW$98, DW_AT_TI_symbol_name("_ud")
    1058                      .dwattr $C$DW$98, DW_AT_data_member_location[DW_OP_plus_uconst 0x4]
    1059                      .dwattr $C$DW$98, DW_AT_accessibility(DW_ACCESS_public)
    1060              
    1061              $C$DW$99        .dwtag  DW_TAG_member
    1062                      .dwattr $C$DW$99, DW_AT_type(*$C$DW$T$19)
    1063                      .dwattr $C$DW$99, DW_AT_name("v1")
    1064                      .dwattr $C$DW$99, DW_AT_TI_symbol_name("_v1")
    1065                      .dwattr $C$DW$99, DW_AT_data_member_location[DW_OP_plus_uconst 0x6]
    1066                      .dwattr $C$DW$99, DW_AT_accessibility(DW_ACCESS_public)
    1067              
    1068              $C$DW$100       .dwtag  DW_TAG_member
    1069                      .dwattr $C$DW$100, DW_AT_type(*$C$DW$T$19)
    1070                      .dwattr $C$DW$100, DW_AT_name("i1")
    1071                      .dwattr $C$DW$100, DW_AT_TI_symbol_name("_i1")
    1072                      .dwattr $C$DW$100, DW_AT_data_member_location[DW_OP_plus_uconst 0x8]
    1073                      .dwattr $C$DW$100, DW_AT_accessibility(DW_ACCESS_public)
    1074              
    1075              $C$DW$101       .dwtag  DW_TAG_member
    1076                      .dwattr $C$DW$101, DW_AT_type(*$C$DW$T$19)
    1077                      .dwattr $C$DW$101, DW_AT_name("d1")
    1078                      .dwattr $C$DW$101, DW_AT_TI_symbol_name("_d1")
TMS320C2000 Assembler PC v20.2.5 Fri Jan  6 17:23:28 2023

Copyright (c) 1996-2018 Texas Instruments Incorporated
DRV830x_SPI.asm                                                      PAGE   21

    1079                      .dwattr $C$DW$101, DW_AT_data_member_location[DW_OP_plus_uconst 0xa]
    1080                      .dwattr $C$DW$101, DW_AT_accessibility(DW_ACCESS_public)
    1081              
    1082              $C$DW$102       .dwtag  DW_TAG_member
    1083                      .dwattr $C$DW$102, DW_AT_type(*$C$DW$T$19)
    1084                      .dwattr $C$DW$102, DW_AT_name("d2")
    1085                      .dwattr $C$DW$102, DW_AT_TI_symbol_name("_d2")
    1086                      .dwattr $C$DW$102, DW_AT_data_member_location[DW_OP_plus_uconst 0xc]
    1087                      .dwattr $C$DW$102, DW_AT_accessibility(DW_ACCESS_public)
    1088              
    1089              $C$DW$103       .dwtag  DW_TAG_member
    1090                      .dwattr $C$DW$103, DW_AT_type(*$C$DW$T$19)
    1091                      .dwattr $C$DW$103, DW_AT_name("w1")
    1092                      .dwattr $C$DW$103, DW_AT_TI_symbol_name("_w1")
    1093                      .dwattr $C$DW$103, DW_AT_data_member_location[DW_OP_plus_uconst 0xe]
    1094                      .dwattr $C$DW$103, DW_AT_accessibility(DW_ACCESS_public)
    1095              
    1096                      .dwendtag $C$DW$T$26
    1097              
    1098              $C$DW$T$29      .dwtag  DW_TAG_typedef
    1099                      .dwattr $C$DW$T$29, DW_AT_name("PID_DATA")
    1100                      .dwattr $C$DW$T$29, DW_AT_type(*$C$DW$T$26)
    1101                      .dwattr $C$DW$T$29, DW_AT_language(DW_LANG_C)
    1102              
    1103              
    1104              $C$DW$T$30      .dwtag  DW_TAG_structure_type
    1105                      .dwattr $C$DW$T$30, DW_AT_byte_size(0x28)
    1106              $C$DW$104       .dwtag  DW_TAG_member
    1107                      .dwattr $C$DW$104, DW_AT_type(*$C$DW$T$27)
    1108                      .dwattr $C$DW$104, DW_AT_name("term")
    1109                      .dwattr $C$DW$104, DW_AT_TI_symbol_name("_term")
    1110                      .dwattr $C$DW$104, DW_AT_data_member_location[DW_OP_plus_uconst 0x0]
    1111                      .dwattr $C$DW$104, DW_AT_accessibility(DW_ACCESS_public)
    1112              
    1113              $C$DW$105       .dwtag  DW_TAG_member
    1114                      .dwattr $C$DW$105, DW_AT_type(*$C$DW$T$28)
    1115                      .dwattr $C$DW$105, DW_AT_name("param")
    1116                      .dwattr $C$DW$105, DW_AT_TI_symbol_name("_param")
    1117                      .dwattr $C$DW$105, DW_AT_data_member_location[DW_OP_plus_uconst 0xa]
    1118                      .dwattr $C$DW$105, DW_AT_accessibility(DW_ACCESS_public)
    1119              
    1120              $C$DW$106       .dwtag  DW_TAG_member
    1121                      .dwattr $C$DW$106, DW_AT_type(*$C$DW$T$29)
    1122                      .dwattr $C$DW$106, DW_AT_name("data")
    1123                      .dwattr $C$DW$106, DW_AT_TI_symbol_name("_data")
    1124                      .dwattr $C$DW$106, DW_AT_data_member_location[DW_OP_plus_uconst 0x18]
    1125                      .dwattr $C$DW$106, DW_AT_accessibility(DW_ACCESS_public)
    1126              
    1127                      .dwendtag $C$DW$T$30
    1128              
    1129              $C$DW$T$79      .dwtag  DW_TAG_typedef
    1130                      .dwattr $C$DW$T$79, DW_AT_name("PID_CONTROLLER")
    1131                      .dwattr $C$DW$T$79, DW_AT_type(*$C$DW$T$30)
    1132                      .dwattr $C$DW$T$79, DW_AT_language(DW_LANG_C)
    1133              
TMS320C2000 Assembler PC v20.2.5 Fri Jan  6 17:23:28 2023

Copyright (c) 1996-2018 Texas Instruments Incorporated
DRV830x_SPI.asm                                                      PAGE   22

    1134              
    1135              $C$DW$T$31      .dwtag  DW_TAG_structure_type
    1136                      .dwattr $C$DW$T$31, DW_AT_byte_size(0x0a)
    1137              $C$DW$107       .dwtag  DW_TAG_member
    1138                      .dwattr $C$DW$107, DW_AT_type(*$C$DW$T$19)
    1139                      .dwattr $C$DW$107, DW_AT_name("Ref")
    1140                      .dwattr $C$DW$107, DW_AT_TI_symbol_name("_Ref")
    1141                      .dwattr $C$DW$107, DW_AT_data_member_location[DW_OP_plus_uconst 0x0]
    1142                      .dwattr $C$DW$107, DW_AT_accessibility(DW_ACCESS_public)
    1143              
    1144              $C$DW$108       .dwtag  DW_TAG_member
    1145                      .dwattr $C$DW$108, DW_AT_type(*$C$DW$T$19)
    1146                      .dwattr $C$DW$108, DW_AT_name("Fbk")
    1147                      .dwattr $C$DW$108, DW_AT_TI_symbol_name("_Fbk")
    1148                      .dwattr $C$DW$108, DW_AT_data_member_location[DW_OP_plus_uconst 0x2]
    1149                      .dwattr $C$DW$108, DW_AT_accessibility(DW_ACCESS_public)
    1150              
    1151              $C$DW$109       .dwtag  DW_TAG_member
    1152                      .dwattr $C$DW$109, DW_AT_type(*$C$DW$T$19)
    1153                      .dwattr $C$DW$109, DW_AT_name("Out")
    1154                      .dwattr $C$DW$109, DW_AT_TI_symbol_name("_Out")
    1155                      .dwattr $C$DW$109, DW_AT_data_member_location[DW_OP_plus_uconst 0x4]
    1156                      .dwattr $C$DW$109, DW_AT_accessibility(DW_ACCESS_public)
    1157              
    1158              $C$DW$110       .dwtag  DW_TAG_member
    1159                      .dwattr $C$DW$110, DW_AT_type(*$C$DW$T$19)
    1160                      .dwattr $C$DW$110, DW_AT_name("c1")
    1161                      .dwattr $C$DW$110, DW_AT_TI_symbol_name("_c1")
    1162                      .dwattr $C$DW$110, DW_AT_data_member_location[DW_OP_plus_uconst 0x6]
    1163                      .dwattr $C$DW$110, DW_AT_accessibility(DW_ACCESS_public)
    1164              
    1165              $C$DW$111       .dwtag  DW_TAG_member
    1166                      .dwattr $C$DW$111, DW_AT_type(*$C$DW$T$19)
    1167                      .dwattr $C$DW$111, DW_AT_name("c2")
    1168                      .dwattr $C$DW$111, DW_AT_TI_symbol_name("_c2")
    1169                      .dwattr $C$DW$111, DW_AT_data_member_location[DW_OP_plus_uconst 0x8]
    1170                      .dwattr $C$DW$111, DW_AT_accessibility(DW_ACCESS_public)
    1171              
    1172                      .dwendtag $C$DW$T$31
    1173              
    1174              $C$DW$T$34      .dwtag  DW_TAG_typedef
    1175                      .dwattr $C$DW$T$34, DW_AT_name("PI_TERMINALS")
    1176                      .dwattr $C$DW$T$34, DW_AT_type(*$C$DW$T$31)
    1177                      .dwattr $C$DW$T$34, DW_AT_language(DW_LANG_C)
    1178              
    1179              
    1180              $C$DW$T$32      .dwtag  DW_TAG_structure_type
    1181                      .dwattr $C$DW$T$32, DW_AT_byte_size(0x14)
    1182              $C$DW$112       .dwtag  DW_TAG_member
    1183                      .dwattr $C$DW$112, DW_AT_type(*$C$DW$T$19)
    1184                      .dwattr $C$DW$112, DW_AT_name("Kr")
    1185                      .dwattr $C$DW$112, DW_AT_TI_symbol_name("_Kr")
    1186                      .dwattr $C$DW$112, DW_AT_data_member_location[DW_OP_plus_uconst 0x0]
    1187                      .dwattr $C$DW$112, DW_AT_accessibility(DW_ACCESS_public)
    1188              
TMS320C2000 Assembler PC v20.2.5 Fri Jan  6 17:23:28 2023

Copyright (c) 1996-2018 Texas Instruments Incorporated
DRV830x_SPI.asm                                                      PAGE   23

    1189              $C$DW$113       .dwtag  DW_TAG_member
    1190                      .dwattr $C$DW$113, DW_AT_type(*$C$DW$T$19)
    1191                      .dwattr $C$DW$113, DW_AT_name("Kp")
    1192                      .dwattr $C$DW$113, DW_AT_TI_symbol_name("_Kp")
    1193                      .dwattr $C$DW$113, DW_AT_data_member_location[DW_OP_plus_uconst 0x2]
    1194                      .dwattr $C$DW$113, DW_AT_accessibility(DW_ACCESS_public)
    1195              
    1196              $C$DW$114       .dwtag  DW_TAG_member
    1197                      .dwattr $C$DW$114, DW_AT_type(*$C$DW$T$19)
    1198                      .dwattr $C$DW$114, DW_AT_name("Ki")
    1199                      .dwattr $C$DW$114, DW_AT_TI_symbol_name("_Ki")
    1200                      .dwattr $C$DW$114, DW_AT_data_member_location[DW_OP_plus_uconst 0x4]
    1201                      .dwattr $C$DW$114, DW_AT_accessibility(DW_ACCESS_public)
    1202              
    1203              $C$DW$115       .dwtag  DW_TAG_member
    1204                      .dwattr $C$DW$115, DW_AT_type(*$C$DW$T$19)
    1205                      .dwattr $C$DW$115, DW_AT_name("Kd")
    1206                      .dwattr $C$DW$115, DW_AT_TI_symbol_name("_Kd")
    1207                      .dwattr $C$DW$115, DW_AT_data_member_location[DW_OP_plus_uconst 0x6]
    1208                      .dwattr $C$DW$115, DW_AT_accessibility(DW_ACCESS_public)
    1209              
    1210              $C$DW$116       .dwtag  DW_TAG_member
    1211                      .dwattr $C$DW$116, DW_AT_type(*$C$DW$T$19)
    1212                      .dwattr $C$DW$116, DW_AT_name("Km")
    1213                      .dwattr $C$DW$116, DW_AT_TI_symbol_name("_Km")
    1214                      .dwattr $C$DW$116, DW_AT_data_member_location[DW_OP_plus_uconst 0x8]
    1215                      .dwattr $C$DW$116, DW_AT_accessibility(DW_ACCESS_public)
    1216              
    1217              $C$DW$117       .dwtag  DW_TAG_member
    1218                      .dwattr $C$DW$117, DW_AT_type(*$C$DW$T$19)
    1219                      .dwattr $C$DW$117, DW_AT_name("Umax")
    1220                      .dwattr $C$DW$117, DW_AT_TI_symbol_name("_Umax")
    1221                      .dwattr $C$DW$117, DW_AT_data_member_location[DW_OP_plus_uconst 0xa]
    1222                      .dwattr $C$DW$117, DW_AT_accessibility(DW_ACCESS_public)
    1223              
    1224              $C$DW$118       .dwtag  DW_TAG_member
    1225                      .dwattr $C$DW$118, DW_AT_type(*$C$DW$T$19)
    1226                      .dwattr $C$DW$118, DW_AT_name("Umin")
    1227                      .dwattr $C$DW$118, DW_AT_TI_symbol_name("_Umin")
    1228                      .dwattr $C$DW$118, DW_AT_data_member_location[DW_OP_plus_uconst 0xc]
    1229                      .dwattr $C$DW$118, DW_AT_accessibility(DW_ACCESS_public)
    1230              
    1231              $C$DW$119       .dwtag  DW_TAG_member
    1232                      .dwattr $C$DW$119, DW_AT_type(*$C$DW$T$19)
    1233                      .dwattr $C$DW$119, DW_AT_name("T")
    1234                      .dwattr $C$DW$119, DW_AT_TI_symbol_name("_T")
    1235                      .dwattr $C$DW$119, DW_AT_data_member_location[DW_OP_plus_uconst 0xe]
    1236                      .dwattr $C$DW$119, DW_AT_accessibility(DW_ACCESS_public)
    1237              
    1238              $C$DW$120       .dwtag  DW_TAG_member
    1239                      .dwattr $C$DW$120, DW_AT_type(*$C$DW$T$19)
    1240                      .dwattr $C$DW$120, DW_AT_name("divT")
    1241                      .dwattr $C$DW$120, DW_AT_TI_symbol_name("_divT")
    1242                      .dwattr $C$DW$120, DW_AT_data_member_location[DW_OP_plus_uconst 0x10]
    1243                      .dwattr $C$DW$120, DW_AT_accessibility(DW_ACCESS_public)
TMS320C2000 Assembler PC v20.2.5 Fri Jan  6 17:23:28 2023

Copyright (c) 1996-2018 Texas Instruments Incorporated
DRV830x_SPI.asm                                                      PAGE   24

    1244              
    1245              $C$DW$121       .dwtag  DW_TAG_member
    1246                      .dwattr $C$DW$121, DW_AT_type(*$C$DW$T$19)
    1247                      .dwattr $C$DW$121, DW_AT_name("Kt")
    1248                      .dwattr $C$DW$121, DW_AT_TI_symbol_name("_Kt")
    1249                      .dwattr $C$DW$121, DW_AT_data_member_location[DW_OP_plus_uconst 0x12]
    1250                      .dwattr $C$DW$121, DW_AT_accessibility(DW_ACCESS_public)
    1251              
    1252                      .dwendtag $C$DW$T$32
    1253              
    1254              $C$DW$T$35      .dwtag  DW_TAG_typedef
    1255                      .dwattr $C$DW$T$35, DW_AT_name("PI_PARAMETERS")
    1256                      .dwattr $C$DW$T$35, DW_AT_type(*$C$DW$T$32)
    1257                      .dwattr $C$DW$T$35, DW_AT_language(DW_LANG_C)
    1258              
    1259              
    1260              $C$DW$T$33      .dwtag  DW_TAG_structure_type
    1261                      .dwattr $C$DW$T$33, DW_AT_byte_size(0x0a)
    1262              $C$DW$122       .dwtag  DW_TAG_member
    1263                      .dwattr $C$DW$122, DW_AT_type(*$C$DW$T$19)
    1264                      .dwattr $C$DW$122, DW_AT_name("up")
    1265                      .dwattr $C$DW$122, DW_AT_TI_symbol_name("_up")
    1266                      .dwattr $C$DW$122, DW_AT_data_member_location[DW_OP_plus_uconst 0x0]
    1267                      .dwattr $C$DW$122, DW_AT_accessibility(DW_ACCESS_public)
    1268              
    1269              $C$DW$123       .dwtag  DW_TAG_member
    1270                      .dwattr $C$DW$123, DW_AT_type(*$C$DW$T$19)
    1271                      .dwattr $C$DW$123, DW_AT_name("ui")
    1272                      .dwattr $C$DW$123, DW_AT_TI_symbol_name("_ui")
    1273                      .dwattr $C$DW$123, DW_AT_data_member_location[DW_OP_plus_uconst 0x2]
    1274                      .dwattr $C$DW$123, DW_AT_accessibility(DW_ACCESS_public)
    1275              
    1276              $C$DW$124       .dwtag  DW_TAG_member
    1277                      .dwattr $C$DW$124, DW_AT_type(*$C$DW$T$19)
    1278                      .dwattr $C$DW$124, DW_AT_name("v1")
    1279                      .dwattr $C$DW$124, DW_AT_TI_symbol_name("_v1")
    1280                      .dwattr $C$DW$124, DW_AT_data_member_location[DW_OP_plus_uconst 0x4]
    1281                      .dwattr $C$DW$124, DW_AT_accessibility(DW_ACCESS_public)
    1282              
    1283              $C$DW$125       .dwtag  DW_TAG_member
    1284                      .dwattr $C$DW$125, DW_AT_type(*$C$DW$T$19)
    1285                      .dwattr $C$DW$125, DW_AT_name("i1")
    1286                      .dwattr $C$DW$125, DW_AT_TI_symbol_name("_i1")
    1287                      .dwattr $C$DW$125, DW_AT_data_member_location[DW_OP_plus_uconst 0x6]
    1288                      .dwattr $C$DW$125, DW_AT_accessibility(DW_ACCESS_public)
    1289              
    1290              $C$DW$126       .dwtag  DW_TAG_member
    1291                      .dwattr $C$DW$126, DW_AT_type(*$C$DW$T$19)
    1292                      .dwattr $C$DW$126, DW_AT_name("w1")
    1293                      .dwattr $C$DW$126, DW_AT_TI_symbol_name("_w1")
    1294                      .dwattr $C$DW$126, DW_AT_data_member_location[DW_OP_plus_uconst 0x8]
    1295                      .dwattr $C$DW$126, DW_AT_accessibility(DW_ACCESS_public)
    1296              
    1297                      .dwendtag $C$DW$T$33
    1298              
TMS320C2000 Assembler PC v20.2.5 Fri Jan  6 17:23:28 2023

Copyright (c) 1996-2018 Texas Instruments Incorporated
DRV830x_SPI.asm                                                      PAGE   25

    1299              $C$DW$T$36      .dwtag  DW_TAG_typedef
    1300                      .dwattr $C$DW$T$36, DW_AT_name("PI_DATA")
    1301                      .dwattr $C$DW$T$36, DW_AT_type(*$C$DW$T$33)
    1302                      .dwattr $C$DW$T$36, DW_AT_language(DW_LANG_C)
    1303              
    1304              
    1305              $C$DW$T$37      .dwtag  DW_TAG_structure_type
    1306                      .dwattr $C$DW$T$37, DW_AT_byte_size(0x28)
    1307              $C$DW$127       .dwtag  DW_TAG_member
    1308                      .dwattr $C$DW$127, DW_AT_type(*$C$DW$T$34)
    1309                      .dwattr $C$DW$127, DW_AT_name("term")
    1310                      .dwattr $C$DW$127, DW_AT_TI_symbol_name("_term")
    1311                      .dwattr $C$DW$127, DW_AT_data_member_location[DW_OP_plus_uconst 0x0]
    1312                      .dwattr $C$DW$127, DW_AT_accessibility(DW_ACCESS_public)
    1313              
    1314              $C$DW$128       .dwtag  DW_TAG_member
    1315                      .dwattr $C$DW$128, DW_AT_type(*$C$DW$T$35)
    1316                      .dwattr $C$DW$128, DW_AT_name("param")
    1317                      .dwattr $C$DW$128, DW_AT_TI_symbol_name("_param")
    1318                      .dwattr $C$DW$128, DW_AT_data_member_location[DW_OP_plus_uconst 0xa]
    1319                      .dwattr $C$DW$128, DW_AT_accessibility(DW_ACCESS_public)
    1320              
    1321              $C$DW$129       .dwtag  DW_TAG_member
    1322                      .dwattr $C$DW$129, DW_AT_type(*$C$DW$T$36)
    1323                      .dwattr $C$DW$129, DW_AT_name("data")
    1324                      .dwattr $C$DW$129, DW_AT_TI_symbol_name("_data")
    1325                      .dwattr $C$DW$129, DW_AT_data_member_location[DW_OP_plus_uconst 0x1e]
    1326                      .dwattr $C$DW$129, DW_AT_accessibility(DW_ACCESS_public)
    1327              
    1328                      .dwendtag $C$DW$T$37
    1329              
    1330              $C$DW$T$80      .dwtag  DW_TAG_typedef
    1331                      .dwattr $C$DW$T$80, DW_AT_name("PI_SPEED_CONTROLLER")
    1332                      .dwattr $C$DW$T$80, DW_AT_type(*$C$DW$T$37)
    1333                      .dwattr $C$DW$T$80, DW_AT_language(DW_LANG_C)
    1334              
    1335              
    1336              $C$DW$T$39      .dwtag  DW_TAG_structure_type
    1337                      .dwattr $C$DW$T$39, DW_AT_byte_size(0x12)
    1338              $C$DW$130       .dwtag  DW_TAG_member
    1339                      .dwattr $C$DW$130, DW_AT_type(*$C$DW$T$19)
    1340                      .dwattr $C$DW$130, DW_AT_name("Ualpha")
    1341                      .dwattr $C$DW$130, DW_AT_TI_symbol_name("_Ualpha")
    1342                      .dwattr $C$DW$130, DW_AT_data_member_location[DW_OP_plus_uconst 0x0]
    1343                      .dwattr $C$DW$130, DW_AT_accessibility(DW_ACCESS_public)
    1344              
    1345              $C$DW$131       .dwtag  DW_TAG_member
    1346                      .dwattr $C$DW$131, DW_AT_type(*$C$DW$T$19)
    1347                      .dwattr $C$DW$131, DW_AT_name("Ubeta")
    1348                      .dwattr $C$DW$131, DW_AT_TI_symbol_name("_Ubeta")
    1349                      .dwattr $C$DW$131, DW_AT_data_member_location[DW_OP_plus_uconst 0x2]
    1350                      .dwattr $C$DW$131, DW_AT_accessibility(DW_ACCESS_public)
    1351              
    1352              $C$DW$132       .dwtag  DW_TAG_member
    1353                      .dwattr $C$DW$132, DW_AT_type(*$C$DW$T$19)
TMS320C2000 Assembler PC v20.2.5 Fri Jan  6 17:23:28 2023

Copyright (c) 1996-2018 Texas Instruments Incorporated
DRV830x_SPI.asm                                                      PAGE   26

    1354                      .dwattr $C$DW$132, DW_AT_name("Ta")
    1355                      .dwattr $C$DW$132, DW_AT_TI_symbol_name("_Ta")
    1356                      .dwattr $C$DW$132, DW_AT_data_member_location[DW_OP_plus_uconst 0x4]
    1357                      .dwattr $C$DW$132, DW_AT_accessibility(DW_ACCESS_public)
    1358              
    1359              $C$DW$133       .dwtag  DW_TAG_member
    1360                      .dwattr $C$DW$133, DW_AT_type(*$C$DW$T$19)
    1361                      .dwattr $C$DW$133, DW_AT_name("Tb")
    1362                      .dwattr $C$DW$133, DW_AT_TI_symbol_name("_Tb")
    1363                      .dwattr $C$DW$133, DW_AT_data_member_location[DW_OP_plus_uconst 0x6]
    1364                      .dwattr $C$DW$133, DW_AT_accessibility(DW_ACCESS_public)
    1365              
    1366              $C$DW$134       .dwtag  DW_TAG_member
    1367                      .dwattr $C$DW$134, DW_AT_type(*$C$DW$T$19)
    1368                      .dwattr $C$DW$134, DW_AT_name("Tc")
    1369                      .dwattr $C$DW$134, DW_AT_TI_symbol_name("_Tc")
    1370                      .dwattr $C$DW$134, DW_AT_data_member_location[DW_OP_plus_uconst 0x8]
    1371                      .dwattr $C$DW$134, DW_AT_accessibility(DW_ACCESS_public)
    1372              
    1373              $C$DW$135       .dwtag  DW_TAG_member
    1374                      .dwattr $C$DW$135, DW_AT_type(*$C$DW$T$19)
    1375                      .dwattr $C$DW$135, DW_AT_name("tmp1")
    1376                      .dwattr $C$DW$135, DW_AT_TI_symbol_name("_tmp1")
    1377                      .dwattr $C$DW$135, DW_AT_data_member_location[DW_OP_plus_uconst 0xa]
    1378                      .dwattr $C$DW$135, DW_AT_accessibility(DW_ACCESS_public)
    1379              
    1380              $C$DW$136       .dwtag  DW_TAG_member
    1381                      .dwattr $C$DW$136, DW_AT_type(*$C$DW$T$19)
    1382                      .dwattr $C$DW$136, DW_AT_name("tmp2")
    1383                      .dwattr $C$DW$136, DW_AT_TI_symbol_name("_tmp2")
    1384                      .dwattr $C$DW$136, DW_AT_data_member_location[DW_OP_plus_uconst 0xc]
    1385                      .dwattr $C$DW$136, DW_AT_accessibility(DW_ACCESS_public)
    1386              
    1387              $C$DW$137       .dwtag  DW_TAG_member
    1388                      .dwattr $C$DW$137, DW_AT_type(*$C$DW$T$19)
    1389                      .dwattr $C$DW$137, DW_AT_name("tmp3")
    1390                      .dwattr $C$DW$137, DW_AT_TI_symbol_name("_tmp3")
    1391                      .dwattr $C$DW$137, DW_AT_data_member_location[DW_OP_plus_uconst 0xe]
    1392                      .dwattr $C$DW$137, DW_AT_accessibility(DW_ACCESS_public)
    1393              
    1394              $C$DW$138       .dwtag  DW_TAG_member
    1395                      .dwattr $C$DW$138, DW_AT_type(*$C$DW$T$38)
    1396                      .dwattr $C$DW$138, DW_AT_name("VecSector")
    1397                      .dwattr $C$DW$138, DW_AT_TI_symbol_name("_VecSector")
    1398                      .dwattr $C$DW$138, DW_AT_data_member_location[DW_OP_plus_uconst 0x10]
    1399                      .dwattr $C$DW$138, DW_AT_accessibility(DW_ACCESS_public)
    1400              
    1401                      .dwendtag $C$DW$T$39
    1402              
    1403              $C$DW$T$81      .dwtag  DW_TAG_typedef
    1404                      .dwattr $C$DW$T$81, DW_AT_name("SVGEN")
    1405                      .dwattr $C$DW$T$81, DW_AT_type(*$C$DW$T$39)
    1406                      .dwattr $C$DW$T$81, DW_AT_language(DW_LANG_C)
    1407              
    1408              
TMS320C2000 Assembler PC v20.2.5 Fri Jan  6 17:23:28 2023

Copyright (c) 1996-2018 Texas Instruments Incorporated
DRV830x_SPI.asm                                                      PAGE   27

    1409              $C$DW$T$41      .dwtag  DW_TAG_structure_type
    1410                      .dwattr $C$DW$T$41, DW_AT_byte_size(0x10)
    1411              $C$DW$139       .dwtag  DW_TAG_member
    1412                      .dwattr $C$DW$139, DW_AT_type(*$C$DW$T$19)
    1413                      .dwattr $C$DW$139, DW_AT_name("TargetValue")
    1414                      .dwattr $C$DW$139, DW_AT_TI_symbol_name("_TargetValue")
    1415                      .dwattr $C$DW$139, DW_AT_data_member_location[DW_OP_plus_uconst 0x0]
    1416                      .dwattr $C$DW$139, DW_AT_accessibility(DW_ACCESS_public)
    1417              
    1418              $C$DW$140       .dwtag  DW_TAG_member
    1419                      .dwattr $C$DW$140, DW_AT_type(*$C$DW$T$40)
    1420                      .dwattr $C$DW$140, DW_AT_name("RampDelayMax")
    1421                      .dwattr $C$DW$140, DW_AT_TI_symbol_name("_RampDelayMax")
    1422                      .dwattr $C$DW$140, DW_AT_data_member_location[DW_OP_plus_uconst 0x2]
    1423                      .dwattr $C$DW$140, DW_AT_accessibility(DW_ACCESS_public)
    1424              
    1425              $C$DW$141       .dwtag  DW_TAG_member
    1426                      .dwattr $C$DW$141, DW_AT_type(*$C$DW$T$19)
    1427                      .dwattr $C$DW$141, DW_AT_name("RampLowLimit")
    1428                      .dwattr $C$DW$141, DW_AT_TI_symbol_name("_RampLowLimit")
    1429                      .dwattr $C$DW$141, DW_AT_data_member_location[DW_OP_plus_uconst 0x4]
    1430                      .dwattr $C$DW$141, DW_AT_accessibility(DW_ACCESS_public)
    1431              
    1432              $C$DW$142       .dwtag  DW_TAG_member
    1433                      .dwattr $C$DW$142, DW_AT_type(*$C$DW$T$19)
    1434                      .dwattr $C$DW$142, DW_AT_name("RampHighLimit")
    1435                      .dwattr $C$DW$142, DW_AT_TI_symbol_name("_RampHighLimit")
    1436                      .dwattr $C$DW$142, DW_AT_data_member_location[DW_OP_plus_uconst 0x6]
    1437                      .dwattr $C$DW$142, DW_AT_accessibility(DW_ACCESS_public)
    1438              
    1439              $C$DW$143       .dwtag  DW_TAG_member
    1440                      .dwattr $C$DW$143, DW_AT_type(*$C$DW$T$40)
    1441                      .dwattr $C$DW$143, DW_AT_name("RampDelayCount")
    1442                      .dwattr $C$DW$143, DW_AT_TI_symbol_name("_RampDelayCount")
    1443                      .dwattr $C$DW$143, DW_AT_data_member_location[DW_OP_plus_uconst 0x8]
    1444                      .dwattr $C$DW$143, DW_AT_accessibility(DW_ACCESS_public)
    1445              
    1446              $C$DW$144       .dwtag  DW_TAG_member
    1447                      .dwattr $C$DW$144, DW_AT_type(*$C$DW$T$19)
    1448                      .dwattr $C$DW$144, DW_AT_name("SetpointValue")
    1449                      .dwattr $C$DW$144, DW_AT_TI_symbol_name("_SetpointValue")
    1450                      .dwattr $C$DW$144, DW_AT_data_member_location[DW_OP_plus_uconst 0xa]
    1451                      .dwattr $C$DW$144, DW_AT_accessibility(DW_ACCESS_public)
    1452              
    1453              $C$DW$145       .dwtag  DW_TAG_member
    1454                      .dwattr $C$DW$145, DW_AT_type(*$C$DW$T$40)
    1455                      .dwattr $C$DW$145, DW_AT_name("EqualFlag")
    1456                      .dwattr $C$DW$145, DW_AT_TI_symbol_name("_EqualFlag")
    1457                      .dwattr $C$DW$145, DW_AT_data_member_location[DW_OP_plus_uconst 0xc]
    1458                      .dwattr $C$DW$145, DW_AT_accessibility(DW_ACCESS_public)
    1459              
    1460              $C$DW$146       .dwtag  DW_TAG_member
    1461                      .dwattr $C$DW$146, DW_AT_type(*$C$DW$T$19)
    1462                      .dwattr $C$DW$146, DW_AT_name("Tmp")
    1463                      .dwattr $C$DW$146, DW_AT_TI_symbol_name("_Tmp")
TMS320C2000 Assembler PC v20.2.5 Fri Jan  6 17:23:28 2023

Copyright (c) 1996-2018 Texas Instruments Incorporated
DRV830x_SPI.asm                                                      PAGE   28

    1464                      .dwattr $C$DW$146, DW_AT_data_member_location[DW_OP_plus_uconst 0xe]
    1465                      .dwattr $C$DW$146, DW_AT_accessibility(DW_ACCESS_public)
    1466              
    1467                      .dwendtag $C$DW$T$41
    1468              
    1469              $C$DW$T$82      .dwtag  DW_TAG_typedef
    1470                      .dwattr $C$DW$T$82, DW_AT_name("RMPCNTL")
    1471                      .dwattr $C$DW$T$82, DW_AT_type(*$C$DW$T$41)
    1472                      .dwattr $C$DW$T$82, DW_AT_language(DW_LANG_C)
    1473              
    1474              
    1475              $C$DW$T$42      .dwtag  DW_TAG_structure_type
    1476                      .dwattr $C$DW$T$42, DW_AT_byte_size(0x0c)
    1477              $C$DW$147       .dwtag  DW_TAG_member
    1478                      .dwattr $C$DW$147, DW_AT_type(*$C$DW$T$19)
    1479                      .dwattr $C$DW$147, DW_AT_name("Freq")
    1480                      .dwattr $C$DW$147, DW_AT_TI_symbol_name("_Freq")
    1481                      .dwattr $C$DW$147, DW_AT_data_member_location[DW_OP_plus_uconst 0x0]
    1482                      .dwattr $C$DW$147, DW_AT_accessibility(DW_ACCESS_public)
    1483              
    1484              $C$DW$148       .dwtag  DW_TAG_member
    1485                      .dwattr $C$DW$148, DW_AT_type(*$C$DW$T$19)
    1486                      .dwattr $C$DW$148, DW_AT_name("StepAngleMax")
    1487                      .dwattr $C$DW$148, DW_AT_TI_symbol_name("_StepAngleMax")
    1488                      .dwattr $C$DW$148, DW_AT_data_member_location[DW_OP_plus_uconst 0x2]
    1489                      .dwattr $C$DW$148, DW_AT_accessibility(DW_ACCESS_public)
    1490              
    1491              $C$DW$149       .dwtag  DW_TAG_member
    1492                      .dwattr $C$DW$149, DW_AT_type(*$C$DW$T$19)
    1493                      .dwattr $C$DW$149, DW_AT_name("Angle")
    1494                      .dwattr $C$DW$149, DW_AT_TI_symbol_name("_Angle")
    1495                      .dwattr $C$DW$149, DW_AT_data_member_location[DW_OP_plus_uconst 0x4]
    1496                      .dwattr $C$DW$149, DW_AT_accessibility(DW_ACCESS_public)
    1497              
    1498              $C$DW$150       .dwtag  DW_TAG_member
    1499                      .dwattr $C$DW$150, DW_AT_type(*$C$DW$T$19)
    1500                      .dwattr $C$DW$150, DW_AT_name("Gain")
    1501                      .dwattr $C$DW$150, DW_AT_TI_symbol_name("_Gain")
    1502                      .dwattr $C$DW$150, DW_AT_data_member_location[DW_OP_plus_uconst 0x6]
    1503                      .dwattr $C$DW$150, DW_AT_accessibility(DW_ACCESS_public)
    1504              
    1505              $C$DW$151       .dwtag  DW_TAG_member
    1506                      .dwattr $C$DW$151, DW_AT_type(*$C$DW$T$19)
    1507                      .dwattr $C$DW$151, DW_AT_name("Out")
    1508                      .dwattr $C$DW$151, DW_AT_TI_symbol_name("_Out")
    1509                      .dwattr $C$DW$151, DW_AT_data_member_location[DW_OP_plus_uconst 0x8]
    1510                      .dwattr $C$DW$151, DW_AT_accessibility(DW_ACCESS_public)
    1511              
    1512              $C$DW$152       .dwtag  DW_TAG_member
    1513                      .dwattr $C$DW$152, DW_AT_type(*$C$DW$T$19)
    1514                      .dwattr $C$DW$152, DW_AT_name("Offset")
    1515                      .dwattr $C$DW$152, DW_AT_TI_symbol_name("_Offset")
    1516                      .dwattr $C$DW$152, DW_AT_data_member_location[DW_OP_plus_uconst 0xa]
    1517                      .dwattr $C$DW$152, DW_AT_accessibility(DW_ACCESS_public)
    1518              
TMS320C2000 Assembler PC v20.2.5 Fri Jan  6 17:23:28 2023

Copyright (c) 1996-2018 Texas Instruments Incorporated
DRV830x_SPI.asm                                                      PAGE   29

    1519                      .dwendtag $C$DW$T$42
    1520              
    1521              $C$DW$T$83      .dwtag  DW_TAG_typedef
    1522                      .dwattr $C$DW$T$83, DW_AT_name("RAMPGEN")
    1523                      .dwattr $C$DW$T$83, DW_AT_type(*$C$DW$T$42)
    1524                      .dwattr $C$DW$T$83, DW_AT_language(DW_LANG_C)
    1525              
    1526              
    1527              $C$DW$T$43      .dwtag  DW_TAG_structure_type
    1528                      .dwattr $C$DW$T$43, DW_AT_byte_size(0x16)
    1529              $C$DW$153       .dwtag  DW_TAG_member
    1530                      .dwattr $C$DW$153, DW_AT_type(*$C$DW$T$19)
    1531                      .dwattr $C$DW$153, DW_AT_name("DcBusVolt")
    1532                      .dwattr $C$DW$153, DW_AT_TI_symbol_name("_DcBusVolt")
    1533                      .dwattr $C$DW$153, DW_AT_data_member_location[DW_OP_plus_uconst 0x0]
    1534                      .dwattr $C$DW$153, DW_AT_accessibility(DW_ACCESS_public)
    1535              
    1536              $C$DW$154       .dwtag  DW_TAG_member
    1537                      .dwattr $C$DW$154, DW_AT_type(*$C$DW$T$19)
    1538                      .dwattr $C$DW$154, DW_AT_name("MfuncV1")
    1539                      .dwattr $C$DW$154, DW_AT_TI_symbol_name("_MfuncV1")
    1540                      .dwattr $C$DW$154, DW_AT_data_member_location[DW_OP_plus_uconst 0x2]
    1541                      .dwattr $C$DW$154, DW_AT_accessibility(DW_ACCESS_public)
    1542              
    1543              $C$DW$155       .dwtag  DW_TAG_member
    1544                      .dwattr $C$DW$155, DW_AT_type(*$C$DW$T$19)
    1545                      .dwattr $C$DW$155, DW_AT_name("MfuncV2")
    1546                      .dwattr $C$DW$155, DW_AT_TI_symbol_name("_MfuncV2")
    1547                      .dwattr $C$DW$155, DW_AT_data_member_location[DW_OP_plus_uconst 0x4]
    1548                      .dwattr $C$DW$155, DW_AT_accessibility(DW_ACCESS_public)
    1549              
    1550              $C$DW$156       .dwtag  DW_TAG_member
    1551                      .dwattr $C$DW$156, DW_AT_type(*$C$DW$T$19)
    1552                      .dwattr $C$DW$156, DW_AT_name("MfuncV3")
    1553                      .dwattr $C$DW$156, DW_AT_TI_symbol_name("_MfuncV3")
    1554                      .dwattr $C$DW$156, DW_AT_data_member_location[DW_OP_plus_uconst 0x6]
    1555                      .dwattr $C$DW$156, DW_AT_accessibility(DW_ACCESS_public)
    1556              
    1557              $C$DW$157       .dwtag  DW_TAG_member
    1558                      .dwattr $C$DW$157, DW_AT_type(*$C$DW$T$38)
    1559                      .dwattr $C$DW$157, DW_AT_name("OutOfPhase")
    1560                      .dwattr $C$DW$157, DW_AT_TI_symbol_name("_OutOfPhase")
    1561                      .dwattr $C$DW$157, DW_AT_data_member_location[DW_OP_plus_uconst 0x8]
    1562                      .dwattr $C$DW$157, DW_AT_accessibility(DW_ACCESS_public)
    1563              
    1564              $C$DW$158       .dwtag  DW_TAG_member
    1565                      .dwattr $C$DW$158, DW_AT_type(*$C$DW$T$19)
    1566                      .dwattr $C$DW$158, DW_AT_name("VphaseA")
    1567                      .dwattr $C$DW$158, DW_AT_TI_symbol_name("_VphaseA")
    1568                      .dwattr $C$DW$158, DW_AT_data_member_location[DW_OP_plus_uconst 0xa]
    1569                      .dwattr $C$DW$158, DW_AT_accessibility(DW_ACCESS_public)
    1570              
    1571              $C$DW$159       .dwtag  DW_TAG_member
    1572                      .dwattr $C$DW$159, DW_AT_type(*$C$DW$T$19)
    1573                      .dwattr $C$DW$159, DW_AT_name("VphaseB")
TMS320C2000 Assembler PC v20.2.5 Fri Jan  6 17:23:28 2023

Copyright (c) 1996-2018 Texas Instruments Incorporated
DRV830x_SPI.asm                                                      PAGE   30

    1574                      .dwattr $C$DW$159, DW_AT_TI_symbol_name("_VphaseB")
    1575                      .dwattr $C$DW$159, DW_AT_data_member_location[DW_OP_plus_uconst 0xc]
    1576                      .dwattr $C$DW$159, DW_AT_accessibility(DW_ACCESS_public)
    1577              
    1578              $C$DW$160       .dwtag  DW_TAG_member
    1579                      .dwattr $C$DW$160, DW_AT_type(*$C$DW$T$19)
    1580                      .dwattr $C$DW$160, DW_AT_name("VphaseC")
    1581                      .dwattr $C$DW$160, DW_AT_TI_symbol_name("_VphaseC")
    1582                      .dwattr $C$DW$160, DW_AT_data_member_location[DW_OP_plus_uconst 0xe]
    1583                      .dwattr $C$DW$160, DW_AT_accessibility(DW_ACCESS_public)
    1584              
    1585              $C$DW$161       .dwtag  DW_TAG_member
    1586                      .dwattr $C$DW$161, DW_AT_type(*$C$DW$T$19)
    1587                      .dwattr $C$DW$161, DW_AT_name("Valpha")
    1588                      .dwattr $C$DW$161, DW_AT_TI_symbol_name("_Valpha")
    1589                      .dwattr $C$DW$161, DW_AT_data_member_location[DW_OP_plus_uconst 0x10]
    1590                      .dwattr $C$DW$161, DW_AT_accessibility(DW_ACCESS_public)
    1591              
    1592              $C$DW$162       .dwtag  DW_TAG_member
    1593                      .dwattr $C$DW$162, DW_AT_type(*$C$DW$T$19)
    1594                      .dwattr $C$DW$162, DW_AT_name("Vbeta")
    1595                      .dwattr $C$DW$162, DW_AT_TI_symbol_name("_Vbeta")
    1596                      .dwattr $C$DW$162, DW_AT_data_member_location[DW_OP_plus_uconst 0x12]
    1597                      .dwattr $C$DW$162, DW_AT_accessibility(DW_ACCESS_public)
    1598              
    1599              $C$DW$163       .dwtag  DW_TAG_member
    1600                      .dwattr $C$DW$163, DW_AT_type(*$C$DW$T$19)
    1601                      .dwattr $C$DW$163, DW_AT_name("temp")
    1602                      .dwattr $C$DW$163, DW_AT_TI_symbol_name("_temp")
    1603                      .dwattr $C$DW$163, DW_AT_data_member_location[DW_OP_plus_uconst 0x14]
    1604                      .dwattr $C$DW$163, DW_AT_accessibility(DW_ACCESS_public)
    1605              
    1606                      .dwendtag $C$DW$T$43
    1607              
    1608              $C$DW$T$84      .dwtag  DW_TAG_typedef
    1609                      .dwattr $C$DW$T$84, DW_AT_name("PHASEVOLTAGE")
    1610                      .dwattr $C$DW$T$84, DW_AT_type(*$C$DW$T$43)
    1611                      .dwattr $C$DW$T$84, DW_AT_language(DW_LANG_C)
    1612              
    1613              
    1614              $C$DW$T$45      .dwtag  DW_TAG_structure_type
    1615                      .dwattr $C$DW$T$45, DW_AT_byte_size(0x0e)
    1616              $C$DW$164       .dwtag  DW_TAG_member
    1617                      .dwattr $C$DW$164, DW_AT_type(*$C$DW$T$44)
    1618                      .dwattr $C$DW$164, DW_AT_name("Rs")
    1619                      .dwattr $C$DW$164, DW_AT_TI_symbol_name("_Rs")
    1620                      .dwattr $C$DW$164, DW_AT_data_member_location[DW_OP_plus_uconst 0x0]
    1621                      .dwattr $C$DW$164, DW_AT_accessibility(DW_ACCESS_public)
    1622              
    1623              $C$DW$165       .dwtag  DW_TAG_member
    1624                      .dwattr $C$DW$165, DW_AT_type(*$C$DW$T$44)
    1625                      .dwattr $C$DW$165, DW_AT_name("Ls")
    1626                      .dwattr $C$DW$165, DW_AT_TI_symbol_name("_Ls")
    1627                      .dwattr $C$DW$165, DW_AT_data_member_location[DW_OP_plus_uconst 0x2]
    1628                      .dwattr $C$DW$165, DW_AT_accessibility(DW_ACCESS_public)
TMS320C2000 Assembler PC v20.2.5 Fri Jan  6 17:23:28 2023

Copyright (c) 1996-2018 Texas Instruments Incorporated
DRV830x_SPI.asm                                                      PAGE   31

    1629              
    1630              $C$DW$166       .dwtag  DW_TAG_member
    1631                      .dwattr $C$DW$166, DW_AT_type(*$C$DW$T$44)
    1632                      .dwattr $C$DW$166, DW_AT_name("Ib")
    1633                      .dwattr $C$DW$166, DW_AT_TI_symbol_name("_Ib")
    1634                      .dwattr $C$DW$166, DW_AT_data_member_location[DW_OP_plus_uconst 0x4]
    1635                      .dwattr $C$DW$166, DW_AT_accessibility(DW_ACCESS_public)
    1636              
    1637              $C$DW$167       .dwtag  DW_TAG_member
    1638                      .dwattr $C$DW$167, DW_AT_type(*$C$DW$T$44)
    1639                      .dwattr $C$DW$167, DW_AT_name("Vb")
    1640                      .dwattr $C$DW$167, DW_AT_TI_symbol_name("_Vb")
    1641                      .dwattr $C$DW$167, DW_AT_data_member_location[DW_OP_plus_uconst 0x6]
    1642                      .dwattr $C$DW$167, DW_AT_accessibility(DW_ACCESS_public)
    1643              
    1644              $C$DW$168       .dwtag  DW_TAG_member
    1645                      .dwattr $C$DW$168, DW_AT_type(*$C$DW$T$44)
    1646                      .dwattr $C$DW$168, DW_AT_name("Ts")
    1647                      .dwattr $C$DW$168, DW_AT_TI_symbol_name("_Ts")
    1648                      .dwattr $C$DW$168, DW_AT_data_member_location[DW_OP_plus_uconst 0x8]
    1649                      .dwattr $C$DW$168, DW_AT_accessibility(DW_ACCESS_public)
    1650              
    1651              $C$DW$169       .dwtag  DW_TAG_member
    1652                      .dwattr $C$DW$169, DW_AT_type(*$C$DW$T$44)
    1653                      .dwattr $C$DW$169, DW_AT_name("Fsmopos")
    1654                      .dwattr $C$DW$169, DW_AT_TI_symbol_name("_Fsmopos")
    1655                      .dwattr $C$DW$169, DW_AT_data_member_location[DW_OP_plus_uconst 0xa]
    1656                      .dwattr $C$DW$169, DW_AT_accessibility(DW_ACCESS_public)
    1657              
    1658              $C$DW$170       .dwtag  DW_TAG_member
    1659                      .dwattr $C$DW$170, DW_AT_type(*$C$DW$T$44)
    1660                      .dwattr $C$DW$170, DW_AT_name("Gsmopos")
    1661                      .dwattr $C$DW$170, DW_AT_TI_symbol_name("_Gsmopos")
    1662                      .dwattr $C$DW$170, DW_AT_data_member_location[DW_OP_plus_uconst 0xc]
    1663                      .dwattr $C$DW$170, DW_AT_accessibility(DW_ACCESS_public)
    1664              
    1665                      .dwendtag $C$DW$T$45
    1666              
    1667              $C$DW$T$85      .dwtag  DW_TAG_typedef
    1668                      .dwattr $C$DW$T$85, DW_AT_name("SMOPOS_CONST")
    1669                      .dwattr $C$DW$T$85, DW_AT_type(*$C$DW$T$45)
    1670                      .dwattr $C$DW$T$85, DW_AT_language(DW_LANG_C)
    1671              
    1672              
    1673              $C$DW$T$46      .dwtag  DW_TAG_structure_type
    1674                      .dwattr $C$DW$T$46, DW_AT_byte_size(0x24)
    1675              $C$DW$171       .dwtag  DW_TAG_member
    1676                      .dwattr $C$DW$171, DW_AT_type(*$C$DW$T$19)
    1677                      .dwattr $C$DW$171, DW_AT_name("Valpha")
    1678                      .dwattr $C$DW$171, DW_AT_TI_symbol_name("_Valpha")
    1679                      .dwattr $C$DW$171, DW_AT_data_member_location[DW_OP_plus_uconst 0x0]
    1680                      .dwattr $C$DW$171, DW_AT_accessibility(DW_ACCESS_public)
    1681              
    1682              $C$DW$172       .dwtag  DW_TAG_member
    1683                      .dwattr $C$DW$172, DW_AT_type(*$C$DW$T$19)
TMS320C2000 Assembler PC v20.2.5 Fri Jan  6 17:23:28 2023

Copyright (c) 1996-2018 Texas Instruments Incorporated
DRV830x_SPI.asm                                                      PAGE   32

    1684                      .dwattr $C$DW$172, DW_AT_name("Ealpha")
    1685                      .dwattr $C$DW$172, DW_AT_TI_symbol_name("_Ealpha")
    1686                      .dwattr $C$DW$172, DW_AT_data_member_location[DW_OP_plus_uconst 0x2]
    1687                      .dwattr $C$DW$172, DW_AT_accessibility(DW_ACCESS_public)
    1688              
    1689              $C$DW$173       .dwtag  DW_TAG_member
    1690                      .dwattr $C$DW$173, DW_AT_type(*$C$DW$T$19)
    1691                      .dwattr $C$DW$173, DW_AT_name("Zalpha")
    1692                      .dwattr $C$DW$173, DW_AT_TI_symbol_name("_Zalpha")
    1693                      .dwattr $C$DW$173, DW_AT_data_member_location[DW_OP_plus_uconst 0x4]
    1694                      .dwattr $C$DW$173, DW_AT_accessibility(DW_ACCESS_public)
    1695              
    1696              $C$DW$174       .dwtag  DW_TAG_member
    1697                      .dwattr $C$DW$174, DW_AT_type(*$C$DW$T$19)
    1698                      .dwattr $C$DW$174, DW_AT_name("Gsmopos")
    1699                      .dwattr $C$DW$174, DW_AT_TI_symbol_name("_Gsmopos")
    1700                      .dwattr $C$DW$174, DW_AT_data_member_location[DW_OP_plus_uconst 0x6]
    1701                      .dwattr $C$DW$174, DW_AT_accessibility(DW_ACCESS_public)
    1702              
    1703              $C$DW$175       .dwtag  DW_TAG_member
    1704                      .dwattr $C$DW$175, DW_AT_type(*$C$DW$T$19)
    1705                      .dwattr $C$DW$175, DW_AT_name("EstIalpha")
    1706                      .dwattr $C$DW$175, DW_AT_TI_symbol_name("_EstIalpha")
    1707                      .dwattr $C$DW$175, DW_AT_data_member_location[DW_OP_plus_uconst 0x8]
    1708                      .dwattr $C$DW$175, DW_AT_accessibility(DW_ACCESS_public)
    1709              
    1710              $C$DW$176       .dwtag  DW_TAG_member
    1711                      .dwattr $C$DW$176, DW_AT_type(*$C$DW$T$19)
    1712                      .dwattr $C$DW$176, DW_AT_name("Fsmopos")
    1713                      .dwattr $C$DW$176, DW_AT_TI_symbol_name("_Fsmopos")
    1714                      .dwattr $C$DW$176, DW_AT_data_member_location[DW_OP_plus_uconst 0xa]
    1715                      .dwattr $C$DW$176, DW_AT_accessibility(DW_ACCESS_public)
    1716              
    1717              $C$DW$177       .dwtag  DW_TAG_member
    1718                      .dwattr $C$DW$177, DW_AT_type(*$C$DW$T$19)
    1719                      .dwattr $C$DW$177, DW_AT_name("Vbeta")
    1720                      .dwattr $C$DW$177, DW_AT_TI_symbol_name("_Vbeta")
    1721                      .dwattr $C$DW$177, DW_AT_data_member_location[DW_OP_plus_uconst 0xc]
    1722                      .dwattr $C$DW$177, DW_AT_accessibility(DW_ACCESS_public)
    1723              
    1724              $C$DW$178       .dwtag  DW_TAG_member
    1725                      .dwattr $C$DW$178, DW_AT_type(*$C$DW$T$19)
    1726                      .dwattr $C$DW$178, DW_AT_name("Ebeta")
    1727                      .dwattr $C$DW$178, DW_AT_TI_symbol_name("_Ebeta")
    1728                      .dwattr $C$DW$178, DW_AT_data_member_location[DW_OP_plus_uconst 0xe]
    1729                      .dwattr $C$DW$178, DW_AT_accessibility(DW_ACCESS_public)
    1730              
    1731              $C$DW$179       .dwtag  DW_TAG_member
    1732                      .dwattr $C$DW$179, DW_AT_type(*$C$DW$T$19)
    1733                      .dwattr $C$DW$179, DW_AT_name("Zbeta")
    1734                      .dwattr $C$DW$179, DW_AT_TI_symbol_name("_Zbeta")
    1735                      .dwattr $C$DW$179, DW_AT_data_member_location[DW_OP_plus_uconst 0x10]
    1736                      .dwattr $C$DW$179, DW_AT_accessibility(DW_ACCESS_public)
    1737              
    1738              $C$DW$180       .dwtag  DW_TAG_member
TMS320C2000 Assembler PC v20.2.5 Fri Jan  6 17:23:28 2023

Copyright (c) 1996-2018 Texas Instruments Incorporated
DRV830x_SPI.asm                                                      PAGE   33

    1739                      .dwattr $C$DW$180, DW_AT_type(*$C$DW$T$19)
    1740                      .dwattr $C$DW$180, DW_AT_name("EstIbeta")
    1741                      .dwattr $C$DW$180, DW_AT_TI_symbol_name("_EstIbeta")
    1742                      .dwattr $C$DW$180, DW_AT_data_member_location[DW_OP_plus_uconst 0x12]
    1743                      .dwattr $C$DW$180, DW_AT_accessibility(DW_ACCESS_public)
    1744              
    1745              $C$DW$181       .dwtag  DW_TAG_member
    1746                      .dwattr $C$DW$181, DW_AT_type(*$C$DW$T$19)
    1747                      .dwattr $C$DW$181, DW_AT_name("Ialpha")
    1748                      .dwattr $C$DW$181, DW_AT_TI_symbol_name("_Ialpha")
    1749                      .dwattr $C$DW$181, DW_AT_data_member_location[DW_OP_plus_uconst 0x14]
    1750                      .dwattr $C$DW$181, DW_AT_accessibility(DW_ACCESS_public)
    1751              
    1752              $C$DW$182       .dwtag  DW_TAG_member
    1753                      .dwattr $C$DW$182, DW_AT_type(*$C$DW$T$19)
    1754                      .dwattr $C$DW$182, DW_AT_name("IalphaError")
    1755                      .dwattr $C$DW$182, DW_AT_TI_symbol_name("_IalphaError")
    1756                      .dwattr $C$DW$182, DW_AT_data_member_location[DW_OP_plus_uconst 0x16]
    1757                      .dwattr $C$DW$182, DW_AT_accessibility(DW_ACCESS_public)
    1758              
    1759              $C$DW$183       .dwtag  DW_TAG_member
    1760                      .dwattr $C$DW$183, DW_AT_type(*$C$DW$T$19)
    1761                      .dwattr $C$DW$183, DW_AT_name("Kslide")
    1762                      .dwattr $C$DW$183, DW_AT_TI_symbol_name("_Kslide")
    1763                      .dwattr $C$DW$183, DW_AT_data_member_location[DW_OP_plus_uconst 0x18]
    1764                      .dwattr $C$DW$183, DW_AT_accessibility(DW_ACCESS_public)
    1765              
    1766              $C$DW$184       .dwtag  DW_TAG_member
    1767                      .dwattr $C$DW$184, DW_AT_type(*$C$DW$T$19)
    1768                      .dwattr $C$DW$184, DW_AT_name("Ibeta")
    1769                      .dwattr $C$DW$184, DW_AT_TI_symbol_name("_Ibeta")
    1770                      .dwattr $C$DW$184, DW_AT_data_member_location[DW_OP_plus_uconst 0x1a]
    1771                      .dwattr $C$DW$184, DW_AT_accessibility(DW_ACCESS_public)
    1772              
    1773              $C$DW$185       .dwtag  DW_TAG_member
    1774                      .dwattr $C$DW$185, DW_AT_type(*$C$DW$T$19)
    1775                      .dwattr $C$DW$185, DW_AT_name("IbetaError")
    1776                      .dwattr $C$DW$185, DW_AT_TI_symbol_name("_IbetaError")
    1777                      .dwattr $C$DW$185, DW_AT_data_member_location[DW_OP_plus_uconst 0x1c]
    1778                      .dwattr $C$DW$185, DW_AT_accessibility(DW_ACCESS_public)
    1779              
    1780              $C$DW$186       .dwtag  DW_TAG_member
    1781                      .dwattr $C$DW$186, DW_AT_type(*$C$DW$T$19)
    1782                      .dwattr $C$DW$186, DW_AT_name("Kslf")
    1783                      .dwattr $C$DW$186, DW_AT_TI_symbol_name("_Kslf")
    1784                      .dwattr $C$DW$186, DW_AT_data_member_location[DW_OP_plus_uconst 0x1e]
    1785                      .dwattr $C$DW$186, DW_AT_accessibility(DW_ACCESS_public)
    1786              
    1787              $C$DW$187       .dwtag  DW_TAG_member
    1788                      .dwattr $C$DW$187, DW_AT_type(*$C$DW$T$19)
    1789                      .dwattr $C$DW$187, DW_AT_name("Theta")
    1790                      .dwattr $C$DW$187, DW_AT_TI_symbol_name("_Theta")
    1791                      .dwattr $C$DW$187, DW_AT_data_member_location[DW_OP_plus_uconst 0x20]
    1792                      .dwattr $C$DW$187, DW_AT_accessibility(DW_ACCESS_public)
    1793              
TMS320C2000 Assembler PC v20.2.5 Fri Jan  6 17:23:28 2023

Copyright (c) 1996-2018 Texas Instruments Incorporated
DRV830x_SPI.asm                                                      PAGE   34

    1794              $C$DW$188       .dwtag  DW_TAG_member
    1795                      .dwattr $C$DW$188, DW_AT_type(*$C$DW$T$19)
    1796                      .dwattr $C$DW$188, DW_AT_name("E0")
    1797                      .dwattr $C$DW$188, DW_AT_TI_symbol_name("_E0")
    1798                      .dwattr $C$DW$188, DW_AT_data_member_location[DW_OP_plus_uconst 0x22]
    1799                      .dwattr $C$DW$188, DW_AT_accessibility(DW_ACCESS_public)
    1800              
    1801                      .dwendtag $C$DW$T$46
    1802              
    1803              $C$DW$T$86      .dwtag  DW_TAG_typedef
    1804                      .dwattr $C$DW$T$86, DW_AT_name("SMOPOS")
    1805                      .dwattr $C$DW$T$86, DW_AT_type(*$C$DW$T$46)
    1806                      .dwattr $C$DW$T$86, DW_AT_language(DW_LANG_C)
    1807              
    1808              
    1809              $C$DW$T$49      .dwtag  DW_TAG_structure_type
    1810                      .dwattr $C$DW$T$49, DW_AT_byte_size(0x12)
    1811              $C$DW$189       .dwtag  DW_TAG_member
    1812                      .dwattr $C$DW$189, DW_AT_type(*$C$DW$T$19)
    1813                      .dwattr $C$DW$189, DW_AT_name("EstimatedTheta")
    1814                      .dwattr $C$DW$189, DW_AT_TI_symbol_name("_EstimatedTheta")
    1815                      .dwattr $C$DW$189, DW_AT_data_member_location[DW_OP_plus_uconst 0x0]
    1816                      .dwattr $C$DW$189, DW_AT_accessibility(DW_ACCESS_public)
    1817              
    1818              $C$DW$190       .dwtag  DW_TAG_member
    1819                      .dwattr $C$DW$190, DW_AT_type(*$C$DW$T$19)
    1820                      .dwattr $C$DW$190, DW_AT_name("OldEstimatedTheta")
    1821                      .dwattr $C$DW$190, DW_AT_TI_symbol_name("_OldEstimatedTheta")
    1822                      .dwattr $C$DW$190, DW_AT_data_member_location[DW_OP_plus_uconst 0x2]
    1823                      .dwattr $C$DW$190, DW_AT_accessibility(DW_ACCESS_public)
    1824              
    1825              $C$DW$191       .dwtag  DW_TAG_member
    1826                      .dwattr $C$DW$191, DW_AT_type(*$C$DW$T$19)
    1827                      .dwattr $C$DW$191, DW_AT_name("EstimatedSpeed")
    1828                      .dwattr $C$DW$191, DW_AT_TI_symbol_name("_EstimatedSpeed")
    1829                      .dwattr $C$DW$191, DW_AT_data_member_location[DW_OP_plus_uconst 0x4]
    1830                      .dwattr $C$DW$191, DW_AT_accessibility(DW_ACCESS_public)
    1831              
    1832              $C$DW$192       .dwtag  DW_TAG_member
    1833                      .dwattr $C$DW$192, DW_AT_type(*$C$DW$T$40)
    1834                      .dwattr $C$DW$192, DW_AT_name("BaseRpm")
    1835                      .dwattr $C$DW$192, DW_AT_TI_symbol_name("_BaseRpm")
    1836                      .dwattr $C$DW$192, DW_AT_data_member_location[DW_OP_plus_uconst 0x6]
    1837                      .dwattr $C$DW$192, DW_AT_accessibility(DW_ACCESS_public)
    1838              
    1839              $C$DW$193       .dwtag  DW_TAG_member
    1840                      .dwattr $C$DW$193, DW_AT_type(*$C$DW$T$47)
    1841                      .dwattr $C$DW$193, DW_AT_name("K1")
    1842                      .dwattr $C$DW$193, DW_AT_TI_symbol_name("_K1")
    1843                      .dwattr $C$DW$193, DW_AT_data_member_location[DW_OP_plus_uconst 0x8]
    1844                      .dwattr $C$DW$193, DW_AT_accessibility(DW_ACCESS_public)
    1845              
    1846              $C$DW$194       .dwtag  DW_TAG_member
    1847                      .dwattr $C$DW$194, DW_AT_type(*$C$DW$T$19)
    1848                      .dwattr $C$DW$194, DW_AT_name("K2")
TMS320C2000 Assembler PC v20.2.5 Fri Jan  6 17:23:28 2023

Copyright (c) 1996-2018 Texas Instruments Incorporated
DRV830x_SPI.asm                                                      PAGE   35

    1849                      .dwattr $C$DW$194, DW_AT_TI_symbol_name("_K2")
    1850                      .dwattr $C$DW$194, DW_AT_data_member_location[DW_OP_plus_uconst 0xa]
    1851                      .dwattr $C$DW$194, DW_AT_accessibility(DW_ACCESS_public)
    1852              
    1853              $C$DW$195       .dwtag  DW_TAG_member
    1854                      .dwattr $C$DW$195, DW_AT_type(*$C$DW$T$19)
    1855                      .dwattr $C$DW$195, DW_AT_name("K3")
    1856                      .dwattr $C$DW$195, DW_AT_TI_symbol_name("_K3")
    1857                      .dwattr $C$DW$195, DW_AT_data_member_location[DW_OP_plus_uconst 0xc]
    1858                      .dwattr $C$DW$195, DW_AT_accessibility(DW_ACCESS_public)
    1859              
    1860              $C$DW$196       .dwtag  DW_TAG_member
    1861                      .dwattr $C$DW$196, DW_AT_type(*$C$DW$T$48)
    1862                      .dwattr $C$DW$196, DW_AT_name("EstimatedSpeedRpm")
    1863                      .dwattr $C$DW$196, DW_AT_TI_symbol_name("_EstimatedSpeedRpm")
    1864                      .dwattr $C$DW$196, DW_AT_data_member_location[DW_OP_plus_uconst 0xe]
    1865                      .dwattr $C$DW$196, DW_AT_accessibility(DW_ACCESS_public)
    1866              
    1867              $C$DW$197       .dwtag  DW_TAG_member
    1868                      .dwattr $C$DW$197, DW_AT_type(*$C$DW$T$19)
    1869                      .dwattr $C$DW$197, DW_AT_name("Temp")
    1870                      .dwattr $C$DW$197, DW_AT_TI_symbol_name("_Temp")
    1871                      .dwattr $C$DW$197, DW_AT_data_member_location[DW_OP_plus_uconst 0x10]
    1872                      .dwattr $C$DW$197, DW_AT_accessibility(DW_ACCESS_public)
    1873              
    1874                      .dwendtag $C$DW$T$49
    1875              
    1876              $C$DW$T$87      .dwtag  DW_TAG_typedef
    1877                      .dwattr $C$DW$T$87, DW_AT_name("SPEED_ESTIMATION")
    1878                      .dwattr $C$DW$T$87, DW_AT_type(*$C$DW$T$49)
    1879                      .dwattr $C$DW$T$87, DW_AT_language(DW_LANG_C)
    1880              
    1881              
    1882              $C$DW$T$50      .dwtag  DW_TAG_structure_type
    1883                      .dwattr $C$DW$T$50, DW_AT_byte_size(0x14)
    1884              $C$DW$198       .dwtag  DW_TAG_member
    1885                      .dwattr $C$DW$198, DW_AT_type(*$C$DW$T$19)
    1886                      .dwattr $C$DW$198, DW_AT_name("ElecTheta")
    1887                      .dwattr $C$DW$198, DW_AT_TI_symbol_name("_ElecTheta")
    1888                      .dwattr $C$DW$198, DW_AT_data_member_location[DW_OP_plus_uconst 0x0]
    1889                      .dwattr $C$DW$198, DW_AT_accessibility(DW_ACCESS_public)
    1890              
    1891              $C$DW$199       .dwtag  DW_TAG_member
    1892                      .dwattr $C$DW$199, DW_AT_type(*$C$DW$T$40)
    1893                      .dwattr $C$DW$199, DW_AT_name("DirectionQep")
    1894                      .dwattr $C$DW$199, DW_AT_TI_symbol_name("_DirectionQep")
    1895                      .dwattr $C$DW$199, DW_AT_data_member_location[DW_OP_plus_uconst 0x2]
    1896                      .dwattr $C$DW$199, DW_AT_accessibility(DW_ACCESS_public)
    1897              
    1898              $C$DW$200       .dwtag  DW_TAG_member
    1899                      .dwattr $C$DW$200, DW_AT_type(*$C$DW$T$19)
    1900                      .dwattr $C$DW$200, DW_AT_name("OldElecTheta")
    1901                      .dwattr $C$DW$200, DW_AT_TI_symbol_name("_OldElecTheta")
    1902                      .dwattr $C$DW$200, DW_AT_data_member_location[DW_OP_plus_uconst 0x4]
    1903                      .dwattr $C$DW$200, DW_AT_accessibility(DW_ACCESS_public)
TMS320C2000 Assembler PC v20.2.5 Fri Jan  6 17:23:28 2023

Copyright (c) 1996-2018 Texas Instruments Incorporated
DRV830x_SPI.asm                                                      PAGE   36

    1904              
    1905              $C$DW$201       .dwtag  DW_TAG_member
    1906                      .dwattr $C$DW$201, DW_AT_type(*$C$DW$T$19)
    1907                      .dwattr $C$DW$201, DW_AT_name("Speed")
    1908                      .dwattr $C$DW$201, DW_AT_TI_symbol_name("_Speed")
    1909                      .dwattr $C$DW$201, DW_AT_data_member_location[DW_OP_plus_uconst 0x6]
    1910                      .dwattr $C$DW$201, DW_AT_accessibility(DW_ACCESS_public)
    1911              
    1912              $C$DW$202       .dwtag  DW_TAG_member
    1913                      .dwattr $C$DW$202, DW_AT_type(*$C$DW$T$40)
    1914                      .dwattr $C$DW$202, DW_AT_name("BaseRpm")
    1915                      .dwattr $C$DW$202, DW_AT_TI_symbol_name("_BaseRpm")
    1916                      .dwattr $C$DW$202, DW_AT_data_member_location[DW_OP_plus_uconst 0x8]
    1917                      .dwattr $C$DW$202, DW_AT_accessibility(DW_ACCESS_public)
    1918              
    1919              $C$DW$203       .dwtag  DW_TAG_member
    1920                      .dwattr $C$DW$203, DW_AT_type(*$C$DW$T$47)
    1921                      .dwattr $C$DW$203, DW_AT_name("K1")
    1922                      .dwattr $C$DW$203, DW_AT_TI_symbol_name("_K1")
    1923                      .dwattr $C$DW$203, DW_AT_data_member_location[DW_OP_plus_uconst 0xa]
    1924                      .dwattr $C$DW$203, DW_AT_accessibility(DW_ACCESS_public)
    1925              
    1926              $C$DW$204       .dwtag  DW_TAG_member
    1927                      .dwattr $C$DW$204, DW_AT_type(*$C$DW$T$19)
    1928                      .dwattr $C$DW$204, DW_AT_name("K2")
    1929                      .dwattr $C$DW$204, DW_AT_TI_symbol_name("_K2")
    1930                      .dwattr $C$DW$204, DW_AT_data_member_location[DW_OP_plus_uconst 0xc]
    1931                      .dwattr $C$DW$204, DW_AT_accessibility(DW_ACCESS_public)
    1932              
    1933              $C$DW$205       .dwtag  DW_TAG_member
    1934                      .dwattr $C$DW$205, DW_AT_type(*$C$DW$T$19)
    1935                      .dwattr $C$DW$205, DW_AT_name("K3")
    1936                      .dwattr $C$DW$205, DW_AT_TI_symbol_name("_K3")
    1937                      .dwattr $C$DW$205, DW_AT_data_member_location[DW_OP_plus_uconst 0xe]
    1938                      .dwattr $C$DW$205, DW_AT_accessibility(DW_ACCESS_public)
    1939              
    1940              $C$DW$206       .dwtag  DW_TAG_member
    1941                      .dwattr $C$DW$206, DW_AT_type(*$C$DW$T$48)
    1942                      .dwattr $C$DW$206, DW_AT_name("SpeedRpm")
    1943                      .dwattr $C$DW$206, DW_AT_TI_symbol_name("_SpeedRpm")
    1944                      .dwattr $C$DW$206, DW_AT_data_member_location[DW_OP_plus_uconst 0x10]
    1945                      .dwattr $C$DW$206, DW_AT_accessibility(DW_ACCESS_public)
    1946              
    1947              $C$DW$207       .dwtag  DW_TAG_member
    1948                      .dwattr $C$DW$207, DW_AT_type(*$C$DW$T$19)
    1949                      .dwattr $C$DW$207, DW_AT_name("Tmp")
    1950                      .dwattr $C$DW$207, DW_AT_TI_symbol_name("_Tmp")
    1951                      .dwattr $C$DW$207, DW_AT_data_member_location[DW_OP_plus_uconst 0x12]
    1952                      .dwattr $C$DW$207, DW_AT_accessibility(DW_ACCESS_public)
    1953              
    1954                      .dwendtag $C$DW$T$50
    1955              
    1956              $C$DW$T$88      .dwtag  DW_TAG_typedef
    1957                      .dwattr $C$DW$T$88, DW_AT_name("SPEED_MEAS_QEP")
    1958                      .dwattr $C$DW$T$88, DW_AT_type(*$C$DW$T$50)
TMS320C2000 Assembler PC v20.2.5 Fri Jan  6 17:23:28 2023

Copyright (c) 1996-2018 Texas Instruments Incorporated
DRV830x_SPI.asm                                                      PAGE   37

    1959                      .dwattr $C$DW$T$88, DW_AT_language(DW_LANG_C)
    1960              
    1961              
    1962              $C$DW$T$51      .dwtag  DW_TAG_structure_type
    1963                      .dwattr $C$DW$T$51, DW_AT_byte_size(0x12)
    1964              $C$DW$208       .dwtag  DW_TAG_member
    1965                      .dwattr $C$DW$208, DW_AT_type(*$C$DW$T$44)
    1966                      .dwattr $C$DW$208, DW_AT_name("ElecTheta")
    1967                      .dwattr $C$DW$208, DW_AT_TI_symbol_name("_ElecTheta")
    1968                      .dwattr $C$DW$208, DW_AT_data_member_location[DW_OP_plus_uconst 0x0]
    1969                      .dwattr $C$DW$208, DW_AT_accessibility(DW_ACCESS_public)
    1970              
    1971              $C$DW$209       .dwtag  DW_TAG_member
    1972                      .dwattr $C$DW$209, DW_AT_type(*$C$DW$T$44)
    1973                      .dwattr $C$DW$209, DW_AT_name("MechTheta")
    1974                      .dwattr $C$DW$209, DW_AT_TI_symbol_name("_MechTheta")
    1975                      .dwattr $C$DW$209, DW_AT_data_member_location[DW_OP_plus_uconst 0x2]
    1976                      .dwattr $C$DW$209, DW_AT_accessibility(DW_ACCESS_public)
    1977              
    1978              $C$DW$210       .dwtag  DW_TAG_member
    1979                      .dwattr $C$DW$210, DW_AT_type(*$C$DW$T$38)
    1980                      .dwattr $C$DW$210, DW_AT_name("DirectionQep")
    1981                      .dwattr $C$DW$210, DW_AT_TI_symbol_name("_DirectionQep")
    1982                      .dwattr $C$DW$210, DW_AT_data_member_location[DW_OP_plus_uconst 0x4]
    1983                      .dwattr $C$DW$210, DW_AT_accessibility(DW_ACCESS_public)
    1984              
    1985              $C$DW$211       .dwtag  DW_TAG_member
    1986                      .dwattr $C$DW$211, DW_AT_type(*$C$DW$T$38)
    1987                      .dwattr $C$DW$211, DW_AT_name("QepPeriod")
    1988                      .dwattr $C$DW$211, DW_AT_TI_symbol_name("_QepPeriod")
    1989                      .dwattr $C$DW$211, DW_AT_data_member_location[DW_OP_plus_uconst 0x5]
    1990                      .dwattr $C$DW$211, DW_AT_accessibility(DW_ACCESS_public)
    1991              
    1992              $C$DW$212       .dwtag  DW_TAG_member
    1993                      .dwattr $C$DW$212, DW_AT_type(*$C$DW$T$40)
    1994                      .dwattr $C$DW$212, DW_AT_name("QepCountIndex")
    1995                      .dwattr $C$DW$212, DW_AT_TI_symbol_name("_QepCountIndex")
    1996                      .dwattr $C$DW$212, DW_AT_data_member_location[DW_OP_plus_uconst 0x6]
    1997                      .dwattr $C$DW$212, DW_AT_accessibility(DW_ACCESS_public)
    1998              
    1999              $C$DW$213       .dwtag  DW_TAG_member
    2000                      .dwattr $C$DW$213, DW_AT_type(*$C$DW$T$48)
    2001                      .dwattr $C$DW$213, DW_AT_name("RawTheta")
    2002                      .dwattr $C$DW$213, DW_AT_TI_symbol_name("_RawTheta")
    2003                      .dwattr $C$DW$213, DW_AT_data_member_location[DW_OP_plus_uconst 0x8]
    2004                      .dwattr $C$DW$213, DW_AT_accessibility(DW_ACCESS_public)
    2005              
    2006              $C$DW$214       .dwtag  DW_TAG_member
    2007                      .dwattr $C$DW$214, DW_AT_type(*$C$DW$T$44)
    2008                      .dwattr $C$DW$214, DW_AT_name("MechScaler")
    2009                      .dwattr $C$DW$214, DW_AT_TI_symbol_name("_MechScaler")
    2010                      .dwattr $C$DW$214, DW_AT_data_member_location[DW_OP_plus_uconst 0xa]
    2011                      .dwattr $C$DW$214, DW_AT_accessibility(DW_ACCESS_public)
    2012              
    2013              $C$DW$215       .dwtag  DW_TAG_member
TMS320C2000 Assembler PC v20.2.5 Fri Jan  6 17:23:28 2023

Copyright (c) 1996-2018 Texas Instruments Incorporated
DRV830x_SPI.asm                                                      PAGE   38

    2014                      .dwattr $C$DW$215, DW_AT_type(*$C$DW$T$38)
    2015                      .dwattr $C$DW$215, DW_AT_name("LineEncoder")
    2016                      .dwattr $C$DW$215, DW_AT_TI_symbol_name("_LineEncoder")
    2017                      .dwattr $C$DW$215, DW_AT_data_member_location[DW_OP_plus_uconst 0xc]
    2018                      .dwattr $C$DW$215, DW_AT_accessibility(DW_ACCESS_public)
    2019              
    2020              $C$DW$216       .dwtag  DW_TAG_member
    2021                      .dwattr $C$DW$216, DW_AT_type(*$C$DW$T$38)
    2022                      .dwattr $C$DW$216, DW_AT_name("PolePairs")
    2023                      .dwattr $C$DW$216, DW_AT_TI_symbol_name("_PolePairs")
    2024                      .dwattr $C$DW$216, DW_AT_data_member_location[DW_OP_plus_uconst 0xd]
    2025                      .dwattr $C$DW$216, DW_AT_accessibility(DW_ACCESS_public)
    2026              
    2027              $C$DW$217       .dwtag  DW_TAG_member
    2028                      .dwattr $C$DW$217, DW_AT_type(*$C$DW$T$48)
    2029                      .dwattr $C$DW$217, DW_AT_name("CalibratedAngle")
    2030                      .dwattr $C$DW$217, DW_AT_TI_symbol_name("_CalibratedAngle")
    2031                      .dwattr $C$DW$217, DW_AT_data_member_location[DW_OP_plus_uconst 0xe]
    2032                      .dwattr $C$DW$217, DW_AT_accessibility(DW_ACCESS_public)
    2033              
    2034              $C$DW$218       .dwtag  DW_TAG_member
    2035                      .dwattr $C$DW$218, DW_AT_type(*$C$DW$T$38)
    2036                      .dwattr $C$DW$218, DW_AT_name("IndexSyncFlag")
    2037                      .dwattr $C$DW$218, DW_AT_TI_symbol_name("_IndexSyncFlag")
    2038                      .dwattr $C$DW$218, DW_AT_data_member_location[DW_OP_plus_uconst 0x10]
    2039                      .dwattr $C$DW$218, DW_AT_accessibility(DW_ACCESS_public)
    2040              
    2041                      .dwendtag $C$DW$T$51
    2042              
    2043              $C$DW$T$89      .dwtag  DW_TAG_typedef
    2044                      .dwattr $C$DW$T$89, DW_AT_name("QEP")
    2045                      .dwattr $C$DW$T$89, DW_AT_type(*$C$DW$T$51)
    2046                      .dwattr $C$DW$T$89, DW_AT_language(DW_LANG_C)
    2047              
    2048              
    2049              $C$DW$T$56      .dwtag  DW_TAG_structure_type
    2050                      .dwattr $C$DW$T$56, DW_AT_byte_size(0x07)
    2051              $C$DW$219       .dwtag  DW_TAG_member
    2052                      .dwattr $C$DW$219, DW_AT_type(*$C$DW$T$52)
    2053                      .dwattr $C$DW$219, DW_AT_name("stat_reg1")
    2054                      .dwattr $C$DW$219, DW_AT_TI_symbol_name("_stat_reg1")
    2055                      .dwattr $C$DW$219, DW_AT_data_member_location[DW_OP_plus_uconst 0x0]
    2056                      .dwattr $C$DW$219, DW_AT_accessibility(DW_ACCESS_public)
    2057              
    2058              $C$DW$220       .dwtag  DW_TAG_member
    2059                      .dwattr $C$DW$220, DW_AT_type(*$C$DW$T$53)
    2060                      .dwattr $C$DW$220, DW_AT_name("stat_reg2")
    2061                      .dwattr $C$DW$220, DW_AT_TI_symbol_name("_stat_reg2")
    2062                      .dwattr $C$DW$220, DW_AT_data_member_location[DW_OP_plus_uconst 0x1]
    2063                      .dwattr $C$DW$220, DW_AT_accessibility(DW_ACCESS_public)
    2064              
    2065              $C$DW$221       .dwtag  DW_TAG_member
    2066                      .dwattr $C$DW$221, DW_AT_type(*$C$DW$T$54)
    2067                      .dwattr $C$DW$221, DW_AT_name("cntrl_reg1")
    2068                      .dwattr $C$DW$221, DW_AT_TI_symbol_name("_cntrl_reg1")
TMS320C2000 Assembler PC v20.2.5 Fri Jan  6 17:23:28 2023

Copyright (c) 1996-2018 Texas Instruments Incorporated
DRV830x_SPI.asm                                                      PAGE   39

    2069                      .dwattr $C$DW$221, DW_AT_data_member_location[DW_OP_plus_uconst 0x2]
    2070                      .dwattr $C$DW$221, DW_AT_accessibility(DW_ACCESS_public)
    2071              
    2072              $C$DW$222       .dwtag  DW_TAG_member
    2073                      .dwattr $C$DW$222, DW_AT_type(*$C$DW$T$55)
    2074                      .dwattr $C$DW$222, DW_AT_name("cntrl_reg2")
    2075                      .dwattr $C$DW$222, DW_AT_TI_symbol_name("_cntrl_reg2")
    2076                      .dwattr $C$DW$222, DW_AT_data_member_location[DW_OP_plus_uconst 0x3]
    2077                      .dwattr $C$DW$222, DW_AT_accessibility(DW_ACCESS_public)
    2078              
    2079              $C$DW$223       .dwtag  DW_TAG_member
    2080                      .dwattr $C$DW$223, DW_AT_type(*$C$DW$T$38)
    2081                      .dwattr $C$DW$223, DW_AT_name("readCntrl1")
    2082                      .dwattr $C$DW$223, DW_AT_TI_symbol_name("_readCntrl1")
    2083                      .dwattr $C$DW$223, DW_AT_data_member_location[DW_OP_plus_uconst 0x4]
    2084                      .dwattr $C$DW$223, DW_AT_accessibility(DW_ACCESS_public)
    2085              
    2086              $C$DW$224       .dwtag  DW_TAG_member
    2087                      .dwattr $C$DW$224, DW_AT_type(*$C$DW$T$38)
    2088                      .dwattr $C$DW$224, DW_AT_name("readCntrl2")
    2089                      .dwattr $C$DW$224, DW_AT_TI_symbol_name("_readCntrl2")
    2090                      .dwattr $C$DW$224, DW_AT_data_member_location[DW_OP_plus_uconst 0x5]
    2091                      .dwattr $C$DW$224, DW_AT_accessibility(DW_ACCESS_public)
    2092              
    2093              $C$DW$225       .dwtag  DW_TAG_member
    2094                      .dwattr $C$DW$225, DW_AT_type(*$C$DW$T$38)
    2095                      .dwattr $C$DW$225, DW_AT_name("DRV_fault")
    2096                      .dwattr $C$DW$225, DW_AT_TI_symbol_name("_DRV_fault")
    2097                      .dwattr $C$DW$225, DW_AT_data_member_location[DW_OP_plus_uconst 0x6]
    2098                      .dwattr $C$DW$225, DW_AT_accessibility(DW_ACCESS_public)
    2099              
    2100                      .dwendtag $C$DW$T$56
    2101              
    2102              $C$DW$T$90      .dwtag  DW_TAG_typedef
    2103                      .dwattr $C$DW$T$90, DW_AT_name("DRV8301_Vars")
    2104                      .dwattr $C$DW$T$90, DW_AT_type(*$C$DW$T$56)
    2105                      .dwattr $C$DW$T$90, DW_AT_language(DW_LANG_C)
    2106              
    2107              
    2108              $C$DW$T$68      .dwtag  DW_TAG_structure_type
    2109                      .dwattr $C$DW$T$68, DW_AT_byte_size(0x15)
    2110              $C$DW$226       .dwtag  DW_TAG_member
    2111                      .dwattr $C$DW$226, DW_AT_type(*$C$DW$T$38)
    2112                      .dwattr $C$DW$226, DW_AT_name("Rsvd0")
    2113                      .dwattr $C$DW$226, DW_AT_TI_symbol_name("_Rsvd0")
    2114                      .dwattr $C$DW$226, DW_AT_data_member_location[DW_OP_plus_uconst 0x0]
    2115                      .dwattr $C$DW$226, DW_AT_accessibility(DW_ACCESS_public)
    2116              
    2117              $C$DW$227       .dwtag  DW_TAG_member
    2118                      .dwattr $C$DW$227, DW_AT_type(*$C$DW$T$57)
    2119                      .dwattr $C$DW$227, DW_AT_name("status1_wwd")
    2120                      .dwattr $C$DW$227, DW_AT_TI_symbol_name("_status1_wwd")
    2121                      .dwattr $C$DW$227, DW_AT_data_member_location[DW_OP_plus_uconst 0x1]
    2122                      .dwattr $C$DW$227, DW_AT_accessibility(DW_ACCESS_public)
    2123              
TMS320C2000 Assembler PC v20.2.5 Fri Jan  6 17:23:28 2023

Copyright (c) 1996-2018 Texas Instruments Incorporated
DRV830x_SPI.asm                                                      PAGE   40

    2124              $C$DW$228       .dwtag  DW_TAG_member
    2125                      .dwattr $C$DW$228, DW_AT_type(*$C$DW$T$58)
    2126                      .dwattr $C$DW$228, DW_AT_name("status2_ov_vds")
    2127                      .dwattr $C$DW$228, DW_AT_TI_symbol_name("_status2_ov_vds")
    2128                      .dwattr $C$DW$228, DW_AT_data_member_location[DW_OP_plus_uconst 0x2]
    2129                      .dwattr $C$DW$228, DW_AT_accessibility(DW_ACCESS_public)
    2130              
    2131              $C$DW$229       .dwtag  DW_TAG_member
    2132                      .dwattr $C$DW$229, DW_AT_type(*$C$DW$T$59)
    2133                      .dwattr $C$DW$229, DW_AT_name("status3_IC")
    2134                      .dwattr $C$DW$229, DW_AT_TI_symbol_name("_status3_IC")
    2135                      .dwattr $C$DW$229, DW_AT_data_member_location[DW_OP_plus_uconst 0x3]
    2136                      .dwattr $C$DW$229, DW_AT_accessibility(DW_ACCESS_public)
    2137              
    2138              $C$DW$230       .dwtag  DW_TAG_member
    2139                      .dwattr $C$DW$230, DW_AT_type(*$C$DW$T$60)
    2140                      .dwattr $C$DW$230, DW_AT_name("status4_gd_Vgs")
    2141                      .dwattr $C$DW$230, DW_AT_TI_symbol_name("_status4_gd_Vgs")
    2142                      .dwattr $C$DW$230, DW_AT_data_member_location[DW_OP_plus_uconst 0x4]
    2143                      .dwattr $C$DW$230, DW_AT_accessibility(DW_ACCESS_public)
    2144              
    2145              $C$DW$231       .dwtag  DW_TAG_member
    2146                      .dwattr $C$DW$231, DW_AT_type(*$C$DW$T$61)
    2147                      .dwattr $C$DW$231, DW_AT_name("cntrl5_hs_gd")
    2148                      .dwattr $C$DW$231, DW_AT_TI_symbol_name("_cntrl5_hs_gd")
    2149                      .dwattr $C$DW$231, DW_AT_data_member_location[DW_OP_plus_uconst 0x5]
    2150                      .dwattr $C$DW$231, DW_AT_accessibility(DW_ACCESS_public)
    2151              
    2152              $C$DW$232       .dwtag  DW_TAG_member
    2153                      .dwattr $C$DW$232, DW_AT_type(*$C$DW$T$62)
    2154                      .dwattr $C$DW$232, DW_AT_name("cntrl6_ls_gd")
    2155                      .dwattr $C$DW$232, DW_AT_TI_symbol_name("_cntrl6_ls_gd")
    2156                      .dwattr $C$DW$232, DW_AT_data_member_location[DW_OP_plus_uconst 0x6]
    2157                      .dwattr $C$DW$232, DW_AT_accessibility(DW_ACCESS_public)
    2158              
    2159              $C$DW$233       .dwtag  DW_TAG_member
    2160                      .dwattr $C$DW$233, DW_AT_type(*$C$DW$T$63)
    2161                      .dwattr $C$DW$233, DW_AT_name("cntrl7_gd")
    2162                      .dwattr $C$DW$233, DW_AT_TI_symbol_name("_cntrl7_gd")
    2163                      .dwattr $C$DW$233, DW_AT_data_member_location[DW_OP_plus_uconst 0x7]
    2164                      .dwattr $C$DW$233, DW_AT_accessibility(DW_ACCESS_public)
    2165              
    2166              $C$DW$234       .dwtag  DW_TAG_member
    2167                      .dwattr $C$DW$234, DW_AT_type(*$C$DW$T$38)
    2168                      .dwattr $C$DW$234, DW_AT_name("Rsvd8")
    2169                      .dwattr $C$DW$234, DW_AT_TI_symbol_name("_Rsvd8")
    2170                      .dwattr $C$DW$234, DW_AT_data_member_location[DW_OP_plus_uconst 0x8]
    2171                      .dwattr $C$DW$234, DW_AT_accessibility(DW_ACCESS_public)
    2172              
    2173              $C$DW$235       .dwtag  DW_TAG_member
    2174                      .dwattr $C$DW$235, DW_AT_type(*$C$DW$T$64)
    2175                      .dwattr $C$DW$235, DW_AT_name("cntrl9_IC_ops")
    2176                      .dwattr $C$DW$235, DW_AT_TI_symbol_name("_cntrl9_IC_ops")
    2177                      .dwattr $C$DW$235, DW_AT_data_member_location[DW_OP_plus_uconst 0x9]
    2178                      .dwattr $C$DW$235, DW_AT_accessibility(DW_ACCESS_public)
TMS320C2000 Assembler PC v20.2.5 Fri Jan  6 17:23:28 2023

Copyright (c) 1996-2018 Texas Instruments Incorporated
DRV830x_SPI.asm                                                      PAGE   41

    2179              
    2180              $C$DW$236       .dwtag  DW_TAG_member
    2181                      .dwattr $C$DW$236, DW_AT_type(*$C$DW$T$65)
    2182                      .dwattr $C$DW$236, DW_AT_name("cntrlA_shunt_amp")
    2183                      .dwattr $C$DW$236, DW_AT_TI_symbol_name("_cntrlA_shunt_amp")
    2184                      .dwattr $C$DW$236, DW_AT_data_member_location[DW_OP_plus_uconst 0xa]
    2185                      .dwattr $C$DW$236, DW_AT_accessibility(DW_ACCESS_public)
    2186              
    2187              $C$DW$237       .dwtag  DW_TAG_member
    2188                      .dwattr $C$DW$237, DW_AT_type(*$C$DW$T$66)
    2189                      .dwattr $C$DW$237, DW_AT_name("cntrlB_Vreg")
    2190                      .dwattr $C$DW$237, DW_AT_TI_symbol_name("_cntrlB_Vreg")
    2191                      .dwattr $C$DW$237, DW_AT_data_member_location[DW_OP_plus_uconst 0xb]
    2192                      .dwattr $C$DW$237, DW_AT_accessibility(DW_ACCESS_public)
    2193              
    2194              $C$DW$238       .dwtag  DW_TAG_member
    2195                      .dwattr $C$DW$238, DW_AT_type(*$C$DW$T$67)
    2196                      .dwattr $C$DW$238, DW_AT_name("cntrlC_Vds_SNS")
    2197                      .dwattr $C$DW$238, DW_AT_TI_symbol_name("_cntrlC_Vds_SNS")
    2198                      .dwattr $C$DW$238, DW_AT_data_member_location[DW_OP_plus_uconst 0xc]
    2199                      .dwattr $C$DW$238, DW_AT_accessibility(DW_ACCESS_public)
    2200              
    2201              $C$DW$239       .dwtag  DW_TAG_member
    2202                      .dwattr $C$DW$239, DW_AT_type(*$C$DW$T$38)
    2203                      .dwattr $C$DW$239, DW_AT_name("readCntrl5")
    2204                      .dwattr $C$DW$239, DW_AT_TI_symbol_name("_readCntrl5")
    2205                      .dwattr $C$DW$239, DW_AT_data_member_location[DW_OP_plus_uconst 0xd]
    2206                      .dwattr $C$DW$239, DW_AT_accessibility(DW_ACCESS_public)
    2207              
    2208              $C$DW$240       .dwtag  DW_TAG_member
    2209                      .dwattr $C$DW$240, DW_AT_type(*$C$DW$T$38)
    2210                      .dwattr $C$DW$240, DW_AT_name("readCntrl6")
    2211                      .dwattr $C$DW$240, DW_AT_TI_symbol_name("_readCntrl6")
    2212                      .dwattr $C$DW$240, DW_AT_data_member_location[DW_OP_plus_uconst 0xe]
    2213                      .dwattr $C$DW$240, DW_AT_accessibility(DW_ACCESS_public)
    2214              
    2215              $C$DW$241       .dwtag  DW_TAG_member
    2216                      .dwattr $C$DW$241, DW_AT_type(*$C$DW$T$38)
    2217                      .dwattr $C$DW$241, DW_AT_name("readCntrl7")
    2218                      .dwattr $C$DW$241, DW_AT_TI_symbol_name("_readCntrl7")
    2219                      .dwattr $C$DW$241, DW_AT_data_member_location[DW_OP_plus_uconst 0xf]
    2220                      .dwattr $C$DW$241, DW_AT_accessibility(DW_ACCESS_public)
    2221              
    2222              $C$DW$242       .dwtag  DW_TAG_member
    2223                      .dwattr $C$DW$242, DW_AT_type(*$C$DW$T$38)
    2224                      .dwattr $C$DW$242, DW_AT_name("readCntrl9")
    2225                      .dwattr $C$DW$242, DW_AT_TI_symbol_name("_readCntrl9")
    2226                      .dwattr $C$DW$242, DW_AT_data_member_location[DW_OP_plus_uconst 0x10]
    2227                      .dwattr $C$DW$242, DW_AT_accessibility(DW_ACCESS_public)
    2228              
    2229              $C$DW$243       .dwtag  DW_TAG_member
    2230                      .dwattr $C$DW$243, DW_AT_type(*$C$DW$T$38)
    2231                      .dwattr $C$DW$243, DW_AT_name("readCntrlA")
    2232                      .dwattr $C$DW$243, DW_AT_TI_symbol_name("_readCntrlA")
    2233                      .dwattr $C$DW$243, DW_AT_data_member_location[DW_OP_plus_uconst 0x11]
TMS320C2000 Assembler PC v20.2.5 Fri Jan  6 17:23:28 2023

Copyright (c) 1996-2018 Texas Instruments Incorporated
DRV830x_SPI.asm                                                      PAGE   42

    2234                      .dwattr $C$DW$243, DW_AT_accessibility(DW_ACCESS_public)
    2235              
    2236              $C$DW$244       .dwtag  DW_TAG_member
    2237                      .dwattr $C$DW$244, DW_AT_type(*$C$DW$T$38)
    2238                      .dwattr $C$DW$244, DW_AT_name("readCntrlB")
    2239                      .dwattr $C$DW$244, DW_AT_TI_symbol_name("_readCntrlB")
    2240                      .dwattr $C$DW$244, DW_AT_data_member_location[DW_OP_plus_uconst 0x12]
    2241                      .dwattr $C$DW$244, DW_AT_accessibility(DW_ACCESS_public)
    2242              
    2243              $C$DW$245       .dwtag  DW_TAG_member
    2244                      .dwattr $C$DW$245, DW_AT_type(*$C$DW$T$38)
    2245                      .dwattr $C$DW$245, DW_AT_name("readCntrlC")
    2246                      .dwattr $C$DW$245, DW_AT_TI_symbol_name("_readCntrlC")
    2247                      .dwattr $C$DW$245, DW_AT_data_member_location[DW_OP_plus_uconst 0x13]
    2248                      .dwattr $C$DW$245, DW_AT_accessibility(DW_ACCESS_public)
    2249              
    2250              $C$DW$246       .dwtag  DW_TAG_member
    2251                      .dwattr $C$DW$246, DW_AT_type(*$C$DW$T$38)
    2252                      .dwattr $C$DW$246, DW_AT_name("DRV_fault")
    2253                      .dwattr $C$DW$246, DW_AT_TI_symbol_name("_DRV_fault")
    2254                      .dwattr $C$DW$246, DW_AT_data_member_location[DW_OP_plus_uconst 0x14]
    2255                      .dwattr $C$DW$246, DW_AT_accessibility(DW_ACCESS_public)
    2256              
    2257                      .dwendtag $C$DW$T$68
    2258              
    2259              $C$DW$T$91      .dwtag  DW_TAG_typedef
    2260                      .dwattr $C$DW$T$91, DW_AT_name("DRV8305_Vars")
    2261                      .dwattr $C$DW$T$91, DW_AT_type(*$C$DW$T$68)
    2262                      .dwattr $C$DW$T$91, DW_AT_language(DW_LANG_C)
    2263              
    2264              
    2265              $C$DW$T$92      .dwtag  DW_TAG_structure_type
    2266                      .dwattr $C$DW$T$92, DW_AT_byte_size(0x1c4)
    2267              $C$DW$247       .dwtag  DW_TAG_member
    2268                      .dwattr $C$DW$247, DW_AT_type(*$C$DW$T$70)
    2269                      .dwattr $C$DW$247, DW_AT_name("PwmARegs")
    2270                      .dwattr $C$DW$247, DW_AT_TI_symbol_name("_PwmARegs")
    2271                      .dwattr $C$DW$247, DW_AT_data_member_location[DW_OP_plus_uconst 0x0]
    2272                      .dwattr $C$DW$247, DW_AT_accessibility(DW_ACCESS_public)
    2273              
    2274              $C$DW$248       .dwtag  DW_TAG_member
    2275                      .dwattr $C$DW$248, DW_AT_type(*$C$DW$T$70)
    2276                      .dwattr $C$DW$248, DW_AT_name("PwmBRegs")
    2277                      .dwattr $C$DW$248, DW_AT_TI_symbol_name("_PwmBRegs")
    2278                      .dwattr $C$DW$248, DW_AT_data_member_location[DW_OP_plus_uconst 0x2]
    2279                      .dwattr $C$DW$248, DW_AT_accessibility(DW_ACCESS_public)
    2280              
    2281              $C$DW$249       .dwtag  DW_TAG_member
    2282                      .dwattr $C$DW$249, DW_AT_type(*$C$DW$T$70)
    2283                      .dwattr $C$DW$249, DW_AT_name("PwmCRegs")
    2284                      .dwattr $C$DW$249, DW_AT_TI_symbol_name("_PwmCRegs")
    2285                      .dwattr $C$DW$249, DW_AT_data_member_location[DW_OP_plus_uconst 0x4]
    2286                      .dwattr $C$DW$249, DW_AT_accessibility(DW_ACCESS_public)
    2287              
    2288              $C$DW$250       .dwtag  DW_TAG_member
TMS320C2000 Assembler PC v20.2.5 Fri Jan  6 17:23:28 2023

Copyright (c) 1996-2018 Texas Instruments Incorporated
DRV830x_SPI.asm                                                      PAGE   43

    2289                      .dwattr $C$DW$250, DW_AT_type(*$C$DW$T$72)
    2290                      .dwattr $C$DW$250, DW_AT_name("QepRegs")
    2291                      .dwattr $C$DW$250, DW_AT_TI_symbol_name("_QepRegs")
    2292                      .dwattr $C$DW$250, DW_AT_data_member_location[DW_OP_plus_uconst 0x6]
    2293                      .dwattr $C$DW$250, DW_AT_accessibility(DW_ACCESS_public)
    2294              
    2295              $C$DW$251       .dwtag  DW_TAG_member
    2296                      .dwattr $C$DW$251, DW_AT_type(*$C$DW$T$74)
    2297                      .dwattr $C$DW$251, DW_AT_name("SpiRegs")
    2298                      .dwattr $C$DW$251, DW_AT_TI_symbol_name("_SpiRegs")
    2299                      .dwattr $C$DW$251, DW_AT_data_member_location[DW_OP_plus_uconst 0x8]
    2300                      .dwattr $C$DW$251, DW_AT_accessibility(DW_ACCESS_public)
    2301              
    2302              $C$DW$252       .dwtag  DW_TAG_member
    2303                      .dwattr $C$DW$252, DW_AT_type(*$C$DW$T$38)
    2304                      .dwattr $C$DW$252, DW_AT_name("drvScsPin")
    2305                      .dwattr $C$DW$252, DW_AT_TI_symbol_name("_drvScsPin")
    2306                      .dwattr $C$DW$252, DW_AT_data_member_location[DW_OP_plus_uconst 0xa]
    2307                      .dwattr $C$DW$252, DW_AT_accessibility(DW_ACCESS_public)
    2308              
    2309              $C$DW$253       .dwtag  DW_TAG_member
    2310                      .dwattr $C$DW$253, DW_AT_type(*$C$DW$T$19)
    2311                      .dwattr $C$DW$253, DW_AT_name("offset_shntA")
    2312                      .dwattr $C$DW$253, DW_AT_TI_symbol_name("_offset_shntA")
    2313                      .dwattr $C$DW$253, DW_AT_data_member_location[DW_OP_plus_uconst 0xc]
    2314                      .dwattr $C$DW$253, DW_AT_accessibility(DW_ACCESS_public)
    2315              
    2316              $C$DW$254       .dwtag  DW_TAG_member
    2317                      .dwattr $C$DW$254, DW_AT_type(*$C$DW$T$19)
    2318                      .dwattr $C$DW$254, DW_AT_name("offset_shntB")
    2319                      .dwattr $C$DW$254, DW_AT_TI_symbol_name("_offset_shntB")
    2320                      .dwattr $C$DW$254, DW_AT_data_member_location[DW_OP_plus_uconst 0xe]
    2321                      .dwattr $C$DW$254, DW_AT_accessibility(DW_ACCESS_public)
    2322              
    2323              $C$DW$255       .dwtag  DW_TAG_member
    2324                      .dwattr $C$DW$255, DW_AT_type(*$C$DW$T$19)
    2325                      .dwattr $C$DW$255, DW_AT_name("offset_shntC")
    2326                      .dwattr $C$DW$255, DW_AT_TI_symbol_name("_offset_shntC")
    2327                      .dwattr $C$DW$255, DW_AT_data_member_location[DW_OP_plus_uconst 0x10]
    2328                      .dwattr $C$DW$255, DW_AT_accessibility(DW_ACCESS_public)
    2329              
    2330              $C$DW$256       .dwtag  DW_TAG_member
    2331                      .dwattr $C$DW$256, DW_AT_type(*$C$DW$T$19)
    2332                      .dwattr $C$DW$256, DW_AT_name("VdTesting")
    2333                      .dwattr $C$DW$256, DW_AT_TI_symbol_name("_VdTesting")
    2334                      .dwattr $C$DW$256, DW_AT_data_member_location[DW_OP_plus_uconst 0x12]
    2335                      .dwattr $C$DW$256, DW_AT_accessibility(DW_ACCESS_public)
    2336              
    2337              $C$DW$257       .dwtag  DW_TAG_member
    2338                      .dwattr $C$DW$257, DW_AT_type(*$C$DW$T$19)
    2339                      .dwattr $C$DW$257, DW_AT_name("VqTesting")
    2340                      .dwattr $C$DW$257, DW_AT_TI_symbol_name("_VqTesting")
    2341                      .dwattr $C$DW$257, DW_AT_data_member_location[DW_OP_plus_uconst 0x14]
    2342                      .dwattr $C$DW$257, DW_AT_accessibility(DW_ACCESS_public)
    2343              
TMS320C2000 Assembler PC v20.2.5 Fri Jan  6 17:23:28 2023

Copyright (c) 1996-2018 Texas Instruments Incorporated
DRV830x_SPI.asm                                                      PAGE   44

    2344              $C$DW$258       .dwtag  DW_TAG_member
    2345                      .dwattr $C$DW$258, DW_AT_type(*$C$DW$T$19)
    2346                      .dwattr $C$DW$258, DW_AT_name("IdRef")
    2347                      .dwattr $C$DW$258, DW_AT_TI_symbol_name("_IdRef")
    2348                      .dwattr $C$DW$258, DW_AT_data_member_location[DW_OP_plus_uconst 0x16]
    2349                      .dwattr $C$DW$258, DW_AT_accessibility(DW_ACCESS_public)
    2350              
    2351              $C$DW$259       .dwtag  DW_TAG_member
    2352                      .dwattr $C$DW$259, DW_AT_type(*$C$DW$T$19)
    2353                      .dwattr $C$DW$259, DW_AT_name("IqRef")
    2354                      .dwattr $C$DW$259, DW_AT_TI_symbol_name("_IqRef")
    2355                      .dwattr $C$DW$259, DW_AT_data_member_location[DW_OP_plus_uconst 0x18]
    2356                      .dwattr $C$DW$259, DW_AT_accessibility(DW_ACCESS_public)
    2357              
    2358              $C$DW$260       .dwtag  DW_TAG_member
    2359                      .dwattr $C$DW$260, DW_AT_type(*$C$DW$T$19)
    2360                      .dwattr $C$DW$260, DW_AT_name("SpeedRef")
    2361                      .dwattr $C$DW$260, DW_AT_TI_symbol_name("_SpeedRef")
    2362                      .dwattr $C$DW$260, DW_AT_data_member_location[DW_OP_plus_uconst 0x1a]
    2363                      .dwattr $C$DW$260, DW_AT_accessibility(DW_ACCESS_public)
    2364              
    2365              $C$DW$261       .dwtag  DW_TAG_member
    2366                      .dwattr $C$DW$261, DW_AT_type(*$C$DW$T$19)
    2367                      .dwattr $C$DW$261, DW_AT_name("ElecTheta")
    2368                      .dwattr $C$DW$261, DW_AT_TI_symbol_name("_ElecTheta")
    2369                      .dwattr $C$DW$261, DW_AT_data_member_location[DW_OP_plus_uconst 0x1c]
    2370                      .dwattr $C$DW$261, DW_AT_accessibility(DW_ACCESS_public)
    2371              
    2372              $C$DW$262       .dwtag  DW_TAG_member
    2373                      .dwattr $C$DW$262, DW_AT_type(*$C$DW$T$19)
    2374                      .dwattr $C$DW$262, DW_AT_name("MechTheta")
    2375                      .dwattr $C$DW$262, DW_AT_TI_symbol_name("_MechTheta")
    2376                      .dwattr $C$DW$262, DW_AT_data_member_location[DW_OP_plus_uconst 0x1e]
    2377                      .dwattr $C$DW$262, DW_AT_accessibility(DW_ACCESS_public)
    2378              
    2379              $C$DW$263       .dwtag  DW_TAG_member
    2380                      .dwattr $C$DW$263, DW_AT_type(*$C$DW$T$44)
    2381                      .dwattr $C$DW$263, DW_AT_name("currentAs")
    2382                      .dwattr $C$DW$263, DW_AT_TI_symbol_name("_currentAs")
    2383                      .dwattr $C$DW$263, DW_AT_data_member_location[DW_OP_plus_uconst 0x20]
    2384                      .dwattr $C$DW$263, DW_AT_accessibility(DW_ACCESS_public)
    2385              
    2386              $C$DW$264       .dwtag  DW_TAG_member
    2387                      .dwattr $C$DW$264, DW_AT_type(*$C$DW$T$44)
    2388                      .dwattr $C$DW$264, DW_AT_name("currentBs")
    2389                      .dwattr $C$DW$264, DW_AT_TI_symbol_name("_currentBs")
    2390                      .dwattr $C$DW$264, DW_AT_data_member_location[DW_OP_plus_uconst 0x22]
    2391                      .dwattr $C$DW$264, DW_AT_accessibility(DW_ACCESS_public)
    2392              
    2393              $C$DW$265       .dwtag  DW_TAG_member
    2394                      .dwattr $C$DW$265, DW_AT_type(*$C$DW$T$44)
    2395                      .dwattr $C$DW$265, DW_AT_name("currentCs")
    2396                      .dwattr $C$DW$265, DW_AT_TI_symbol_name("_currentCs")
    2397                      .dwattr $C$DW$265, DW_AT_data_member_location[DW_OP_plus_uconst 0x24]
    2398                      .dwattr $C$DW$265, DW_AT_accessibility(DW_ACCESS_public)
TMS320C2000 Assembler PC v20.2.5 Fri Jan  6 17:23:28 2023

Copyright (c) 1996-2018 Texas Instruments Incorporated
DRV830x_SPI.asm                                                      PAGE   45

    2399              
    2400              $C$DW$266       .dwtag  DW_TAG_member
    2401                      .dwattr $C$DW$266, DW_AT_type(*$C$DW$T$44)
    2402                      .dwattr $C$DW$266, DW_AT_name("voltageAs")
    2403                      .dwattr $C$DW$266, DW_AT_TI_symbol_name("_voltageAs")
    2404                      .dwattr $C$DW$266, DW_AT_data_member_location[DW_OP_plus_uconst 0x26]
    2405                      .dwattr $C$DW$266, DW_AT_accessibility(DW_ACCESS_public)
    2406              
    2407              $C$DW$267       .dwtag  DW_TAG_member
    2408                      .dwattr $C$DW$267, DW_AT_type(*$C$DW$T$44)
    2409                      .dwattr $C$DW$267, DW_AT_name("voltageBs")
    2410                      .dwattr $C$DW$267, DW_AT_TI_symbol_name("_voltageBs")
    2411                      .dwattr $C$DW$267, DW_AT_data_member_location[DW_OP_plus_uconst 0x28]
    2412                      .dwattr $C$DW$267, DW_AT_accessibility(DW_ACCESS_public)
    2413              
    2414              $C$DW$268       .dwtag  DW_TAG_member
    2415                      .dwattr $C$DW$268, DW_AT_type(*$C$DW$T$44)
    2416                      .dwattr $C$DW$268, DW_AT_name("voltageCs")
    2417                      .dwattr $C$DW$268, DW_AT_TI_symbol_name("_voltageCs")
    2418                      .dwattr $C$DW$268, DW_AT_data_member_location[DW_OP_plus_uconst 0x2a]
    2419                      .dwattr $C$DW$268, DW_AT_accessibility(DW_ACCESS_public)
    2420              
    2421              $C$DW$269       .dwtag  DW_TAG_member
    2422                      .dwattr $C$DW$269, DW_AT_type(*$C$DW$T$44)
    2423                      .dwattr $C$DW$269, DW_AT_name("voltageDC")
    2424                      .dwattr $C$DW$269, DW_AT_TI_symbol_name("_voltageDC")
    2425                      .dwattr $C$DW$269, DW_AT_data_member_location[DW_OP_plus_uconst 0x2c]
    2426                      .dwattr $C$DW$269, DW_AT_accessibility(DW_ACCESS_public)
    2427              
    2428              $C$DW$270       .dwtag  DW_TAG_member
    2429                      .dwattr $C$DW$270, DW_AT_type(*$C$DW$T$48)
    2430                      .dwattr $C$DW$270, DW_AT_name("alignCntr")
    2431                      .dwattr $C$DW$270, DW_AT_TI_symbol_name("_alignCntr")
    2432                      .dwattr $C$DW$270, DW_AT_data_member_location[DW_OP_plus_uconst 0x2e]
    2433                      .dwattr $C$DW$270, DW_AT_accessibility(DW_ACCESS_public)
    2434              
    2435              $C$DW$271       .dwtag  DW_TAG_member
    2436                      .dwattr $C$DW$271, DW_AT_type(*$C$DW$T$48)
    2437                      .dwattr $C$DW$271, DW_AT_name("alignCnt")
    2438                      .dwattr $C$DW$271, DW_AT_TI_symbol_name("_alignCnt")
    2439                      .dwattr $C$DW$271, DW_AT_data_member_location[DW_OP_plus_uconst 0x30]
    2440                      .dwattr $C$DW$271, DW_AT_accessibility(DW_ACCESS_public)
    2441              
    2442              $C$DW$272       .dwtag  DW_TAG_member
    2443                      .dwattr $C$DW$272, DW_AT_type(*$C$DW$T$38)
    2444                      .dwattr $C$DW$272, DW_AT_name("lsw")
    2445                      .dwattr $C$DW$272, DW_AT_TI_symbol_name("_lsw")
    2446                      .dwattr $C$DW$272, DW_AT_data_member_location[DW_OP_plus_uconst 0x32]
    2447                      .dwattr $C$DW$272, DW_AT_accessibility(DW_ACCESS_public)
    2448              
    2449              $C$DW$273       .dwtag  DW_TAG_member
    2450                      .dwattr $C$DW$273, DW_AT_type(*$C$DW$T$38)
    2451                      .dwattr $C$DW$273, DW_AT_name("TripFlagDMC")
    2452                      .dwattr $C$DW$273, DW_AT_TI_symbol_name("_TripFlagDMC")
    2453                      .dwattr $C$DW$273, DW_AT_data_member_location[DW_OP_plus_uconst 0x33]
TMS320C2000 Assembler PC v20.2.5 Fri Jan  6 17:23:28 2023

Copyright (c) 1996-2018 Texas Instruments Incorporated
DRV830x_SPI.asm                                                      PAGE   46

    2454                      .dwattr $C$DW$273, DW_AT_accessibility(DW_ACCESS_public)
    2455              
    2456              $C$DW$274       .dwtag  DW_TAG_member
    2457                      .dwattr $C$DW$274, DW_AT_type(*$C$DW$T$38)
    2458                      .dwattr $C$DW$274, DW_AT_name("clearTripFlagDMC")
    2459                      .dwattr $C$DW$274, DW_AT_TI_symbol_name("_clearTripFlagDMC")
    2460                      .dwattr $C$DW$274, DW_AT_data_member_location[DW_OP_plus_uconst 0x34]
    2461                      .dwattr $C$DW$274, DW_AT_accessibility(DW_ACCESS_public)
    2462              
    2463              $C$DW$275       .dwtag  DW_TAG_member
    2464                      .dwattr $C$DW$275, DW_AT_type(*$C$DW$T$38)
    2465                      .dwattr $C$DW$275, DW_AT_name("RunMotor")
    2466                      .dwattr $C$DW$275, DW_AT_TI_symbol_name("_RunMotor")
    2467                      .dwattr $C$DW$275, DW_AT_data_member_location[DW_OP_plus_uconst 0x35]
    2468                      .dwattr $C$DW$275, DW_AT_accessibility(DW_ACCESS_public)
    2469              
    2470              $C$DW$276       .dwtag  DW_TAG_member
    2471                      .dwattr $C$DW$276, DW_AT_type(*$C$DW$T$38)
    2472                      .dwattr $C$DW$276, DW_AT_name("SpeedLoopPrescaler")
    2473                      .dwattr $C$DW$276, DW_AT_TI_symbol_name("_SpeedLoopPrescaler")
    2474                      .dwattr $C$DW$276, DW_AT_data_member_location[DW_OP_plus_uconst 0x36]
    2475                      .dwattr $C$DW$276, DW_AT_accessibility(DW_ACCESS_public)
    2476              
    2477              $C$DW$277       .dwtag  DW_TAG_member
    2478                      .dwattr $C$DW$277, DW_AT_type(*$C$DW$T$38)
    2479                      .dwattr $C$DW$277, DW_AT_name("SpeedLoopCount")
    2480                      .dwattr $C$DW$277, DW_AT_TI_symbol_name("_SpeedLoopCount")
    2481                      .dwattr $C$DW$277, DW_AT_data_member_location[DW_OP_plus_uconst 0x37]
    2482                      .dwattr $C$DW$277, DW_AT_accessibility(DW_ACCESS_public)
    2483              
    2484              $C$DW$278       .dwtag  DW_TAG_member
    2485                      .dwattr $C$DW$278, DW_AT_type(*$C$DW$T$38)
    2486                      .dwattr $C$DW$278, DW_AT_name("PosSenseReverse")
    2487                      .dwattr $C$DW$278, DW_AT_TI_symbol_name("_PosSenseReverse")
    2488                      .dwattr $C$DW$278, DW_AT_data_member_location[DW_OP_plus_uconst 0x38]
    2489                      .dwattr $C$DW$278, DW_AT_accessibility(DW_ACCESS_public)
    2490              
    2491              $C$DW$279       .dwtag  DW_TAG_member
    2492                      .dwattr $C$DW$279, DW_AT_type(*$C$DW$T$38)
    2493                      .dwattr $C$DW$279, DW_AT_name("newCmdDRV")
    2494                      .dwattr $C$DW$279, DW_AT_TI_symbol_name("_newCmdDRV")
    2495                      .dwattr $C$DW$279, DW_AT_data_member_location[DW_OP_plus_uconst 0x39]
    2496                      .dwattr $C$DW$279, DW_AT_accessibility(DW_ACCESS_public)
    2497              
    2498              $C$DW$280       .dwtag  DW_TAG_member
    2499                      .dwattr $C$DW$280, DW_AT_type(*$C$DW$T$44)
    2500                      .dwattr $C$DW$280, DW_AT_name("T")
    2501                      .dwattr $C$DW$280, DW_AT_TI_symbol_name("_T")
    2502                      .dwattr $C$DW$280, DW_AT_data_member_location[DW_OP_plus_uconst 0x3a]
    2503                      .dwattr $C$DW$280, DW_AT_accessibility(DW_ACCESS_public)
    2504              
    2505              $C$DW$281       .dwtag  DW_TAG_member
    2506                      .dwattr $C$DW$281, DW_AT_type(*$C$DW$T$75)
    2507                      .dwattr $C$DW$281, DW_AT_name("clarke")
    2508                      .dwattr $C$DW$281, DW_AT_TI_symbol_name("_clarke")
TMS320C2000 Assembler PC v20.2.5 Fri Jan  6 17:23:28 2023

Copyright (c) 1996-2018 Texas Instruments Incorporated
DRV830x_SPI.asm                                                      PAGE   47

    2509                      .dwattr $C$DW$281, DW_AT_data_member_location[DW_OP_plus_uconst 0x3c]
    2510                      .dwattr $C$DW$281, DW_AT_accessibility(DW_ACCESS_public)
    2511              
    2512              $C$DW$282       .dwtag  DW_TAG_member
    2513                      .dwattr $C$DW$282, DW_AT_type(*$C$DW$T$76)
    2514                      .dwattr $C$DW$282, DW_AT_name("park")
    2515                      .dwattr $C$DW$282, DW_AT_TI_symbol_name("_park")
    2516                      .dwattr $C$DW$282, DW_AT_data_member_location[DW_OP_plus_uconst 0x46]
    2517                      .dwattr $C$DW$282, DW_AT_accessibility(DW_ACCESS_public)
    2518              
    2519              $C$DW$283       .dwtag  DW_TAG_member
    2520                      .dwattr $C$DW$283, DW_AT_type(*$C$DW$T$77)
    2521                      .dwattr $C$DW$283, DW_AT_name("ipark")
    2522                      .dwattr $C$DW$283, DW_AT_TI_symbol_name("_ipark")
    2523                      .dwattr $C$DW$283, DW_AT_data_member_location[DW_OP_plus_uconst 0x54]
    2524                      .dwattr $C$DW$283, DW_AT_accessibility(DW_ACCESS_public)
    2525              
    2526              $C$DW$284       .dwtag  DW_TAG_member
    2527                      .dwattr $C$DW$284, DW_AT_type(*$C$DW$T$78)
    2528                      .dwattr $C$DW$284, DW_AT_name("pi_pos")
    2529                      .dwattr $C$DW$284, DW_AT_TI_symbol_name("_pi_pos")
    2530                      .dwattr $C$DW$284, DW_AT_data_member_location[DW_OP_plus_uconst 0x62]
    2531                      .dwattr $C$DW$284, DW_AT_accessibility(DW_ACCESS_public)
    2532              
    2533              $C$DW$285       .dwtag  DW_TAG_member
    2534                      .dwattr $C$DW$285, DW_AT_type(*$C$DW$T$79)
    2535                      .dwattr $C$DW$285, DW_AT_name("pid_spd")
    2536                      .dwattr $C$DW$285, DW_AT_TI_symbol_name("_pid_spd")
    2537                      .dwattr $C$DW$285, DW_AT_data_member_location[DW_OP_plus_uconst 0x7a]
    2538                      .dwattr $C$DW$285, DW_AT_accessibility(DW_ACCESS_public)
    2539              
    2540              $C$DW$286       .dwtag  DW_TAG_member
    2541                      .dwattr $C$DW$286, DW_AT_type(*$C$DW$T$78)
    2542                      .dwattr $C$DW$286, DW_AT_name("pi_id")
    2543                      .dwattr $C$DW$286, DW_AT_TI_symbol_name("_pi_id")
    2544                      .dwattr $C$DW$286, DW_AT_data_member_location[DW_OP_plus_uconst 0xa2]
    2545                      .dwattr $C$DW$286, DW_AT_accessibility(DW_ACCESS_public)
    2546              
    2547              $C$DW$287       .dwtag  DW_TAG_member
    2548                      .dwattr $C$DW$287, DW_AT_type(*$C$DW$T$78)
    2549                      .dwattr $C$DW$287, DW_AT_name("pi_iq")
    2550                      .dwattr $C$DW$287, DW_AT_TI_symbol_name("_pi_iq")
    2551                      .dwattr $C$DW$287, DW_AT_data_member_location[DW_OP_plus_uconst 0xba]
    2552                      .dwattr $C$DW$287, DW_AT_accessibility(DW_ACCESS_public)
    2553              
    2554              $C$DW$288       .dwtag  DW_TAG_member
    2555                      .dwattr $C$DW$288, DW_AT_type(*$C$DW$T$80)
    2556                      .dwattr $C$DW$288, DW_AT_name("pi_spd")
    2557                      .dwattr $C$DW$288, DW_AT_TI_symbol_name("_pi_spd")
    2558                      .dwattr $C$DW$288, DW_AT_data_member_location[DW_OP_plus_uconst 0xd2]
    2559                      .dwattr $C$DW$288, DW_AT_accessibility(DW_ACCESS_public)
    2560              
    2561              $C$DW$289       .dwtag  DW_TAG_member
    2562                      .dwattr $C$DW$289, DW_AT_type(*$C$DW$T$81)
    2563                      .dwattr $C$DW$289, DW_AT_name("svgen")
TMS320C2000 Assembler PC v20.2.5 Fri Jan  6 17:23:28 2023

Copyright (c) 1996-2018 Texas Instruments Incorporated
DRV830x_SPI.asm                                                      PAGE   48

    2564                      .dwattr $C$DW$289, DW_AT_TI_symbol_name("_svgen")
    2565                      .dwattr $C$DW$289, DW_AT_data_member_location[DW_OP_plus_uconst 0xfa]
    2566                      .dwattr $C$DW$289, DW_AT_accessibility(DW_ACCESS_public)
    2567              
    2568              $C$DW$290       .dwtag  DW_TAG_member
    2569                      .dwattr $C$DW$290, DW_AT_type(*$C$DW$T$82)
    2570                      .dwattr $C$DW$290, DW_AT_name("rc")
    2571                      .dwattr $C$DW$290, DW_AT_TI_symbol_name("_rc")
    2572                      .dwattr $C$DW$290, DW_AT_data_member_location[DW_OP_plus_uconst 0x10c]
    2573                      .dwattr $C$DW$290, DW_AT_accessibility(DW_ACCESS_public)
    2574              
    2575              $C$DW$291       .dwtag  DW_TAG_member
    2576                      .dwattr $C$DW$291, DW_AT_type(*$C$DW$T$83)
    2577                      .dwattr $C$DW$291, DW_AT_name("rg")
    2578                      .dwattr $C$DW$291, DW_AT_TI_symbol_name("_rg")
    2579                      .dwattr $C$DW$291, DW_AT_data_member_location[DW_OP_plus_uconst 0x11c]
    2580                      .dwattr $C$DW$291, DW_AT_accessibility(DW_ACCESS_public)
    2581              
    2582              $C$DW$292       .dwtag  DW_TAG_member
    2583                      .dwattr $C$DW$292, DW_AT_type(*$C$DW$T$84)
    2584                      .dwattr $C$DW$292, DW_AT_name("volt")
    2585                      .dwattr $C$DW$292, DW_AT_TI_symbol_name("_volt")
    2586                      .dwattr $C$DW$292, DW_AT_data_member_location[DW_OP_plus_uconst 0x128]
    2587                      .dwattr $C$DW$292, DW_AT_accessibility(DW_ACCESS_public)
    2588              
    2589              $C$DW$293       .dwtag  DW_TAG_member
    2590                      .dwattr $C$DW$293, DW_AT_type(*$C$DW$T$85)
    2591                      .dwattr $C$DW$293, DW_AT_name("smo_const")
    2592                      .dwattr $C$DW$293, DW_AT_TI_symbol_name("_smo_const")
    2593                      .dwattr $C$DW$293, DW_AT_data_member_location[DW_OP_plus_uconst 0x13e]
    2594                      .dwattr $C$DW$293, DW_AT_accessibility(DW_ACCESS_public)
    2595              
    2596              $C$DW$294       .dwtag  DW_TAG_member
    2597                      .dwattr $C$DW$294, DW_AT_type(*$C$DW$T$86)
    2598                      .dwattr $C$DW$294, DW_AT_name("smo")
    2599                      .dwattr $C$DW$294, DW_AT_TI_symbol_name("_smo")
    2600                      .dwattr $C$DW$294, DW_AT_data_member_location[DW_OP_plus_uconst 0x14c]
    2601                      .dwattr $C$DW$294, DW_AT_accessibility(DW_ACCESS_public)
    2602              
    2603              $C$DW$295       .dwtag  DW_TAG_member
    2604                      .dwattr $C$DW$295, DW_AT_type(*$C$DW$T$87)
    2605                      .dwattr $C$DW$295, DW_AT_name("speed1")
    2606                      .dwattr $C$DW$295, DW_AT_TI_symbol_name("_speed1")
    2607                      .dwattr $C$DW$295, DW_AT_data_member_location[DW_OP_plus_uconst 0x170]
    2608                      .dwattr $C$DW$295, DW_AT_accessibility(DW_ACCESS_public)
    2609              
    2610              $C$DW$296       .dwtag  DW_TAG_member
    2611                      .dwattr $C$DW$296, DW_AT_type(*$C$DW$T$88)
    2612                      .dwattr $C$DW$296, DW_AT_name("speed")
    2613                      .dwattr $C$DW$296, DW_AT_TI_symbol_name("_speed")
    2614                      .dwattr $C$DW$296, DW_AT_data_member_location[DW_OP_plus_uconst 0x182]
    2615                      .dwattr $C$DW$296, DW_AT_accessibility(DW_ACCESS_public)
    2616              
    2617              $C$DW$297       .dwtag  DW_TAG_member
    2618                      .dwattr $C$DW$297, DW_AT_type(*$C$DW$T$89)
TMS320C2000 Assembler PC v20.2.5 Fri Jan  6 17:23:28 2023

Copyright (c) 1996-2018 Texas Instruments Incorporated
DRV830x_SPI.asm                                                      PAGE   49

    2619                      .dwattr $C$DW$297, DW_AT_name("qep")
    2620                      .dwattr $C$DW$297, DW_AT_TI_symbol_name("_qep")
    2621                      .dwattr $C$DW$297, DW_AT_data_member_location[DW_OP_plus_uconst 0x196]
    2622                      .dwattr $C$DW$297, DW_AT_accessibility(DW_ACCESS_public)
    2623              
    2624              $C$DW$298       .dwtag  DW_TAG_member
    2625                      .dwattr $C$DW$298, DW_AT_type(*$C$DW$T$90)
    2626                      .dwattr $C$DW$298, DW_AT_name("drv8301")
    2627                      .dwattr $C$DW$298, DW_AT_TI_symbol_name("_drv8301")
    2628                      .dwattr $C$DW$298, DW_AT_data_member_location[DW_OP_plus_uconst 0x1a8]
    2629                      .dwattr $C$DW$298, DW_AT_accessibility(DW_ACCESS_public)
    2630              
    2631              $C$DW$299       .dwtag  DW_TAG_member
    2632                      .dwattr $C$DW$299, DW_AT_type(*$C$DW$T$91)
    2633                      .dwattr $C$DW$299, DW_AT_name("drv8305")
    2634                      .dwattr $C$DW$299, DW_AT_TI_symbol_name("_drv8305")
    2635                      .dwattr $C$DW$299, DW_AT_data_member_location[DW_OP_plus_uconst 0x1af]
    2636                      .dwattr $C$DW$299, DW_AT_accessibility(DW_ACCESS_public)
    2637              
    2638                      .dwendtag $C$DW$T$92
    2639              
    2640              $C$DW$T$301     .dwtag  DW_TAG_typedef
    2641                      .dwattr $C$DW$T$301, DW_AT_name("MOTOR_VARS")
    2642                      .dwattr $C$DW$T$301, DW_AT_type(*$C$DW$T$92)
    2643                      .dwattr $C$DW$T$301, DW_AT_language(DW_LANG_C)
    2644              
    2645              $C$DW$T$302     .dwtag  DW_TAG_pointer_type
    2646                      .dwattr $C$DW$T$302, DW_AT_type(*$C$DW$T$301)
    2647                      .dwattr $C$DW$T$302, DW_AT_address_class(0x20)
    2648              
    2649              $C$DW$300       .dwtag  DW_TAG_TI_far_type
    2650                      .dwattr $C$DW$300, DW_AT_type(*$C$DW$T$302)
    2651              
    2652              $C$DW$T$303     .dwtag  DW_TAG_const_type
    2653                      .dwattr $C$DW$T$303, DW_AT_type(*$C$DW$300)
    2654              
    2655              
    2656              $C$DW$T$93      .dwtag  DW_TAG_union_type
    2657                      .dwattr $C$DW$T$93, DW_AT_byte_size(0x01)
    2658              $C$DW$301       .dwtag  DW_TAG_member
    2659                      .dwattr $C$DW$301, DW_AT_type(*$C$DW$T$38)
    2660                      .dwattr $C$DW$301, DW_AT_name("all")
    2661                      .dwattr $C$DW$301, DW_AT_TI_symbol_name("_all")
    2662                      .dwattr $C$DW$301, DW_AT_data_member_location[DW_OP_plus_uconst 0x0]
    2663                      .dwattr $C$DW$301, DW_AT_accessibility(DW_ACCESS_public)
    2664              
    2665              $C$DW$302       .dwtag  DW_TAG_member
    2666                      .dwattr $C$DW$302, DW_AT_type(*$C$DW$T$164)
    2667                      .dwattr $C$DW$302, DW_AT_name("bit")
    2668                      .dwattr $C$DW$302, DW_AT_TI_symbol_name("_bit")
    2669                      .dwattr $C$DW$302, DW_AT_data_member_location[DW_OP_plus_uconst 0x0]
    2670                      .dwattr $C$DW$302, DW_AT_accessibility(DW_ACCESS_public)
    2671              
    2672                      .dwendtag $C$DW$T$93
    2673              
TMS320C2000 Assembler PC v20.2.5 Fri Jan  6 17:23:28 2023

Copyright (c) 1996-2018 Texas Instruments Incorporated
DRV830x_SPI.asm                                                      PAGE   50

    2674              $C$DW$T$52      .dwtag  DW_TAG_typedef
    2675                      .dwattr $C$DW$T$52, DW_AT_name("DRV8301_STATUS_REG_1")
    2676                      .dwattr $C$DW$T$52, DW_AT_type(*$C$DW$T$93)
    2677                      .dwattr $C$DW$T$52, DW_AT_language(DW_LANG_C)
    2678              
    2679              
    2680              $C$DW$T$94      .dwtag  DW_TAG_union_type
    2681                      .dwattr $C$DW$T$94, DW_AT_byte_size(0x01)
    2682              $C$DW$303       .dwtag  DW_TAG_member
    2683                      .dwattr $C$DW$303, DW_AT_type(*$C$DW$T$38)
    2684                      .dwattr $C$DW$303, DW_AT_name("all")
    2685                      .dwattr $C$DW$303, DW_AT_TI_symbol_name("_all")
    2686                      .dwattr $C$DW$303, DW_AT_data_member_location[DW_OP_plus_uconst 0x0]
    2687                      .dwattr $C$DW$303, DW_AT_accessibility(DW_ACCESS_public)
    2688              
    2689              $C$DW$304       .dwtag  DW_TAG_member
    2690                      .dwattr $C$DW$304, DW_AT_type(*$C$DW$T$165)
    2691                      .dwattr $C$DW$304, DW_AT_name("bit")
    2692                      .dwattr $C$DW$304, DW_AT_TI_symbol_name("_bit")
    2693                      .dwattr $C$DW$304, DW_AT_data_member_location[DW_OP_plus_uconst 0x0]
    2694                      .dwattr $C$DW$304, DW_AT_accessibility(DW_ACCESS_public)
    2695              
    2696                      .dwendtag $C$DW$T$94
    2697              
    2698              $C$DW$T$53      .dwtag  DW_TAG_typedef
    2699                      .dwattr $C$DW$T$53, DW_AT_name("DRV8301_STATUS_REG_2")
    2700                      .dwattr $C$DW$T$53, DW_AT_type(*$C$DW$T$94)
    2701                      .dwattr $C$DW$T$53, DW_AT_language(DW_LANG_C)
    2702              
    2703              
    2704              $C$DW$T$95      .dwtag  DW_TAG_union_type
    2705                      .dwattr $C$DW$T$95, DW_AT_byte_size(0x01)
    2706              $C$DW$305       .dwtag  DW_TAG_member
    2707                      .dwattr $C$DW$305, DW_AT_type(*$C$DW$T$38)
    2708                      .dwattr $C$DW$305, DW_AT_name("all")
    2709                      .dwattr $C$DW$305, DW_AT_TI_symbol_name("_all")
    2710                      .dwattr $C$DW$305, DW_AT_data_member_location[DW_OP_plus_uconst 0x0]
    2711                      .dwattr $C$DW$305, DW_AT_accessibility(DW_ACCESS_public)
    2712              
    2713              $C$DW$306       .dwtag  DW_TAG_member
    2714                      .dwattr $C$DW$306, DW_AT_type(*$C$DW$T$162)
    2715                      .dwattr $C$DW$306, DW_AT_name("bit")
    2716                      .dwattr $C$DW$306, DW_AT_TI_symbol_name("_bit")
    2717                      .dwattr $C$DW$306, DW_AT_data_member_location[DW_OP_plus_uconst 0x0]
    2718                      .dwattr $C$DW$306, DW_AT_accessibility(DW_ACCESS_public)
    2719              
    2720                      .dwendtag $C$DW$T$95
    2721              
    2722              $C$DW$T$54      .dwtag  DW_TAG_typedef
    2723                      .dwattr $C$DW$T$54, DW_AT_name("DRV8301_CONTROL_REG_1")
    2724                      .dwattr $C$DW$T$54, DW_AT_type(*$C$DW$T$95)
    2725                      .dwattr $C$DW$T$54, DW_AT_language(DW_LANG_C)
    2726              
    2727              
    2728              $C$DW$T$96      .dwtag  DW_TAG_union_type
TMS320C2000 Assembler PC v20.2.5 Fri Jan  6 17:23:28 2023

Copyright (c) 1996-2018 Texas Instruments Incorporated
DRV830x_SPI.asm                                                      PAGE   51

    2729                      .dwattr $C$DW$T$96, DW_AT_byte_size(0x01)
    2730              $C$DW$307       .dwtag  DW_TAG_member
    2731                      .dwattr $C$DW$307, DW_AT_type(*$C$DW$T$38)
    2732                      .dwattr $C$DW$307, DW_AT_name("all")
    2733                      .dwattr $C$DW$307, DW_AT_TI_symbol_name("_all")
    2734                      .dwattr $C$DW$307, DW_AT_data_member_location[DW_OP_plus_uconst 0x0]
    2735                      .dwattr $C$DW$307, DW_AT_accessibility(DW_ACCESS_public)
    2736              
    2737              $C$DW$308       .dwtag  DW_TAG_member
    2738                      .dwattr $C$DW$308, DW_AT_type(*$C$DW$T$163)
    2739                      .dwattr $C$DW$308, DW_AT_name("bit")
    2740                      .dwattr $C$DW$308, DW_AT_TI_symbol_name("_bit")
    2741                      .dwattr $C$DW$308, DW_AT_data_member_location[DW_OP_plus_uconst 0x0]
    2742                      .dwattr $C$DW$308, DW_AT_accessibility(DW_ACCESS_public)
    2743              
    2744                      .dwendtag $C$DW$T$96
    2745              
    2746              $C$DW$T$55      .dwtag  DW_TAG_typedef
    2747                      .dwattr $C$DW$T$55, DW_AT_name("DRV8301_CONTROL_REG_2")
    2748                      .dwattr $C$DW$T$55, DW_AT_type(*$C$DW$T$96)
    2749                      .dwattr $C$DW$T$55, DW_AT_language(DW_LANG_C)
    2750              
    2751              
    2752              $C$DW$T$97      .dwtag  DW_TAG_union_type
    2753                      .dwattr $C$DW$T$97, DW_AT_byte_size(0x01)
    2754              $C$DW$309       .dwtag  DW_TAG_member
    2755                      .dwattr $C$DW$309, DW_AT_type(*$C$DW$T$38)
    2756                      .dwattr $C$DW$309, DW_AT_name("all")
    2757                      .dwattr $C$DW$309, DW_AT_TI_symbol_name("_all")
    2758                      .dwattr $C$DW$309, DW_AT_data_member_location[DW_OP_plus_uconst 0x0]
    2759                      .dwattr $C$DW$309, DW_AT_accessibility(DW_ACCESS_public)
    2760              
    2761              $C$DW$310       .dwtag  DW_TAG_member
    2762                      .dwattr $C$DW$310, DW_AT_type(*$C$DW$T$176)
    2763                      .dwattr $C$DW$310, DW_AT_name("bit")
    2764                      .dwattr $C$DW$310, DW_AT_TI_symbol_name("_bit")
    2765                      .dwattr $C$DW$310, DW_AT_data_member_location[DW_OP_plus_uconst 0x0]
    2766                      .dwattr $C$DW$310, DW_AT_accessibility(DW_ACCESS_public)
    2767              
    2768                      .dwendtag $C$DW$T$97
    2769              
    2770              $C$DW$T$57      .dwtag  DW_TAG_typedef
    2771                      .dwattr $C$DW$T$57, DW_AT_name("DRV8305_WWD_REG")
    2772                      .dwattr $C$DW$T$57, DW_AT_type(*$C$DW$T$97)
    2773                      .dwattr $C$DW$T$57, DW_AT_language(DW_LANG_C)
    2774              
    2775              
    2776              $C$DW$T$98      .dwtag  DW_TAG_union_type
    2777                      .dwattr $C$DW$T$98, DW_AT_byte_size(0x01)
    2778              $C$DW$311       .dwtag  DW_TAG_member
    2779                      .dwattr $C$DW$311, DW_AT_type(*$C$DW$T$38)
    2780                      .dwattr $C$DW$311, DW_AT_name("all")
    2781                      .dwattr $C$DW$311, DW_AT_TI_symbol_name("_all")
    2782                      .dwattr $C$DW$311, DW_AT_data_member_location[DW_OP_plus_uconst 0x0]
    2783                      .dwattr $C$DW$311, DW_AT_accessibility(DW_ACCESS_public)
TMS320C2000 Assembler PC v20.2.5 Fri Jan  6 17:23:28 2023

Copyright (c) 1996-2018 Texas Instruments Incorporated
DRV830x_SPI.asm                                                      PAGE   52

    2784              
    2785              $C$DW$312       .dwtag  DW_TAG_member
    2786                      .dwattr $C$DW$312, DW_AT_type(*$C$DW$T$172)
    2787                      .dwattr $C$DW$312, DW_AT_name("bit")
    2788                      .dwattr $C$DW$312, DW_AT_TI_symbol_name("_bit")
    2789                      .dwattr $C$DW$312, DW_AT_data_member_location[DW_OP_plus_uconst 0x0]
    2790                      .dwattr $C$DW$312, DW_AT_accessibility(DW_ACCESS_public)
    2791              
    2792                      .dwendtag $C$DW$T$98
    2793              
    2794              $C$DW$T$58      .dwtag  DW_TAG_typedef
    2795                      .dwattr $C$DW$T$58, DW_AT_name("DRV8305_OV_VDS_FAULTS_REG")
    2796                      .dwattr $C$DW$T$58, DW_AT_type(*$C$DW$T$98)
    2797                      .dwattr $C$DW$T$58, DW_AT_language(DW_LANG_C)
    2798              
    2799              
    2800              $C$DW$T$99      .dwtag  DW_TAG_union_type
    2801                      .dwattr $C$DW$T$99, DW_AT_byte_size(0x01)
    2802              $C$DW$313       .dwtag  DW_TAG_member
    2803                      .dwattr $C$DW$313, DW_AT_type(*$C$DW$T$38)
    2804                      .dwattr $C$DW$313, DW_AT_name("all")
    2805                      .dwattr $C$DW$313, DW_AT_TI_symbol_name("_all")
    2806                      .dwattr $C$DW$313, DW_AT_data_member_location[DW_OP_plus_uconst 0x0]
    2807                      .dwattr $C$DW$313, DW_AT_accessibility(DW_ACCESS_public)
    2808              
    2809              $C$DW$314       .dwtag  DW_TAG_member
    2810                      .dwattr $C$DW$314, DW_AT_type(*$C$DW$T$169)
    2811                      .dwattr $C$DW$314, DW_AT_name("bit")
    2812                      .dwattr $C$DW$314, DW_AT_TI_symbol_name("_bit")
    2813                      .dwattr $C$DW$314, DW_AT_data_member_location[DW_OP_plus_uconst 0x0]
    2814                      .dwattr $C$DW$314, DW_AT_accessibility(DW_ACCESS_public)
    2815              
    2816                      .dwendtag $C$DW$T$99
    2817              
    2818              $C$DW$T$59      .dwtag  DW_TAG_typedef
    2819                      .dwattr $C$DW$T$59, DW_AT_name("DRV8305_IC_FAULTS_REG")
    2820                      .dwattr $C$DW$T$59, DW_AT_type(*$C$DW$T$99)
    2821                      .dwattr $C$DW$T$59, DW_AT_language(DW_LANG_C)
    2822              
    2823              
    2824              $C$DW$T$100     .dwtag  DW_TAG_union_type
    2825                      .dwattr $C$DW$T$100, DW_AT_byte_size(0x01)
    2826              $C$DW$315       .dwtag  DW_TAG_member
    2827                      .dwattr $C$DW$315, DW_AT_type(*$C$DW$T$38)
    2828                      .dwattr $C$DW$315, DW_AT_name("all")
    2829                      .dwattr $C$DW$315, DW_AT_TI_symbol_name("_all")
    2830                      .dwattr $C$DW$315, DW_AT_data_member_location[DW_OP_plus_uconst 0x0]
    2831                      .dwattr $C$DW$315, DW_AT_accessibility(DW_ACCESS_public)
    2832              
    2833              $C$DW$316       .dwtag  DW_TAG_member
    2834                      .dwattr $C$DW$316, DW_AT_type(*$C$DW$T$167)
    2835                      .dwattr $C$DW$316, DW_AT_name("bit")
    2836                      .dwattr $C$DW$316, DW_AT_TI_symbol_name("_bit")
    2837                      .dwattr $C$DW$316, DW_AT_data_member_location[DW_OP_plus_uconst 0x0]
    2838                      .dwattr $C$DW$316, DW_AT_accessibility(DW_ACCESS_public)
TMS320C2000 Assembler PC v20.2.5 Fri Jan  6 17:23:28 2023

Copyright (c) 1996-2018 Texas Instruments Incorporated
DRV830x_SPI.asm                                                      PAGE   53

    2839              
    2840                      .dwendtag $C$DW$T$100
    2841              
    2842              $C$DW$T$60      .dwtag  DW_TAG_typedef
    2843                      .dwattr $C$DW$T$60, DW_AT_name("DRV8305_GD_VGS_FAULTS_REG")
    2844                      .dwattr $C$DW$T$60, DW_AT_type(*$C$DW$T$100)
    2845                      .dwattr $C$DW$T$60, DW_AT_language(DW_LANG_C)
    2846              
    2847              
    2848              $C$DW$T$101     .dwtag  DW_TAG_union_type
    2849                      .dwattr $C$DW$T$101, DW_AT_byte_size(0x01)
    2850              $C$DW$317       .dwtag  DW_TAG_member
    2851                      .dwattr $C$DW$317, DW_AT_type(*$C$DW$T$38)
    2852                      .dwattr $C$DW$317, DW_AT_name("all")
    2853                      .dwattr $C$DW$317, DW_AT_TI_symbol_name("_all")
    2854                      .dwattr $C$DW$317, DW_AT_data_member_location[DW_OP_plus_uconst 0x0]
    2855                      .dwattr $C$DW$317, DW_AT_accessibility(DW_ACCESS_public)
    2856              
    2857              $C$DW$318       .dwtag  DW_TAG_member
    2858                      .dwattr $C$DW$318, DW_AT_type(*$C$DW$T$168)
    2859                      .dwattr $C$DW$318, DW_AT_name("bit")
    2860                      .dwattr $C$DW$318, DW_AT_TI_symbol_name("_bit")
    2861                      .dwattr $C$DW$318, DW_AT_data_member_location[DW_OP_plus_uconst 0x0]
    2862                      .dwattr $C$DW$318, DW_AT_accessibility(DW_ACCESS_public)
    2863              
    2864                      .dwendtag $C$DW$T$101
    2865              
    2866              $C$DW$T$61      .dwtag  DW_TAG_typedef
    2867                      .dwattr $C$DW$T$61, DW_AT_name("DRV8305_HS_GATE_DRIVER_CNTRL_REG")
    2868                      .dwattr $C$DW$T$61, DW_AT_type(*$C$DW$T$101)
    2869                      .dwattr $C$DW$T$61, DW_AT_language(DW_LANG_C)
    2870              
    2871              
    2872              $C$DW$T$102     .dwtag  DW_TAG_union_type
    2873                      .dwattr $C$DW$T$102, DW_AT_byte_size(0x01)
    2874              $C$DW$319       .dwtag  DW_TAG_member
    2875                      .dwattr $C$DW$319, DW_AT_type(*$C$DW$T$38)
    2876                      .dwattr $C$DW$319, DW_AT_name("all")
    2877                      .dwattr $C$DW$319, DW_AT_TI_symbol_name("_all")
    2878                      .dwattr $C$DW$319, DW_AT_data_member_location[DW_OP_plus_uconst 0x0]
    2879                      .dwattr $C$DW$319, DW_AT_accessibility(DW_ACCESS_public)
    2880              
    2881              $C$DW$320       .dwtag  DW_TAG_member
    2882                      .dwattr $C$DW$320, DW_AT_type(*$C$DW$T$171)
    2883                      .dwattr $C$DW$320, DW_AT_name("bit")
    2884                      .dwattr $C$DW$320, DW_AT_TI_symbol_name("_bit")
    2885                      .dwattr $C$DW$320, DW_AT_data_member_location[DW_OP_plus_uconst 0x0]
    2886                      .dwattr $C$DW$320, DW_AT_accessibility(DW_ACCESS_public)
    2887              
    2888                      .dwendtag $C$DW$T$102
    2889              
    2890              $C$DW$T$62      .dwtag  DW_TAG_typedef
    2891                      .dwattr $C$DW$T$62, DW_AT_name("DRV8305_LS_GATE_DRIVER_CNTRL_REG")
    2892                      .dwattr $C$DW$T$62, DW_AT_type(*$C$DW$T$102)
    2893                      .dwattr $C$DW$T$62, DW_AT_language(DW_LANG_C)
TMS320C2000 Assembler PC v20.2.5 Fri Jan  6 17:23:28 2023

Copyright (c) 1996-2018 Texas Instruments Incorporated
DRV830x_SPI.asm                                                      PAGE   54

    2894              
    2895              
    2896              $C$DW$T$103     .dwtag  DW_TAG_union_type
    2897                      .dwattr $C$DW$T$103, DW_AT_byte_size(0x01)
    2898              $C$DW$321       .dwtag  DW_TAG_member
    2899                      .dwattr $C$DW$321, DW_AT_type(*$C$DW$T$38)
    2900                      .dwattr $C$DW$321, DW_AT_name("all")
    2901                      .dwattr $C$DW$321, DW_AT_TI_symbol_name("_all")
    2902                      .dwattr $C$DW$321, DW_AT_data_member_location[DW_OP_plus_uconst 0x0]
    2903                      .dwattr $C$DW$321, DW_AT_accessibility(DW_ACCESS_public)
    2904              
    2905              $C$DW$322       .dwtag  DW_TAG_member
    2906                      .dwattr $C$DW$322, DW_AT_type(*$C$DW$T$166)
    2907                      .dwattr $C$DW$322, DW_AT_name("bit")
    2908                      .dwattr $C$DW$322, DW_AT_TI_symbol_name("_bit")
    2909                      .dwattr $C$DW$322, DW_AT_data_member_location[DW_OP_plus_uconst 0x0]
    2910                      .dwattr $C$DW$322, DW_AT_accessibility(DW_ACCESS_public)
    2911              
    2912                      .dwendtag $C$DW$T$103
    2913              
    2914              $C$DW$T$63      .dwtag  DW_TAG_typedef
    2915                      .dwattr $C$DW$T$63, DW_AT_name("DRV8305_GD_CNTRL_REG")
    2916                      .dwattr $C$DW$T$63, DW_AT_type(*$C$DW$T$103)
    2917                      .dwattr $C$DW$T$63, DW_AT_language(DW_LANG_C)
    2918              
    2919              
    2920              $C$DW$T$104     .dwtag  DW_TAG_union_type
    2921                      .dwattr $C$DW$T$104, DW_AT_byte_size(0x01)
    2922              $C$DW$323       .dwtag  DW_TAG_member
    2923                      .dwattr $C$DW$323, DW_AT_type(*$C$DW$T$38)
    2924                      .dwattr $C$DW$323, DW_AT_name("all")
    2925                      .dwattr $C$DW$323, DW_AT_TI_symbol_name("_all")
    2926                      .dwattr $C$DW$323, DW_AT_data_member_location[DW_OP_plus_uconst 0x0]
    2927                      .dwattr $C$DW$323, DW_AT_accessibility(DW_ACCESS_public)
    2928              
    2929              $C$DW$324       .dwtag  DW_TAG_member
    2930                      .dwattr $C$DW$324, DW_AT_type(*$C$DW$T$170)
    2931                      .dwattr $C$DW$324, DW_AT_name("bit")
    2932                      .dwattr $C$DW$324, DW_AT_TI_symbol_name("_bit")
    2933                      .dwattr $C$DW$324, DW_AT_data_member_location[DW_OP_plus_uconst 0x0]
    2934                      .dwattr $C$DW$324, DW_AT_accessibility(DW_ACCESS_public)
    2935              
    2936                      .dwendtag $C$DW$T$104
    2937              
    2938              $C$DW$T$64      .dwtag  DW_TAG_typedef
    2939                      .dwattr $C$DW$T$64, DW_AT_name("DRV8305_IC_OPS_REG")
    2940                      .dwattr $C$DW$T$64, DW_AT_type(*$C$DW$T$104)
    2941                      .dwattr $C$DW$T$64, DW_AT_language(DW_LANG_C)
    2942              
    2943              
    2944              $C$DW$T$105     .dwtag  DW_TAG_union_type
    2945                      .dwattr $C$DW$T$105, DW_AT_byte_size(0x01)
    2946              $C$DW$325       .dwtag  DW_TAG_member
    2947                      .dwattr $C$DW$325, DW_AT_type(*$C$DW$T$38)
    2948                      .dwattr $C$DW$325, DW_AT_name("all")
TMS320C2000 Assembler PC v20.2.5 Fri Jan  6 17:23:28 2023

Copyright (c) 1996-2018 Texas Instruments Incorporated
DRV830x_SPI.asm                                                      PAGE   55

    2949                      .dwattr $C$DW$325, DW_AT_TI_symbol_name("_all")
    2950                      .dwattr $C$DW$325, DW_AT_data_member_location[DW_OP_plus_uconst 0x0]
    2951                      .dwattr $C$DW$325, DW_AT_accessibility(DW_ACCESS_public)
    2952              
    2953              $C$DW$326       .dwtag  DW_TAG_member
    2954                      .dwattr $C$DW$326, DW_AT_type(*$C$DW$T$173)
    2955                      .dwattr $C$DW$326, DW_AT_name("bit")
    2956                      .dwattr $C$DW$326, DW_AT_TI_symbol_name("_bit")
    2957                      .dwattr $C$DW$326, DW_AT_data_member_location[DW_OP_plus_uconst 0x0]
    2958                      .dwattr $C$DW$326, DW_AT_accessibility(DW_ACCESS_public)
    2959              
    2960                      .dwendtag $C$DW$T$105
    2961              
    2962              $C$DW$T$65      .dwtag  DW_TAG_typedef
    2963                      .dwattr $C$DW$T$65, DW_AT_name("DRV8305_SHUNT_AMP_CNTRL_REG")
    2964                      .dwattr $C$DW$T$65, DW_AT_type(*$C$DW$T$105)
    2965                      .dwattr $C$DW$T$65, DW_AT_language(DW_LANG_C)
    2966              
    2967              
    2968              $C$DW$T$106     .dwtag  DW_TAG_union_type
    2969                      .dwattr $C$DW$T$106, DW_AT_byte_size(0x01)
    2970              $C$DW$327       .dwtag  DW_TAG_member
    2971                      .dwattr $C$DW$327, DW_AT_type(*$C$DW$T$38)
    2972                      .dwattr $C$DW$327, DW_AT_name("all")
    2973                      .dwattr $C$DW$327, DW_AT_TI_symbol_name("_all")
    2974                      .dwattr $C$DW$327, DW_AT_data_member_location[DW_OP_plus_uconst 0x0]
    2975                      .dwattr $C$DW$327, DW_AT_accessibility(DW_ACCESS_public)
    2976              
    2977              $C$DW$328       .dwtag  DW_TAG_member
    2978                      .dwattr $C$DW$328, DW_AT_type(*$C$DW$T$175)
    2979                      .dwattr $C$DW$328, DW_AT_name("bit")
    2980                      .dwattr $C$DW$328, DW_AT_TI_symbol_name("_bit")
    2981                      .dwattr $C$DW$328, DW_AT_data_member_location[DW_OP_plus_uconst 0x0]
    2982                      .dwattr $C$DW$328, DW_AT_accessibility(DW_ACCESS_public)
    2983              
    2984                      .dwendtag $C$DW$T$106
    2985              
    2986              $C$DW$T$66      .dwtag  DW_TAG_typedef
    2987                      .dwattr $C$DW$T$66, DW_AT_name("DRV8305_VREG_CNTRL_REG")
    2988                      .dwattr $C$DW$T$66, DW_AT_type(*$C$DW$T$106)
    2989                      .dwattr $C$DW$T$66, DW_AT_language(DW_LANG_C)
    2990              
    2991              
    2992              $C$DW$T$107     .dwtag  DW_TAG_union_type
    2993                      .dwattr $C$DW$T$107, DW_AT_byte_size(0x01)
    2994              $C$DW$329       .dwtag  DW_TAG_member
    2995                      .dwattr $C$DW$329, DW_AT_type(*$C$DW$T$38)
    2996                      .dwattr $C$DW$329, DW_AT_name("all")
    2997                      .dwattr $C$DW$329, DW_AT_TI_symbol_name("_all")
    2998                      .dwattr $C$DW$329, DW_AT_data_member_location[DW_OP_plus_uconst 0x0]
    2999                      .dwattr $C$DW$329, DW_AT_accessibility(DW_ACCESS_public)
    3000              
    3001              $C$DW$330       .dwtag  DW_TAG_member
    3002                      .dwattr $C$DW$330, DW_AT_type(*$C$DW$T$174)
    3003                      .dwattr $C$DW$330, DW_AT_name("bit")
TMS320C2000 Assembler PC v20.2.5 Fri Jan  6 17:23:28 2023

Copyright (c) 1996-2018 Texas Instruments Incorporated
DRV830x_SPI.asm                                                      PAGE   56

    3004                      .dwattr $C$DW$330, DW_AT_TI_symbol_name("_bit")
    3005                      .dwattr $C$DW$330, DW_AT_data_member_location[DW_OP_plus_uconst 0x0]
    3006                      .dwattr $C$DW$330, DW_AT_accessibility(DW_ACCESS_public)
    3007              
    3008                      .dwendtag $C$DW$T$107
    3009              
    3010              $C$DW$T$67      .dwtag  DW_TAG_typedef
    3011                      .dwattr $C$DW$T$67, DW_AT_name("DRV8305_VDS_SNS_CNTRL_REG")
    3012                      .dwattr $C$DW$T$67, DW_AT_type(*$C$DW$T$107)
    3013                      .dwattr $C$DW$T$67, DW_AT_language(DW_LANG_C)
    3014              
    3015              
    3016              $C$DW$T$108     .dwtag  DW_TAG_structure_type
    3017                      .dwattr $C$DW$T$108, DW_AT_name("AQCSFRC_BITS")
    3018                      .dwattr $C$DW$T$108, DW_AT_byte_size(0x01)
    3019              $C$DW$331       .dwtag  DW_TAG_member
    3020                      .dwattr $C$DW$331, DW_AT_type(*$C$DW$T$38)
    3021                      .dwattr $C$DW$331, DW_AT_name("CSFA")
    3022                      .dwattr $C$DW$331, DW_AT_TI_symbol_name("_CSFA")
    3023                      .dwattr $C$DW$331, DW_AT_bit_offset(0x0e)
    3024                      .dwattr $C$DW$331, DW_AT_bit_size(0x02)
    3025                      .dwattr $C$DW$331, DW_AT_data_member_location[DW_OP_plus_uconst 0x0]
    3026                      .dwattr $C$DW$331, DW_AT_accessibility(DW_ACCESS_public)
    3027              
    3028              $C$DW$332       .dwtag  DW_TAG_member
    3029                      .dwattr $C$DW$332, DW_AT_type(*$C$DW$T$38)
    3030                      .dwattr $C$DW$332, DW_AT_name("CSFB")
    3031                      .dwattr $C$DW$332, DW_AT_TI_symbol_name("_CSFB")
    3032                      .dwattr $C$DW$332, DW_AT_bit_offset(0x0c)
    3033                      .dwattr $C$DW$332, DW_AT_bit_size(0x02)
    3034                      .dwattr $C$DW$332, DW_AT_data_member_location[DW_OP_plus_uconst 0x0]
    3035                      .dwattr $C$DW$332, DW_AT_accessibility(DW_ACCESS_public)
    3036              
    3037              $C$DW$333       .dwtag  DW_TAG_member
    3038                      .dwattr $C$DW$333, DW_AT_type(*$C$DW$T$38)
    3039                      .dwattr $C$DW$333, DW_AT_name("rsvd1")
    3040                      .dwattr $C$DW$333, DW_AT_TI_symbol_name("_rsvd1")
    3041                      .dwattr $C$DW$333, DW_AT_bit_offset(0x00)
    3042                      .dwattr $C$DW$333, DW_AT_bit_size(0x0c)
    3043                      .dwattr $C$DW$333, DW_AT_data_member_location[DW_OP_plus_uconst 0x0]
    3044                      .dwattr $C$DW$333, DW_AT_accessibility(DW_ACCESS_public)
    3045              
    3046                      .dwendtag $C$DW$T$108
    3047              
    3048              
    3049              $C$DW$T$109     .dwtag  DW_TAG_union_type
    3050                      .dwattr $C$DW$T$109, DW_AT_name("AQCSFRC_REG")
    3051                      .dwattr $C$DW$T$109, DW_AT_byte_size(0x01)
    3052              $C$DW$334       .dwtag  DW_TAG_member
    3053                      .dwattr $C$DW$334, DW_AT_type(*$C$DW$T$38)
    3054                      .dwattr $C$DW$334, DW_AT_name("all")
    3055                      .dwattr $C$DW$334, DW_AT_TI_symbol_name("_all")
    3056                      .dwattr $C$DW$334, DW_AT_data_member_location[DW_OP_plus_uconst 0x0]
    3057                      .dwattr $C$DW$334, DW_AT_accessibility(DW_ACCESS_public)
    3058              
TMS320C2000 Assembler PC v20.2.5 Fri Jan  6 17:23:28 2023

Copyright (c) 1996-2018 Texas Instruments Incorporated
DRV830x_SPI.asm                                                      PAGE   57

    3059              $C$DW$335       .dwtag  DW_TAG_member
    3060                      .dwattr $C$DW$335, DW_AT_type(*$C$DW$T$108)
    3061                      .dwattr $C$DW$335, DW_AT_name("bit")
    3062                      .dwattr $C$DW$335, DW_AT_TI_symbol_name("_bit")
    3063                      .dwattr $C$DW$335, DW_AT_data_member_location[DW_OP_plus_uconst 0x0]
    3064                      .dwattr $C$DW$335, DW_AT_accessibility(DW_ACCESS_public)
    3065              
    3066                      .dwendtag $C$DW$T$109
    3067              
    3068              
    3069              $C$DW$T$110     .dwtag  DW_TAG_structure_type
    3070                      .dwattr $C$DW$T$110, DW_AT_name("AQCTLA2_BITS")
    3071                      .dwattr $C$DW$T$110, DW_AT_byte_size(0x01)
    3072              $C$DW$336       .dwtag  DW_TAG_member
    3073                      .dwattr $C$DW$336, DW_AT_type(*$C$DW$T$38)
    3074                      .dwattr $C$DW$336, DW_AT_name("T1U")
    3075                      .dwattr $C$DW$336, DW_AT_TI_symbol_name("_T1U")
    3076                      .dwattr $C$DW$336, DW_AT_bit_offset(0x0e)
    3077                      .dwattr $C$DW$336, DW_AT_bit_size(0x02)
    3078                      .dwattr $C$DW$336, DW_AT_data_member_location[DW_OP_plus_uconst 0x0]
    3079                      .dwattr $C$DW$336, DW_AT_accessibility(DW_ACCESS_public)
    3080              
    3081              $C$DW$337       .dwtag  DW_TAG_member
    3082                      .dwattr $C$DW$337, DW_AT_type(*$C$DW$T$38)
    3083                      .dwattr $C$DW$337, DW_AT_name("T1D")
    3084                      .dwattr $C$DW$337, DW_AT_TI_symbol_name("_T1D")
    3085                      .dwattr $C$DW$337, DW_AT_bit_offset(0x0c)
    3086                      .dwattr $C$DW$337, DW_AT_bit_size(0x02)
    3087                      .dwattr $C$DW$337, DW_AT_data_member_location[DW_OP_plus_uconst 0x0]
    3088                      .dwattr $C$DW$337, DW_AT_accessibility(DW_ACCESS_public)
    3089              
    3090              $C$DW$338       .dwtag  DW_TAG_member
    3091                      .dwattr $C$DW$338, DW_AT_type(*$C$DW$T$38)
    3092                      .dwattr $C$DW$338, DW_AT_name("T2U")
    3093                      .dwattr $C$DW$338, DW_AT_TI_symbol_name("_T2U")
    3094                      .dwattr $C$DW$338, DW_AT_bit_offset(0x0a)
    3095                      .dwattr $C$DW$338, DW_AT_bit_size(0x02)
    3096                      .dwattr $C$DW$338, DW_AT_data_member_location[DW_OP_plus_uconst 0x0]
    3097                      .dwattr $C$DW$338, DW_AT_accessibility(DW_ACCESS_public)
    3098              
    3099              $C$DW$339       .dwtag  DW_TAG_member
    3100                      .dwattr $C$DW$339, DW_AT_type(*$C$DW$T$38)
    3101                      .dwattr $C$DW$339, DW_AT_name("T2D")
    3102                      .dwattr $C$DW$339, DW_AT_TI_symbol_name("_T2D")
    3103                      .dwattr $C$DW$339, DW_AT_bit_offset(0x08)
    3104                      .dwattr $C$DW$339, DW_AT_bit_size(0x02)
    3105                      .dwattr $C$DW$339, DW_AT_data_member_location[DW_OP_plus_uconst 0x0]
    3106                      .dwattr $C$DW$339, DW_AT_accessibility(DW_ACCESS_public)
    3107              
    3108              $C$DW$340       .dwtag  DW_TAG_member
    3109                      .dwattr $C$DW$340, DW_AT_type(*$C$DW$T$38)
    3110                      .dwattr $C$DW$340, DW_AT_name("rsvd1")
    3111                      .dwattr $C$DW$340, DW_AT_TI_symbol_name("_rsvd1")
    3112                      .dwattr $C$DW$340, DW_AT_bit_offset(0x00)
    3113                      .dwattr $C$DW$340, DW_AT_bit_size(0x08)
TMS320C2000 Assembler PC v20.2.5 Fri Jan  6 17:23:28 2023

Copyright (c) 1996-2018 Texas Instruments Incorporated
DRV830x_SPI.asm                                                      PAGE   58

    3114                      .dwattr $C$DW$340, DW_AT_data_member_location[DW_OP_plus_uconst 0x0]
    3115                      .dwattr $C$DW$340, DW_AT_accessibility(DW_ACCESS_public)
    3116              
    3117                      .dwendtag $C$DW$T$110
    3118              
    3119              
    3120              $C$DW$T$111     .dwtag  DW_TAG_union_type
    3121                      .dwattr $C$DW$T$111, DW_AT_name("AQCTLA2_REG")
    3122                      .dwattr $C$DW$T$111, DW_AT_byte_size(0x01)
    3123              $C$DW$341       .dwtag  DW_TAG_member
    3124                      .dwattr $C$DW$341, DW_AT_type(*$C$DW$T$38)
    3125                      .dwattr $C$DW$341, DW_AT_name("all")
    3126                      .dwattr $C$DW$341, DW_AT_TI_symbol_name("_all")
    3127                      .dwattr $C$DW$341, DW_AT_data_member_location[DW_OP_plus_uconst 0x0]
    3128                      .dwattr $C$DW$341, DW_AT_accessibility(DW_ACCESS_public)
    3129              
    3130              $C$DW$342       .dwtag  DW_TAG_member
    3131                      .dwattr $C$DW$342, DW_AT_type(*$C$DW$T$110)
    3132                      .dwattr $C$DW$342, DW_AT_name("bit")
    3133                      .dwattr $C$DW$342, DW_AT_TI_symbol_name("_bit")
    3134                      .dwattr $C$DW$342, DW_AT_data_member_location[DW_OP_plus_uconst 0x0]
    3135                      .dwattr $C$DW$342, DW_AT_accessibility(DW_ACCESS_public)
    3136              
    3137                      .dwendtag $C$DW$T$111
    3138              
    3139              
    3140              $C$DW$T$112     .dwtag  DW_TAG_structure_type
    3141                      .dwattr $C$DW$T$112, DW_AT_name("AQCTLA_BITS")
    3142                      .dwattr $C$DW$T$112, DW_AT_byte_size(0x01)
    3143              $C$DW$343       .dwtag  DW_TAG_member
    3144                      .dwattr $C$DW$343, DW_AT_type(*$C$DW$T$38)
    3145                      .dwattr $C$DW$343, DW_AT_name("ZRO")
    3146                      .dwattr $C$DW$343, DW_AT_TI_symbol_name("_ZRO")
    3147                      .dwattr $C$DW$343, DW_AT_bit_offset(0x0e)
    3148                      .dwattr $C$DW$343, DW_AT_bit_size(0x02)
    3149                      .dwattr $C$DW$343, DW_AT_data_member_location[DW_OP_plus_uconst 0x0]
    3150                      .dwattr $C$DW$343, DW_AT_accessibility(DW_ACCESS_public)
    3151              
    3152              $C$DW$344       .dwtag  DW_TAG_member
    3153                      .dwattr $C$DW$344, DW_AT_type(*$C$DW$T$38)
    3154                      .dwattr $C$DW$344, DW_AT_name("PRD")
    3155                      .dwattr $C$DW$344, DW_AT_TI_symbol_name("_PRD")
    3156                      .dwattr $C$DW$344, DW_AT_bit_offset(0x0c)
    3157                      .dwattr $C$DW$344, DW_AT_bit_size(0x02)
    3158                      .dwattr $C$DW$344, DW_AT_data_member_location[DW_OP_plus_uconst 0x0]
    3159                      .dwattr $C$DW$344, DW_AT_accessibility(DW_ACCESS_public)
    3160              
    3161              $C$DW$345       .dwtag  DW_TAG_member
    3162                      .dwattr $C$DW$345, DW_AT_type(*$C$DW$T$38)
    3163                      .dwattr $C$DW$345, DW_AT_name("CAU")
    3164                      .dwattr $C$DW$345, DW_AT_TI_symbol_name("_CAU")
    3165                      .dwattr $C$DW$345, DW_AT_bit_offset(0x0a)
    3166                      .dwattr $C$DW$345, DW_AT_bit_size(0x02)
    3167                      .dwattr $C$DW$345, DW_AT_data_member_location[DW_OP_plus_uconst 0x0]
    3168                      .dwattr $C$DW$345, DW_AT_accessibility(DW_ACCESS_public)
TMS320C2000 Assembler PC v20.2.5 Fri Jan  6 17:23:28 2023

Copyright (c) 1996-2018 Texas Instruments Incorporated
DRV830x_SPI.asm                                                      PAGE   59

    3169              
    3170              $C$DW$346       .dwtag  DW_TAG_member
    3171                      .dwattr $C$DW$346, DW_AT_type(*$C$DW$T$38)
    3172                      .dwattr $C$DW$346, DW_AT_name("CAD")
    3173                      .dwattr $C$DW$346, DW_AT_TI_symbol_name("_CAD")
    3174                      .dwattr $C$DW$346, DW_AT_bit_offset(0x08)
    3175                      .dwattr $C$DW$346, DW_AT_bit_size(0x02)
    3176                      .dwattr $C$DW$346, DW_AT_data_member_location[DW_OP_plus_uconst 0x0]
    3177                      .dwattr $C$DW$346, DW_AT_accessibility(DW_ACCESS_public)
    3178              
    3179              $C$DW$347       .dwtag  DW_TAG_member
    3180                      .dwattr $C$DW$347, DW_AT_type(*$C$DW$T$38)
    3181                      .dwattr $C$DW$347, DW_AT_name("CBU")
    3182                      .dwattr $C$DW$347, DW_AT_TI_symbol_name("_CBU")
    3183                      .dwattr $C$DW$347, DW_AT_bit_offset(0x06)
    3184                      .dwattr $C$DW$347, DW_AT_bit_size(0x02)
    3185                      .dwattr $C$DW$347, DW_AT_data_member_location[DW_OP_plus_uconst 0x0]
    3186                      .dwattr $C$DW$347, DW_AT_accessibility(DW_ACCESS_public)
    3187              
    3188              $C$DW$348       .dwtag  DW_TAG_member
    3189                      .dwattr $C$DW$348, DW_AT_type(*$C$DW$T$38)
    3190                      .dwattr $C$DW$348, DW_AT_name("CBD")
    3191                      .dwattr $C$DW$348, DW_AT_TI_symbol_name("_CBD")
    3192                      .dwattr $C$DW$348, DW_AT_bit_offset(0x04)
    3193                      .dwattr $C$DW$348, DW_AT_bit_size(0x02)
    3194                      .dwattr $C$DW$348, DW_AT_data_member_location[DW_OP_plus_uconst 0x0]
    3195                      .dwattr $C$DW$348, DW_AT_accessibility(DW_ACCESS_public)
    3196              
    3197              $C$DW$349       .dwtag  DW_TAG_member
    3198                      .dwattr $C$DW$349, DW_AT_type(*$C$DW$T$38)
    3199                      .dwattr $C$DW$349, DW_AT_name("rsvd1")
    3200                      .dwattr $C$DW$349, DW_AT_TI_symbol_name("_rsvd1")
    3201                      .dwattr $C$DW$349, DW_AT_bit_offset(0x00)
    3202                      .dwattr $C$DW$349, DW_AT_bit_size(0x04)
    3203                      .dwattr $C$DW$349, DW_AT_data_member_location[DW_OP_plus_uconst 0x0]
    3204                      .dwattr $C$DW$349, DW_AT_accessibility(DW_ACCESS_public)
    3205              
    3206                      .dwendtag $C$DW$T$112
    3207              
    3208              
    3209              $C$DW$T$113     .dwtag  DW_TAG_union_type
    3210                      .dwattr $C$DW$T$113, DW_AT_name("AQCTLA_REG")
    3211                      .dwattr $C$DW$T$113, DW_AT_byte_size(0x01)
    3212              $C$DW$350       .dwtag  DW_TAG_member
    3213                      .dwattr $C$DW$350, DW_AT_type(*$C$DW$T$38)
    3214                      .dwattr $C$DW$350, DW_AT_name("all")
    3215                      .dwattr $C$DW$350, DW_AT_TI_symbol_name("_all")
    3216                      .dwattr $C$DW$350, DW_AT_data_member_location[DW_OP_plus_uconst 0x0]
    3217                      .dwattr $C$DW$350, DW_AT_accessibility(DW_ACCESS_public)
    3218              
    3219              $C$DW$351       .dwtag  DW_TAG_member
    3220                      .dwattr $C$DW$351, DW_AT_type(*$C$DW$T$112)
    3221                      .dwattr $C$DW$351, DW_AT_name("bit")
    3222                      .dwattr $C$DW$351, DW_AT_TI_symbol_name("_bit")
    3223                      .dwattr $C$DW$351, DW_AT_data_member_location[DW_OP_plus_uconst 0x0]
TMS320C2000 Assembler PC v20.2.5 Fri Jan  6 17:23:28 2023

Copyright (c) 1996-2018 Texas Instruments Incorporated
DRV830x_SPI.asm                                                      PAGE   60

    3224                      .dwattr $C$DW$351, DW_AT_accessibility(DW_ACCESS_public)
    3225              
    3226                      .dwendtag $C$DW$T$113
    3227              
    3228              
    3229              $C$DW$T$114     .dwtag  DW_TAG_structure_type
    3230                      .dwattr $C$DW$T$114, DW_AT_name("AQCTLB2_BITS")
    3231                      .dwattr $C$DW$T$114, DW_AT_byte_size(0x01)
    3232              $C$DW$352       .dwtag  DW_TAG_member
    3233                      .dwattr $C$DW$352, DW_AT_type(*$C$DW$T$38)
    3234                      .dwattr $C$DW$352, DW_AT_name("T1U")
    3235                      .dwattr $C$DW$352, DW_AT_TI_symbol_name("_T1U")
    3236                      .dwattr $C$DW$352, DW_AT_bit_offset(0x0e)
    3237                      .dwattr $C$DW$352, DW_AT_bit_size(0x02)
    3238                      .dwattr $C$DW$352, DW_AT_data_member_location[DW_OP_plus_uconst 0x0]
    3239                      .dwattr $C$DW$352, DW_AT_accessibility(DW_ACCESS_public)
    3240              
    3241              $C$DW$353       .dwtag  DW_TAG_member
    3242                      .dwattr $C$DW$353, DW_AT_type(*$C$DW$T$38)
    3243                      .dwattr $C$DW$353, DW_AT_name("T1D")
    3244                      .dwattr $C$DW$353, DW_AT_TI_symbol_name("_T1D")
    3245                      .dwattr $C$DW$353, DW_AT_bit_offset(0x0c)
    3246                      .dwattr $C$DW$353, DW_AT_bit_size(0x02)
    3247                      .dwattr $C$DW$353, DW_AT_data_member_location[DW_OP_plus_uconst 0x0]
    3248                      .dwattr $C$DW$353, DW_AT_accessibility(DW_ACCESS_public)
    3249              
    3250              $C$DW$354       .dwtag  DW_TAG_member
    3251                      .dwattr $C$DW$354, DW_AT_type(*$C$DW$T$38)
    3252                      .dwattr $C$DW$354, DW_AT_name("T2U")
    3253                      .dwattr $C$DW$354, DW_AT_TI_symbol_name("_T2U")
    3254                      .dwattr $C$DW$354, DW_AT_bit_offset(0x0a)
    3255                      .dwattr $C$DW$354, DW_AT_bit_size(0x02)
    3256                      .dwattr $C$DW$354, DW_AT_data_member_location[DW_OP_plus_uconst 0x0]
    3257                      .dwattr $C$DW$354, DW_AT_accessibility(DW_ACCESS_public)
    3258              
    3259              $C$DW$355       .dwtag  DW_TAG_member
    3260                      .dwattr $C$DW$355, DW_AT_type(*$C$DW$T$38)
    3261                      .dwattr $C$DW$355, DW_AT_name("T2D")
    3262                      .dwattr $C$DW$355, DW_AT_TI_symbol_name("_T2D")
    3263                      .dwattr $C$DW$355, DW_AT_bit_offset(0x08)
    3264                      .dwattr $C$DW$355, DW_AT_bit_size(0x02)
    3265                      .dwattr $C$DW$355, DW_AT_data_member_location[DW_OP_plus_uconst 0x0]
    3266                      .dwattr $C$DW$355, DW_AT_accessibility(DW_ACCESS_public)
    3267              
    3268              $C$DW$356       .dwtag  DW_TAG_member
    3269                      .dwattr $C$DW$356, DW_AT_type(*$C$DW$T$38)
    3270                      .dwattr $C$DW$356, DW_AT_name("rsvd1")
    3271                      .dwattr $C$DW$356, DW_AT_TI_symbol_name("_rsvd1")
    3272                      .dwattr $C$DW$356, DW_AT_bit_offset(0x00)
    3273                      .dwattr $C$DW$356, DW_AT_bit_size(0x08)
    3274                      .dwattr $C$DW$356, DW_AT_data_member_location[DW_OP_plus_uconst 0x0]
    3275                      .dwattr $C$DW$356, DW_AT_accessibility(DW_ACCESS_public)
    3276              
    3277                      .dwendtag $C$DW$T$114
    3278              
TMS320C2000 Assembler PC v20.2.5 Fri Jan  6 17:23:28 2023

Copyright (c) 1996-2018 Texas Instruments Incorporated
DRV830x_SPI.asm                                                      PAGE   61

    3279              
    3280              $C$DW$T$115     .dwtag  DW_TAG_union_type
    3281                      .dwattr $C$DW$T$115, DW_AT_name("AQCTLB2_REG")
    3282                      .dwattr $C$DW$T$115, DW_AT_byte_size(0x01)
    3283              $C$DW$357       .dwtag  DW_TAG_member
    3284                      .dwattr $C$DW$357, DW_AT_type(*$C$DW$T$38)
    3285                      .dwattr $C$DW$357, DW_AT_name("all")
    3286                      .dwattr $C$DW$357, DW_AT_TI_symbol_name("_all")
    3287                      .dwattr $C$DW$357, DW_AT_data_member_location[DW_OP_plus_uconst 0x0]
    3288                      .dwattr $C$DW$357, DW_AT_accessibility(DW_ACCESS_public)
    3289              
    3290              $C$DW$358       .dwtag  DW_TAG_member
    3291                      .dwattr $C$DW$358, DW_AT_type(*$C$DW$T$114)
    3292                      .dwattr $C$DW$358, DW_AT_name("bit")
    3293                      .dwattr $C$DW$358, DW_AT_TI_symbol_name("_bit")
    3294                      .dwattr $C$DW$358, DW_AT_data_member_location[DW_OP_plus_uconst 0x0]
    3295                      .dwattr $C$DW$358, DW_AT_accessibility(DW_ACCESS_public)
    3296              
    3297                      .dwendtag $C$DW$T$115
    3298              
    3299              
    3300              $C$DW$T$116     .dwtag  DW_TAG_structure_type
    3301                      .dwattr $C$DW$T$116, DW_AT_name("AQCTLB_BITS")
    3302                      .dwattr $C$DW$T$116, DW_AT_byte_size(0x01)
    3303              $C$DW$359       .dwtag  DW_TAG_member
    3304                      .dwattr $C$DW$359, DW_AT_type(*$C$DW$T$38)
    3305                      .dwattr $C$DW$359, DW_AT_name("ZRO")
    3306                      .dwattr $C$DW$359, DW_AT_TI_symbol_name("_ZRO")
    3307                      .dwattr $C$DW$359, DW_AT_bit_offset(0x0e)
    3308                      .dwattr $C$DW$359, DW_AT_bit_size(0x02)
    3309                      .dwattr $C$DW$359, DW_AT_data_member_location[DW_OP_plus_uconst 0x0]
    3310                      .dwattr $C$DW$359, DW_AT_accessibility(DW_ACCESS_public)
    3311              
    3312              $C$DW$360       .dwtag  DW_TAG_member
    3313                      .dwattr $C$DW$360, DW_AT_type(*$C$DW$T$38)
    3314                      .dwattr $C$DW$360, DW_AT_name("PRD")
    3315                      .dwattr $C$DW$360, DW_AT_TI_symbol_name("_PRD")
    3316                      .dwattr $C$DW$360, DW_AT_bit_offset(0x0c)
    3317                      .dwattr $C$DW$360, DW_AT_bit_size(0x02)
    3318                      .dwattr $C$DW$360, DW_AT_data_member_location[DW_OP_plus_uconst 0x0]
    3319                      .dwattr $C$DW$360, DW_AT_accessibility(DW_ACCESS_public)
    3320              
    3321              $C$DW$361       .dwtag  DW_TAG_member
    3322                      .dwattr $C$DW$361, DW_AT_type(*$C$DW$T$38)
    3323                      .dwattr $C$DW$361, DW_AT_name("CAU")
    3324                      .dwattr $C$DW$361, DW_AT_TI_symbol_name("_CAU")
    3325                      .dwattr $C$DW$361, DW_AT_bit_offset(0x0a)
    3326                      .dwattr $C$DW$361, DW_AT_bit_size(0x02)
    3327                      .dwattr $C$DW$361, DW_AT_data_member_location[DW_OP_plus_uconst 0x0]
    3328                      .dwattr $C$DW$361, DW_AT_accessibility(DW_ACCESS_public)
    3329              
    3330              $C$DW$362       .dwtag  DW_TAG_member
    3331                      .dwattr $C$DW$362, DW_AT_type(*$C$DW$T$38)
    3332                      .dwattr $C$DW$362, DW_AT_name("CAD")
    3333                      .dwattr $C$DW$362, DW_AT_TI_symbol_name("_CAD")
TMS320C2000 Assembler PC v20.2.5 Fri Jan  6 17:23:28 2023

Copyright (c) 1996-2018 Texas Instruments Incorporated
DRV830x_SPI.asm                                                      PAGE   62

    3334                      .dwattr $C$DW$362, DW_AT_bit_offset(0x08)
    3335                      .dwattr $C$DW$362, DW_AT_bit_size(0x02)
    3336                      .dwattr $C$DW$362, DW_AT_data_member_location[DW_OP_plus_uconst 0x0]
    3337                      .dwattr $C$DW$362, DW_AT_accessibility(DW_ACCESS_public)
    3338              
    3339              $C$DW$363       .dwtag  DW_TAG_member
    3340                      .dwattr $C$DW$363, DW_AT_type(*$C$DW$T$38)
    3341                      .dwattr $C$DW$363, DW_AT_name("CBU")
    3342                      .dwattr $C$DW$363, DW_AT_TI_symbol_name("_CBU")
    3343                      .dwattr $C$DW$363, DW_AT_bit_offset(0x06)
    3344                      .dwattr $C$DW$363, DW_AT_bit_size(0x02)
    3345                      .dwattr $C$DW$363, DW_AT_data_member_location[DW_OP_plus_uconst 0x0]
    3346                      .dwattr $C$DW$363, DW_AT_accessibility(DW_ACCESS_public)
    3347              
    3348              $C$DW$364       .dwtag  DW_TAG_member
    3349                      .dwattr $C$DW$364, DW_AT_type(*$C$DW$T$38)
    3350                      .dwattr $C$DW$364, DW_AT_name("CBD")
    3351                      .dwattr $C$DW$364, DW_AT_TI_symbol_name("_CBD")
    3352                      .dwattr $C$DW$364, DW_AT_bit_offset(0x04)
    3353                      .dwattr $C$DW$364, DW_AT_bit_size(0x02)
    3354                      .dwattr $C$DW$364, DW_AT_data_member_location[DW_OP_plus_uconst 0x0]
    3355                      .dwattr $C$DW$364, DW_AT_accessibility(DW_ACCESS_public)
    3356              
    3357              $C$DW$365       .dwtag  DW_TAG_member
    3358                      .dwattr $C$DW$365, DW_AT_type(*$C$DW$T$38)
    3359                      .dwattr $C$DW$365, DW_AT_name("rsvd1")
    3360                      .dwattr $C$DW$365, DW_AT_TI_symbol_name("_rsvd1")
    3361                      .dwattr $C$DW$365, DW_AT_bit_offset(0x00)
    3362                      .dwattr $C$DW$365, DW_AT_bit_size(0x04)
    3363                      .dwattr $C$DW$365, DW_AT_data_member_location[DW_OP_plus_uconst 0x0]
    3364                      .dwattr $C$DW$365, DW_AT_accessibility(DW_ACCESS_public)
    3365              
    3366                      .dwendtag $C$DW$T$116
    3367              
    3368              
    3369              $C$DW$T$117     .dwtag  DW_TAG_union_type
    3370                      .dwattr $C$DW$T$117, DW_AT_name("AQCTLB_REG")
    3371                      .dwattr $C$DW$T$117, DW_AT_byte_size(0x01)
    3372              $C$DW$366       .dwtag  DW_TAG_member
    3373                      .dwattr $C$DW$366, DW_AT_type(*$C$DW$T$38)
    3374                      .dwattr $C$DW$366, DW_AT_name("all")
    3375                      .dwattr $C$DW$366, DW_AT_TI_symbol_name("_all")
    3376                      .dwattr $C$DW$366, DW_AT_data_member_location[DW_OP_plus_uconst 0x0]
    3377                      .dwattr $C$DW$366, DW_AT_accessibility(DW_ACCESS_public)
    3378              
    3379              $C$DW$367       .dwtag  DW_TAG_member
    3380                      .dwattr $C$DW$367, DW_AT_type(*$C$DW$T$116)
    3381                      .dwattr $C$DW$367, DW_AT_name("bit")
    3382                      .dwattr $C$DW$367, DW_AT_TI_symbol_name("_bit")
    3383                      .dwattr $C$DW$367, DW_AT_data_member_location[DW_OP_plus_uconst 0x0]
    3384                      .dwattr $C$DW$367, DW_AT_accessibility(DW_ACCESS_public)
    3385              
    3386                      .dwendtag $C$DW$T$117
    3387              
    3388              
TMS320C2000 Assembler PC v20.2.5 Fri Jan  6 17:23:28 2023

Copyright (c) 1996-2018 Texas Instruments Incorporated
DRV830x_SPI.asm                                                      PAGE   63

    3389              $C$DW$T$118     .dwtag  DW_TAG_structure_type
    3390                      .dwattr $C$DW$T$118, DW_AT_name("AQCTL_BITS")
    3391                      .dwattr $C$DW$T$118, DW_AT_byte_size(0x01)
    3392              $C$DW$368       .dwtag  DW_TAG_member
    3393                      .dwattr $C$DW$368, DW_AT_type(*$C$DW$T$38)
    3394                      .dwattr $C$DW$368, DW_AT_name("LDAQAMODE")
    3395                      .dwattr $C$DW$368, DW_AT_TI_symbol_name("_LDAQAMODE")
    3396                      .dwattr $C$DW$368, DW_AT_bit_offset(0x0e)
    3397                      .dwattr $C$DW$368, DW_AT_bit_size(0x02)
    3398                      .dwattr $C$DW$368, DW_AT_data_member_location[DW_OP_plus_uconst 0x0]
    3399                      .dwattr $C$DW$368, DW_AT_accessibility(DW_ACCESS_public)
    3400              
    3401              $C$DW$369       .dwtag  DW_TAG_member
    3402                      .dwattr $C$DW$369, DW_AT_type(*$C$DW$T$38)
    3403                      .dwattr $C$DW$369, DW_AT_name("LDAQBMODE")
    3404                      .dwattr $C$DW$369, DW_AT_TI_symbol_name("_LDAQBMODE")
    3405                      .dwattr $C$DW$369, DW_AT_bit_offset(0x0c)
    3406                      .dwattr $C$DW$369, DW_AT_bit_size(0x02)
    3407                      .dwattr $C$DW$369, DW_AT_data_member_location[DW_OP_plus_uconst 0x0]
    3408                      .dwattr $C$DW$369, DW_AT_accessibility(DW_ACCESS_public)
    3409              
    3410              $C$DW$370       .dwtag  DW_TAG_member
    3411                      .dwattr $C$DW$370, DW_AT_type(*$C$DW$T$38)
    3412                      .dwattr $C$DW$370, DW_AT_name("SHDWAQAMODE")
    3413                      .dwattr $C$DW$370, DW_AT_TI_symbol_name("_SHDWAQAMODE")
    3414                      .dwattr $C$DW$370, DW_AT_bit_offset(0x0b)
    3415                      .dwattr $C$DW$370, DW_AT_bit_size(0x01)
    3416                      .dwattr $C$DW$370, DW_AT_data_member_location[DW_OP_plus_uconst 0x0]
    3417                      .dwattr $C$DW$370, DW_AT_accessibility(DW_ACCESS_public)
    3418              
    3419              $C$DW$371       .dwtag  DW_TAG_member
    3420                      .dwattr $C$DW$371, DW_AT_type(*$C$DW$T$38)
    3421                      .dwattr $C$DW$371, DW_AT_name("rsvd1")
    3422                      .dwattr $C$DW$371, DW_AT_TI_symbol_name("_rsvd1")
    3423                      .dwattr $C$DW$371, DW_AT_bit_offset(0x0a)
    3424                      .dwattr $C$DW$371, DW_AT_bit_size(0x01)
    3425                      .dwattr $C$DW$371, DW_AT_data_member_location[DW_OP_plus_uconst 0x0]
    3426                      .dwattr $C$DW$371, DW_AT_accessibility(DW_ACCESS_public)
    3427              
    3428              $C$DW$372       .dwtag  DW_TAG_member
    3429                      .dwattr $C$DW$372, DW_AT_type(*$C$DW$T$38)
    3430                      .dwattr $C$DW$372, DW_AT_name("SHDWAQBMODE")
    3431                      .dwattr $C$DW$372, DW_AT_TI_symbol_name("_SHDWAQBMODE")
    3432                      .dwattr $C$DW$372, DW_AT_bit_offset(0x09)
    3433                      .dwattr $C$DW$372, DW_AT_bit_size(0x01)
    3434                      .dwattr $C$DW$372, DW_AT_data_member_location[DW_OP_plus_uconst 0x0]
    3435                      .dwattr $C$DW$372, DW_AT_accessibility(DW_ACCESS_public)
    3436              
    3437              $C$DW$373       .dwtag  DW_TAG_member
    3438                      .dwattr $C$DW$373, DW_AT_type(*$C$DW$T$38)
    3439                      .dwattr $C$DW$373, DW_AT_name("rsvd2")
    3440                      .dwattr $C$DW$373, DW_AT_TI_symbol_name("_rsvd2")
    3441                      .dwattr $C$DW$373, DW_AT_bit_offset(0x08)
    3442                      .dwattr $C$DW$373, DW_AT_bit_size(0x01)
    3443                      .dwattr $C$DW$373, DW_AT_data_member_location[DW_OP_plus_uconst 0x0]
TMS320C2000 Assembler PC v20.2.5 Fri Jan  6 17:23:28 2023

Copyright (c) 1996-2018 Texas Instruments Incorporated
DRV830x_SPI.asm                                                      PAGE   64

    3444                      .dwattr $C$DW$373, DW_AT_accessibility(DW_ACCESS_public)
    3445              
    3446              $C$DW$374       .dwtag  DW_TAG_member
    3447                      .dwattr $C$DW$374, DW_AT_type(*$C$DW$T$38)
    3448                      .dwattr $C$DW$374, DW_AT_name("LDAQASYNC")
    3449                      .dwattr $C$DW$374, DW_AT_TI_symbol_name("_LDAQASYNC")
    3450                      .dwattr $C$DW$374, DW_AT_bit_offset(0x06)
    3451                      .dwattr $C$DW$374, DW_AT_bit_size(0x02)
    3452                      .dwattr $C$DW$374, DW_AT_data_member_location[DW_OP_plus_uconst 0x0]
    3453                      .dwattr $C$DW$374, DW_AT_accessibility(DW_ACCESS_public)
    3454              
    3455              $C$DW$375       .dwtag  DW_TAG_member
    3456                      .dwattr $C$DW$375, DW_AT_type(*$C$DW$T$38)
    3457                      .dwattr $C$DW$375, DW_AT_name("LDAQBSYNC")
    3458                      .dwattr $C$DW$375, DW_AT_TI_symbol_name("_LDAQBSYNC")
    3459                      .dwattr $C$DW$375, DW_AT_bit_offset(0x04)
    3460                      .dwattr $C$DW$375, DW_AT_bit_size(0x02)
    3461                      .dwattr $C$DW$375, DW_AT_data_member_location[DW_OP_plus_uconst 0x0]
    3462                      .dwattr $C$DW$375, DW_AT_accessibility(DW_ACCESS_public)
    3463              
    3464              $C$DW$376       .dwtag  DW_TAG_member
    3465                      .dwattr $C$DW$376, DW_AT_type(*$C$DW$T$38)
    3466                      .dwattr $C$DW$376, DW_AT_name("rsvd3")
    3467                      .dwattr $C$DW$376, DW_AT_TI_symbol_name("_rsvd3")
    3468                      .dwattr $C$DW$376, DW_AT_bit_offset(0x00)
    3469                      .dwattr $C$DW$376, DW_AT_bit_size(0x04)
    3470                      .dwattr $C$DW$376, DW_AT_data_member_location[DW_OP_plus_uconst 0x0]
    3471                      .dwattr $C$DW$376, DW_AT_accessibility(DW_ACCESS_public)
    3472              
    3473                      .dwendtag $C$DW$T$118
    3474              
    3475              
    3476              $C$DW$T$119     .dwtag  DW_TAG_union_type
    3477                      .dwattr $C$DW$T$119, DW_AT_name("AQCTL_REG")
    3478                      .dwattr $C$DW$T$119, DW_AT_byte_size(0x01)
    3479              $C$DW$377       .dwtag  DW_TAG_member
    3480                      .dwattr $C$DW$377, DW_AT_type(*$C$DW$T$38)
    3481                      .dwattr $C$DW$377, DW_AT_name("all")
    3482                      .dwattr $C$DW$377, DW_AT_TI_symbol_name("_all")
    3483                      .dwattr $C$DW$377, DW_AT_data_member_location[DW_OP_plus_uconst 0x0]
    3484                      .dwattr $C$DW$377, DW_AT_accessibility(DW_ACCESS_public)
    3485              
    3486              $C$DW$378       .dwtag  DW_TAG_member
    3487                      .dwattr $C$DW$378, DW_AT_type(*$C$DW$T$118)
    3488                      .dwattr $C$DW$378, DW_AT_name("bit")
    3489                      .dwattr $C$DW$378, DW_AT_TI_symbol_name("_bit")
    3490                      .dwattr $C$DW$378, DW_AT_data_member_location[DW_OP_plus_uconst 0x0]
    3491                      .dwattr $C$DW$378, DW_AT_accessibility(DW_ACCESS_public)
    3492              
    3493                      .dwendtag $C$DW$T$119
    3494              
    3495              
    3496              $C$DW$T$120     .dwtag  DW_TAG_structure_type
    3497                      .dwattr $C$DW$T$120, DW_AT_name("AQSFRC_BITS")
    3498                      .dwattr $C$DW$T$120, DW_AT_byte_size(0x01)
TMS320C2000 Assembler PC v20.2.5 Fri Jan  6 17:23:28 2023

Copyright (c) 1996-2018 Texas Instruments Incorporated
DRV830x_SPI.asm                                                      PAGE   65

    3499              $C$DW$379       .dwtag  DW_TAG_member
    3500                      .dwattr $C$DW$379, DW_AT_type(*$C$DW$T$38)
    3501                      .dwattr $C$DW$379, DW_AT_name("ACTSFA")
    3502                      .dwattr $C$DW$379, DW_AT_TI_symbol_name("_ACTSFA")
