TMS320C2000 Assembler PC v20.2.5 Fri Jan  6 17:23:30 2023

Copyright (c) 1996-2018 Texas Instruments Incorporated
drv8305.asm                                                          PAGE    1

       1              ;***************************************************************
       2              ;* TMS320C2000 G3 C/C++ Codegen                               PC v20.2.5.LTS *
       3              ;* Date/Time created: Fri Jan  6 17:23:30 2023                 *
       4              ;***************************************************************
       5                      .compiler_opts --abi=coffabi --cla_support=cla0 --float_support=fpu32 --hll_source=on --mem_model:cod
       6                      .asg    XAR2, FP
       7              
       8              $C$DW$CU        .dwtag  DW_TAG_compile_unit
       9                      .dwattr $C$DW$CU, DW_AT_name("../drv8305.c")
      10                      .dwattr $C$DW$CU, DW_AT_producer("TI TMS320C2000 G3 C/C++ Codegen PC v20.2.5.LTS Copyright (c) 1996-2
      11                      .dwattr $C$DW$CU, DW_AT_TI_version(0x01)
      12                      .dwattr $C$DW$CU, DW_AT_comp_dir("C:\Users\jason\workspace_v10_4\MonoMtrServo_379D\F2837x_RAM")
      13              
      14              $C$DW$1 .dwtag  DW_TAG_subprogram
      15                      .dwattr $C$DW$1, DW_AT_name("DRV8305_SPI_Write")
      16                      .dwattr $C$DW$1, DW_AT_TI_symbol_name("_DRV8305_SPI_Write")
      17                      .dwattr $C$DW$1, DW_AT_type(*$C$DW$T$38)
      18                      .dwattr $C$DW$1, DW_AT_declaration
      19                      .dwattr $C$DW$1, DW_AT_external
      20              $C$DW$2 .dwtag  DW_TAG_formal_parameter
      21                      .dwattr $C$DW$2, DW_AT_type(*$C$DW$T$300)
      22              
      23              $C$DW$3 .dwtag  DW_TAG_formal_parameter
      24                      .dwattr $C$DW$3, DW_AT_type(*$C$DW$T$38)
      25              
      26                      .dwendtag $C$DW$1
      27              
      28              
      29              $C$DW$4 .dwtag  DW_TAG_subprogram
      30                      .dwattr $C$DW$4, DW_AT_name("DRV8305_SPI_Read")
      31                      .dwattr $C$DW$4, DW_AT_TI_symbol_name("_DRV8305_SPI_Read")
      32                      .dwattr $C$DW$4, DW_AT_type(*$C$DW$T$38)
      33                      .dwattr $C$DW$4, DW_AT_declaration
      34                      .dwattr $C$DW$4, DW_AT_external
      35              $C$DW$5 .dwtag  DW_TAG_formal_parameter
      36                      .dwattr $C$DW$5, DW_AT_type(*$C$DW$T$300)
      37              
      38              $C$DW$6 .dwtag  DW_TAG_formal_parameter
      39                      .dwattr $C$DW$6, DW_AT_type(*$C$DW$T$38)
      40              
      41                      .dwendtag $C$DW$4
      42              
      43              ;       C:\ti\ccs1040\ccs\tools\compiler\ti-cgt-c2000_20.2.5.LTS\bin\opt2000.exe C:\\Users\\jason\\AppData\\L
      44              ;       C:\ti\ccs1040\ccs\tools\compiler\ti-cgt-c2000_20.2.5.LTS\bin\ac2000.exe -@C:\\Users\\jason\\AppData\\
      45 00000000               .sect   ".text"
      46                      .clink
      47                      .global _InitDRV8305Regs
      48              
      49              $C$DW$7 .dwtag  DW_TAG_subprogram
      50                      .dwattr $C$DW$7, DW_AT_name("InitDRV8305Regs")
      51                      .dwattr $C$DW$7, DW_AT_low_pc(_InitDRV8305Regs)
      52                      .dwattr $C$DW$7, DW_AT_high_pc(0x00)
      53                      .dwattr $C$DW$7, DW_AT_TI_symbol_name("_InitDRV8305Regs")
      54                      .dwattr $C$DW$7, DW_AT_external
      55                      .dwattr $C$DW$7, DW_AT_TI_begin_file("../drv8305.c")
TMS320C2000 Assembler PC v20.2.5 Fri Jan  6 17:23:30 2023

Copyright (c) 1996-2018 Texas Instruments Incorporated
drv8305.asm                                                          PAGE    2

      56                      .dwattr $C$DW$7, DW_AT_TI_begin_line(0x18)
      57                      .dwattr $C$DW$7, DW_AT_TI_begin_column(0x06)
      58                      .dwattr $C$DW$7, DW_AT_TI_max_frame_size(-4)
      59                      .dwpsn  file "../drv8305.c",line 25,column 1,is_stmt,address _InitDRV8305Regs,isa 0
      60              
      61                      .dwfde $C$DW$CIE, _InitDRV8305Regs
      62              $C$DW$8 .dwtag  DW_TAG_formal_parameter
      63                      .dwattr $C$DW$8, DW_AT_name("motor")
      64                      .dwattr $C$DW$8, DW_AT_TI_symbol_name("_motor")
      65                      .dwattr $C$DW$8, DW_AT_type(*$C$DW$T$300)
      66                      .dwattr $C$DW$8, DW_AT_location[DW_OP_reg12]
      67              
      68              
      69              ;***************************************************************
      70              ;* FNAME: _InitDRV8305Regs              FR SIZE:   2           *
      71              ;*                                                             *
      72              ;* FUNCTION ENVIRONMENT                                        *
      73              ;*                                                             *
      74              ;* FUNCTION PROPERTIES                                         *
      75              ;*                            0 Parameter,  0 Auto,  2 SOE     *
      76              ;***************************************************************
      77              
      78              _InitDRV8305Regs:
      79              ;* AR4   assigned to _motor
      80              $C$DW$9 .dwtag  DW_TAG_variable
      81                      .dwattr $C$DW$9, DW_AT_name("motor")
      82                      .dwattr $C$DW$9, DW_AT_TI_symbol_name("_motor")
      83                      .dwattr $C$DW$9, DW_AT_type(*$C$DW$T$301)
      84                      .dwattr $C$DW$9, DW_AT_location[DW_OP_reg12]
      85              
      86                      .dwcfi  cfa_offset, -2
      87                      .dwcfi  save_reg_to_mem, 26, 0
      88 00000000 B2BD          MOVL      *SP++,XAR1            ; [CPU_ALU] 
      89                      .dwcfi  save_reg_to_mem, 7, 2
      90                      .dwcfi  cfa_offset, -4
      91                      .dwpsn  file "../drv8305.c",line 26,column 2,is_stmt,isa 0
      92 00000001 8D00          MOVL      XAR0,#436             ; [CPU_ALU] |26| 
         00000002 01B4 
      93 00000003 2B94          MOV       *+XAR4[AR0],#0        ; [CPU_ALU] |26| 
      94                      .dwpsn  file "../drv8305.c",line 29,column 2,is_stmt,isa 0
      95 00000004 8D40          MOVL      XAR1,#440             ; [CPU_ALU] |29| 
         00000005 01B8 
      96                      .dwpsn  file "../drv8305.c",line 27,column 2,is_stmt,isa 0
      97 00000006 8D00          MOVL      XAR0,#437             ; [CPU_ALU] |27| 
         00000007 01B5 
      98 00000008 2B94          MOV       *+XAR4[AR0],#0        ; [CPU_ALU] |27| 
      99                      .dwpsn  file "../drv8305.c",line 28,column 2,is_stmt,isa 0
     100 00000009 8D00          MOVL      XAR0,#438             ; [CPU_ALU] |28| 
         0000000a 01B6 
     101 0000000b 2B94          MOV       *+XAR4[AR0],#0        ; [CPU_ALU] |28| 
     102                      .dwpsn  file "../drv8305.c",line 30,column 2,is_stmt,isa 0
     103 0000000c 8D00          MOVL      XAR0,#441             ; [CPU_ALU] |30| 
         0000000d 01B9 
     104                      .dwpsn  file "../drv8305.c",line 29,column 2,is_stmt,isa 0
     105 0000000e 2B9C          MOV       *+XAR4[AR1],#0        ; [CPU_ALU] |29| 
TMS320C2000 Assembler PC v20.2.5 Fri Jan  6 17:23:30 2023

Copyright (c) 1996-2018 Texas Instruments Incorporated
drv8305.asm                                                          PAGE    3

     106                      .dwpsn  file "../drv8305.c",line 34,column 2,is_stmt,isa 0
     107 0000000f 8D40          MOVL      XAR1,#436             ; [CPU_ALU] |34| 
         00000010 01B4 
     108                      .dwpsn  file "../drv8305.c",line 30,column 2,is_stmt,isa 0
     109 00000011 2B94          MOV       *+XAR4[AR0],#0        ; [CPU_ALU] |30| 
     110                      .dwpsn  file "../drv8305.c",line 31,column 2,is_stmt,isa 0
     111 00000012 8D00          MOVL      XAR0,#442             ; [CPU_ALU] |31| 
         00000013 01BA 
     112 00000014 2B94          MOV       *+XAR4[AR0],#0        ; [CPU_ALU] |31| 
     113                      .dwpsn  file "../drv8305.c",line 32,column 2,is_stmt,isa 0
     114 00000015 8D00          MOVL      XAR0,#443             ; [CPU_ALU] |32| 
         00000016 01BB 
     115 00000017 2B94          MOV       *+XAR4[AR0],#0        ; [CPU_ALU] |32| 
     116                      .dwpsn  file "../drv8305.c",line 38,column 2,is_stmt,isa 0
     117 00000018 8D00          MOVL      XAR0,#437             ; [CPU_ALU] |38| 
         00000019 01B5 
     118                      .dwpsn  file "../drv8305.c",line 34,column 2,is_stmt,isa 0
     119 0000001a CC9C          AND       AL,*+XAR4[AR1],#0xfc00 ; [CPU_ALU] |34| 
         0000001b FC00 
     120 0000001c 5044          ORB       AL,#0x44              ; [CPU_ALU] |34| 
     121 0000001d 969C          MOV       *+XAR4[AR1],AL        ; [CPU_ALU] |34| 
     122                      .dwpsn  file "../drv8305.c",line 38,column 2,is_stmt,isa 0
     123 0000001e 8D40          MOVL      XAR1,#437             ; [CPU_ALU] |38| 
         0000001f 01B5 
     124 00000020 CC94          AND       AL,*+XAR4[AR0],#0xfc00 ; [CPU_ALU] |38| 
         00000021 FC00 
     125 00000022 5044          ORB       AL,#0x44              ; [CPU_ALU] |38| 
     126                      .dwpsn  file "../drv8305.c",line 42,column 2,is_stmt,isa 0
     127 00000023 8D00          MOVL      XAR0,#438             ; [CPU_ALU] |42| 
         00000024 01B6 
     128                      .dwpsn  file "../drv8305.c",line 38,column 2,is_stmt,isa 0
     129 00000025 969C          MOV       *+XAR4[AR1],AL        ; [CPU_ALU] |38| 
     130                      .dwpsn  file "../drv8305.c",line 42,column 2,is_stmt,isa 0
     131 00000026 8D40          MOVL      XAR1,#438             ; [CPU_ALU] |42| 
         00000027 01B6 
     132 00000028 CC94          AND       AL,*+XAR4[AR0],#0xfc00 ; [CPU_ALU] |42| 
         00000029 FC00 
     133 0000002a 5096          ORB       AL,#0x96              ; [CPU_ALU] |42| 
     134                      .dwpsn  file "../drv8305.c",line 48,column 2,is_stmt,isa 0
     135 0000002b 8D00          MOVL      XAR0,#440             ; [CPU_ALU] |48| 
         0000002c 01B8 
     136                      .dwpsn  file "../drv8305.c",line 42,column 2,is_stmt,isa 0
     137 0000002d 969C          MOV       *+XAR4[AR1],AL        ; [CPU_ALU] |42| 
     138                      .dwpsn  file "../drv8305.c",line 48,column 2,is_stmt,isa 0
     139 0000002e CC94          AND       AL,*+XAR4[AR0],#0xf800 ; [CPU_ALU] |48| 
         0000002f F800 
     140 00000030 5020          ORB       AL,#0x20              ; [CPU_ALU] |48| 
     141 00000031 9694          MOV       *+XAR4[AR0],AL        ; [CPU_ALU] |48| 
     142                      .dwpsn  file "../drv8305.c",line 59,column 2,is_stmt,isa 0
     143 00000032 A8A9          MOVL      ACC,XAR4              ; [CPU_ALU] |59| 
     144 00000033 FF10          ADD       ACC,#441 << 0         ; [CPU_ALU] |59| 
         00000034 01B9 
     145 00000035 83A9          MOVL      XAR5,ACC              ; [CPU_ALU] |59| 
     146                      .dwpsn  file "../drv8305.c",line 73,column 2,is_stmt,isa 0
     147 00000036 8D00          MOVL      XAR0,#442             ; [CPU_ALU] |73| 
TMS320C2000 Assembler PC v20.2.5 Fri Jan  6 17:23:30 2023

Copyright (c) 1996-2018 Texas Instruments Incorporated
drv8305.asm                                                          PAGE    4

         00000037 01BA 
     148 00000038 8D40          MOVL      XAR1,#442             ; [CPU_ALU] |73| 
         00000039 01BA 
     149                      .dwpsn  file "../drv8305.c",line 59,column 2,is_stmt,isa 0
     150 0000003a 18C5          AND       *+XAR5[0],#0xf800     ; [CPU_ALU] |59| 
         0000003b F800 
     151                      .dwpsn  file "../drv8305.c",line 73,column 2,is_stmt,isa 0
     152 0000003c CC94          AND       AL,*+XAR4[AR0],#0xfde0 ; [CPU_ALU] |73| 
         0000003d FDE0 
     153 0000003e 1AA9          OR        AL,#0x010a            ; [CPU_ALU] |73| 
         0000003f 010A 
     154                      .dwpsn  file "../drv8305.c",line 78,column 2,is_stmt,isa 0
     155 00000040 8D00          MOVL      XAR0,#443             ; [CPU_ALU] |78| 
         00000041 01BB 
     156                      .dwpsn  file "../drv8305.c",line 73,column 2,is_stmt,isa 0
     157 00000042 969C          MOV       *+XAR4[AR1],AL        ; [CPU_ALU] |73| 
     158                      .dwpsn  file "../drv8305.c",line 78,column 2,is_stmt,isa 0
     159 00000043 CC94          AND       AL,*+XAR4[AR0],#0xffc0 ; [CPU_ALU] |78| 
         00000044 FFC0 
     160 00000045 50C8          ORB       AL,#0xc8              ; [CPU_ALU] |78| 
     161 00000046 9694          MOV       *+XAR4[AR0],AL        ; [CPU_ALU] |78| 
     162 00000047 8BBE          MOVL      XAR1,*--SP            ; [CPU_ALU] 
     163                      .dwcfi  cfa_offset, -2
     164                      .dwcfi  restore_reg, 7
     165              $C$DW$10        .dwtag  DW_TAG_TI_branch
     166                      .dwattr $C$DW$10, DW_AT_low_pc(0x00)
     167                      .dwattr $C$DW$10, DW_AT_TI_return
     168              
     169 00000048 0006          LRETR     ; [CPU_ALU] 
     170                      ; return occurs ; [] 
     171                      .dwattr $C$DW$7, DW_AT_TI_end_file("../drv8305.c")
     172                      .dwattr $C$DW$7, DW_AT_TI_end_line(0x52)
     173                      .dwattr $C$DW$7, DW_AT_TI_end_column(0x01)
     174                      .dwendentry
     175                      .dwendtag $C$DW$7
     176              
     177 00000049               .sect   ".text"
     178                      .clink
     179                      .global _InitDRV8305
     180              
     181              $C$DW$11        .dwtag  DW_TAG_subprogram
     182                      .dwattr $C$DW$11, DW_AT_name("InitDRV8305")
     183                      .dwattr $C$DW$11, DW_AT_low_pc(_InitDRV8305)
     184                      .dwattr $C$DW$11, DW_AT_high_pc(0x00)
     185                      .dwattr $C$DW$11, DW_AT_TI_symbol_name("_InitDRV8305")
     186                      .dwattr $C$DW$11, DW_AT_external
     187                      .dwattr $C$DW$11, DW_AT_TI_begin_file("../drv8305.c")
     188                      .dwattr $C$DW$11, DW_AT_TI_begin_line(0x59)
     189                      .dwattr $C$DW$11, DW_AT_TI_begin_column(0x06)
     190                      .dwattr $C$DW$11, DW_AT_TI_max_frame_size(-4)
     191                      .dwpsn  file "../drv8305.c",line 90,column 1,is_stmt,address _InitDRV8305,isa 0
     192              
     193                      .dwfde $C$DW$CIE, _InitDRV8305
     194              $C$DW$12        .dwtag  DW_TAG_formal_parameter
     195                      .dwattr $C$DW$12, DW_AT_name("motor")
TMS320C2000 Assembler PC v20.2.5 Fri Jan  6 17:23:30 2023

Copyright (c) 1996-2018 Texas Instruments Incorporated
drv8305.asm                                                          PAGE    5

     196                      .dwattr $C$DW$12, DW_AT_TI_symbol_name("_motor")
     197                      .dwattr $C$DW$12, DW_AT_type(*$C$DW$T$300)
     198                      .dwattr $C$DW$12, DW_AT_location[DW_OP_reg12]
     199              
     200              
     201              ;***************************************************************
     202              ;* FNAME: _InitDRV8305                  FR SIZE:   2           *
     203              ;*                                                             *
     204              ;* FUNCTION ENVIRONMENT                                        *
     205              ;*                                                             *
     206              ;* FUNCTION PROPERTIES                                         *
     207              ;*                            0 Parameter,  0 Auto,  2 SOE     *
     208              ;***************************************************************
     209              
     210              _InitDRV8305:
     211              ;* AL    assigned to $O$T1
     212              ;* AR1   assigned to _motor
     213              $C$DW$13        .dwtag  DW_TAG_variable
     214                      .dwattr $C$DW$13, DW_AT_name("motor")
     215                      .dwattr $C$DW$13, DW_AT_TI_symbol_name("_motor")
     216                      .dwattr $C$DW$13, DW_AT_type(*$C$DW$T$301)
     217                      .dwattr $C$DW$13, DW_AT_location[DW_OP_reg6]
     218              
     219              ;* AR0   assigned to _tmp1
     220              $C$DW$14        .dwtag  DW_TAG_variable
     221                      .dwattr $C$DW$14, DW_AT_name("tmp1")
     222                      .dwattr $C$DW$14, DW_AT_TI_symbol_name("_tmp1")
     223                      .dwattr $C$DW$14, DW_AT_type(*$C$DW$T$38)
     224                      .dwattr $C$DW$14, DW_AT_location[DW_OP_reg4]
     225              
     226              ;* AR5   assigned to _ptr1
     227              $C$DW$15        .dwtag  DW_TAG_variable
     228                      .dwattr $C$DW$15, DW_AT_name("ptr1")
     229                      .dwattr $C$DW$15, DW_AT_TI_symbol_name("_ptr1")
     230                      .dwattr $C$DW$15, DW_AT_type(*$C$DW$T$306)
     231                      .dwattr $C$DW$15, DW_AT_location[DW_OP_reg14]
     232              
     233              ;* AR4   assigned to _ptr2
     234              $C$DW$16        .dwtag  DW_TAG_variable
     235                      .dwattr $C$DW$16, DW_AT_name("ptr2")
     236                      .dwattr $C$DW$16, DW_AT_TI_symbol_name("_ptr2")
     237                      .dwattr $C$DW$16, DW_AT_type(*$C$DW$T$306)
     238                      .dwattr $C$DW$16, DW_AT_location[DW_OP_reg12]
     239              
     240                      .dwcfi  cfa_offset, -2
     241                      .dwcfi  save_reg_to_mem, 26, 0
     242 00000049 B2BD          MOVL      *SP++,XAR1            ; [CPU_ALU] 
     243                      .dwcfi  save_reg_to_mem, 7, 2
     244                      .dwcfi  cfa_offset, -4
     245                      .dwpsn  file "../drv8305.c",line 102,column 2,is_stmt,isa 0
     246 0000004a 9A05          MOVB      AL,#5                 ; [CPU_ALU] |102| 
     247                      .dwpsn  file "../drv8305.c",line 90,column 1,is_stmt,isa 0
     248 0000004b 8BA4          MOVL      XAR1,XAR4             ; [CPU_ALU] |90| 
     249                      .dwpsn  file "../drv8305.c",line 102,column 2,is_stmt,isa 0
     250              $C$DW$17        .dwtag  DW_TAG_TI_branch
TMS320C2000 Assembler PC v20.2.5 Fri Jan  6 17:23:30 2023

Copyright (c) 1996-2018 Texas Instruments Incorporated
drv8305.asm                                                          PAGE    6

     251                      .dwattr $C$DW$17, DW_AT_low_pc(0x00)
     252                      .dwattr $C$DW$17, DW_AT_name("_DRV8305_SPI_Write")
     253                      .dwattr $C$DW$17, DW_AT_TI_call
     254              
     255 0000004c 7640!         LCR       #_DRV8305_SPI_Write   ; [CPU_ALU] |102| 
         0000004d 0000 
     256                      ; call occurs [#_DRV8305_SPI_Write] ; [] |102| 
     257                      .dwpsn  file "../drv8305.c",line 103,column 2,is_stmt,isa 0
     258 0000004e 9A06          MOVB      AL,#6                 ; [CPU_ALU] |103| 
     259 0000004f 8AA1          MOVL      XAR4,XAR1             ; [CPU_ALU] |103| 
     260              $C$DW$18        .dwtag  DW_TAG_TI_branch
     261                      .dwattr $C$DW$18, DW_AT_low_pc(0x00)
     262                      .dwattr $C$DW$18, DW_AT_name("_DRV8305_SPI_Write")
     263                      .dwattr $C$DW$18, DW_AT_TI_call
     264              
     265 00000050 7640!         LCR       #_DRV8305_SPI_Write   ; [CPU_ALU] |103| 
         00000051 0000 
     266                      ; call occurs [#_DRV8305_SPI_Write] ; [] |103| 
     267                      .dwpsn  file "../drv8305.c",line 104,column 2,is_stmt,isa 0
     268 00000052 9A07          MOVB      AL,#7                 ; [CPU_ALU] |104| 
     269 00000053 8AA1          MOVL      XAR4,XAR1             ; [CPU_ALU] |104| 
     270              $C$DW$19        .dwtag  DW_TAG_TI_branch
     271                      .dwattr $C$DW$19, DW_AT_low_pc(0x00)
     272                      .dwattr $C$DW$19, DW_AT_name("_DRV8305_SPI_Write")
     273                      .dwattr $C$DW$19, DW_AT_TI_call
     274              
     275 00000054 7640!         LCR       #_DRV8305_SPI_Write   ; [CPU_ALU] |104| 
         00000055 0000 
     276                      ; call occurs [#_DRV8305_SPI_Write] ; [] |104| 
     277                      .dwpsn  file "../drv8305.c",line 105,column 2,is_stmt,isa 0
     278 00000056 9A09          MOVB      AL,#9                 ; [CPU_ALU] |105| 
     279 00000057 8AA1          MOVL      XAR4,XAR1             ; [CPU_ALU] |105| 
     280              $C$DW$20        .dwtag  DW_TAG_TI_branch
     281                      .dwattr $C$DW$20, DW_AT_low_pc(0x00)
     282                      .dwattr $C$DW$20, DW_AT_name("_DRV8305_SPI_Write")
     283                      .dwattr $C$DW$20, DW_AT_TI_call
     284              
     285 00000058 7640!         LCR       #_DRV8305_SPI_Write   ; [CPU_ALU] |105| 
         00000059 0000 
     286                      ; call occurs [#_DRV8305_SPI_Write] ; [] |105| 
     287                      .dwpsn  file "../drv8305.c",line 106,column 2,is_stmt,isa 0
     288 0000005a 9A0A          MOVB      AL,#10                ; [CPU_ALU] |106| 
     289 0000005b 8AA1          MOVL      XAR4,XAR1             ; [CPU_ALU] |106| 
     290              $C$DW$21        .dwtag  DW_TAG_TI_branch
     291                      .dwattr $C$DW$21, DW_AT_low_pc(0x00)
     292                      .dwattr $C$DW$21, DW_AT_name("_DRV8305_SPI_Write")
     293                      .dwattr $C$DW$21, DW_AT_TI_call
     294              
     295 0000005c 7640!         LCR       #_DRV8305_SPI_Write   ; [CPU_ALU] |106| 
         0000005d 0000 
     296                      ; call occurs [#_DRV8305_SPI_Write] ; [] |106| 
     297                      .dwpsn  file "../drv8305.c",line 107,column 2,is_stmt,isa 0
     298 0000005e 9A0B          MOVB      AL,#11                ; [CPU_ALU] |107| 
     299 0000005f 8AA1          MOVL      XAR4,XAR1             ; [CPU_ALU] |107| 
     300              $C$DW$22        .dwtag  DW_TAG_TI_branch
TMS320C2000 Assembler PC v20.2.5 Fri Jan  6 17:23:30 2023

Copyright (c) 1996-2018 Texas Instruments Incorporated
drv8305.asm                                                          PAGE    7

     301                      .dwattr $C$DW$22, DW_AT_low_pc(0x00)
     302                      .dwattr $C$DW$22, DW_AT_name("_DRV8305_SPI_Write")
     303                      .dwattr $C$DW$22, DW_AT_TI_call
     304              
     305 00000060 7640!         LCR       #_DRV8305_SPI_Write   ; [CPU_ALU] |107| 
         00000061 0000 
     306                      ; call occurs [#_DRV8305_SPI_Write] ; [] |107| 
     307                      .dwpsn  file "../drv8305.c",line 108,column 2,is_stmt,isa 0
     308 00000062 9A0C          MOVB      AL,#12                ; [CPU_ALU] |108| 
     309 00000063 8AA1          MOVL      XAR4,XAR1             ; [CPU_ALU] |108| 
     310              $C$DW$23        .dwtag  DW_TAG_TI_branch
     311                      .dwattr $C$DW$23, DW_AT_low_pc(0x00)
     312                      .dwattr $C$DW$23, DW_AT_name("_DRV8305_SPI_Write")
     313                      .dwattr $C$DW$23, DW_AT_TI_call
     314              
     315 00000064 7640!         LCR       #_DRV8305_SPI_Write   ; [CPU_ALU] |108| 
         00000065 0000 
     316                      ; call occurs [#_DRV8305_SPI_Write] ; [] |108| 
     317                      .dwpsn  file "../drv8305.c",line 113,column 2,is_stmt,isa 0
     318 00000066 9A01          MOVB      AL,#1                 ; [CPU_ALU] |113| 
     319 00000067 8AA1          MOVL      XAR4,XAR1             ; [CPU_ALU] |113| 
     320              $C$DW$24        .dwtag  DW_TAG_TI_branch
     321                      .dwattr $C$DW$24, DW_AT_low_pc(0x00)
     322                      .dwattr $C$DW$24, DW_AT_name("_DRV8305_SPI_Read")
     323                      .dwattr $C$DW$24, DW_AT_TI_call
     324              
     325 00000068 7640!         LCR       #_DRV8305_SPI_Read    ; [CPU_ALU] |113| 
         00000069 0000 
     326                      ; call occurs [#_DRV8305_SPI_Read] ; [] |113| 
     327 0000006a 8D00          MOVL      XAR0,#432             ; [CPU_ALU] |113| 
         0000006b 01B0 
     328 0000006c CCA9          AND       AL,AL,#0x05ff         ; [CPU_ALU] |113| 
         0000006d 05FF 
     329 0000006e 9691          MOV       *+XAR1[AR0],AL        ; [CPU_ALU] |113| 
     330                      .dwpsn  file "../drv8305.c",line 114,column 2,is_stmt,isa 0
     331 0000006f 8AA1          MOVL      XAR4,XAR1             ; [CPU_ALU] |114| 
     332 00000070 9A02          MOVB      AL,#2                 ; [CPU_ALU] |114| 
     333              $C$DW$25        .dwtag  DW_TAG_TI_branch
     334                      .dwattr $C$DW$25, DW_AT_low_pc(0x00)
     335                      .dwattr $C$DW$25, DW_AT_name("_DRV8305_SPI_Read")
     336                      .dwattr $C$DW$25, DW_AT_TI_call
     337              
     338 00000071 7640!         LCR       #_DRV8305_SPI_Read    ; [CPU_ALU] |114| 
         00000072 0000 
     339                      ; call occurs [#_DRV8305_SPI_Read] ; [] |114| 
     340 00000073 8D00          MOVL      XAR0,#433             ; [CPU_ALU] |114| 
         00000074 01B1 
     341 00000075 CCA9          AND       AL,AL,#0x07e7         ; [CPU_ALU] |114| 
         00000076 07E7 
     342                      .dwpsn  file "../drv8305.c",line 115,column 2,is_stmt,isa 0
     343 00000077 8AA1          MOVL      XAR4,XAR1             ; [CPU_ALU] |115| 
     344                      .dwpsn  file "../drv8305.c",line 114,column 2,is_stmt,isa 0
     345 00000078 9691          MOV       *+XAR1[AR0],AL        ; [CPU_ALU] |114| 
     346                      .dwpsn  file "../drv8305.c",line 115,column 2,is_stmt,isa 0
     347 00000079 9A03          MOVB      AL,#3                 ; [CPU_ALU] |115| 
TMS320C2000 Assembler PC v20.2.5 Fri Jan  6 17:23:30 2023

Copyright (c) 1996-2018 Texas Instruments Incorporated
drv8305.asm                                                          PAGE    8

     348              $C$DW$26        .dwtag  DW_TAG_TI_branch
     349                      .dwattr $C$DW$26, DW_AT_low_pc(0x00)
     350                      .dwattr $C$DW$26, DW_AT_name("_DRV8305_SPI_Read")
     351                      .dwattr $C$DW$26, DW_AT_TI_call
     352              
     353 0000007a 7640!         LCR       #_DRV8305_SPI_Read    ; [CPU_ALU] |115| 
         0000007b 0000 
     354                      ; call occurs [#_DRV8305_SPI_Read] ; [] |115| 
     355 0000007c 8D00          MOVL      XAR0,#434             ; [CPU_ALU] |115| 
         0000007d 01B2 
     356 0000007e CCA9          AND       AL,AL,#0x0777         ; [CPU_ALU] |115| 
         0000007f 0777 
     357                      .dwpsn  file "../drv8305.c",line 116,column 2,is_stmt,isa 0
     358 00000080 8AA1          MOVL      XAR4,XAR1             ; [CPU_ALU] |116| 
     359                      .dwpsn  file "../drv8305.c",line 115,column 2,is_stmt,isa 0
     360 00000081 9691          MOV       *+XAR1[AR0],AL        ; [CPU_ALU] |115| 
     361                      .dwpsn  file "../drv8305.c",line 116,column 2,is_stmt,isa 0
     362 00000082 9A04          MOVB      AL,#4                 ; [CPU_ALU] |116| 
     363              $C$DW$27        .dwtag  DW_TAG_TI_branch
     364                      .dwattr $C$DW$27, DW_AT_low_pc(0x00)
     365                      .dwattr $C$DW$27, DW_AT_name("_DRV8305_SPI_Read")
     366                      .dwattr $C$DW$27, DW_AT_TI_call
     367              
     368 00000083 7640!         LCR       #_DRV8305_SPI_Read    ; [CPU_ALU] |116| 
         00000084 0000 
     369                      ; call occurs [#_DRV8305_SPI_Read] ; [] |116| 
     370 00000085 8D00          MOVL      XAR0,#435             ; [CPU_ALU] |116| 
         00000086 01B3 
     371 00000087 CCA9          AND       AL,AL,#0x07e0         ; [CPU_ALU] |116| 
         00000088 07E0 
     372                      .dwpsn  file "../drv8305.c",line 117,column 2,is_stmt,isa 0
     373 00000089 8AA1          MOVL      XAR4,XAR1             ; [CPU_ALU] |117| 
     374                      .dwpsn  file "../drv8305.c",line 116,column 2,is_stmt,isa 0
     375 0000008a 9691          MOV       *+XAR1[AR0],AL        ; [CPU_ALU] |116| 
     376                      .dwpsn  file "../drv8305.c",line 117,column 2,is_stmt,isa 0
     377 0000008b 9A05          MOVB      AL,#5                 ; [CPU_ALU] |117| 
     378              $C$DW$28        .dwtag  DW_TAG_TI_branch
     379                      .dwattr $C$DW$28, DW_AT_low_pc(0x00)
     380                      .dwattr $C$DW$28, DW_AT_name("_DRV8305_SPI_Write")
     381                      .dwattr $C$DW$28, DW_AT_TI_call
     382              
     383 0000008c 7640!         LCR       #_DRV8305_SPI_Write   ; [CPU_ALU] |117| 
         0000008d 0000 
     384                      ; call occurs [#_DRV8305_SPI_Write] ; [] |117| 
     385 0000008e 8D00          MOVL      XAR0,#444             ; [CPU_ALU] |117| 
         0000008f 01BC 
     386 00000090 CCA9          AND       AL,AL,#0x03ff         ; [CPU_ALU] |117| 
         00000091 03FF 
     387                      .dwpsn  file "../drv8305.c",line 118,column 2,is_stmt,isa 0
     388 00000092 8AA1          MOVL      XAR4,XAR1             ; [CPU_ALU] |118| 
     389                      .dwpsn  file "../drv8305.c",line 117,column 2,is_stmt,isa 0
     390 00000093 9691          MOV       *+XAR1[AR0],AL        ; [CPU_ALU] |117| 
     391                      .dwpsn  file "../drv8305.c",line 118,column 2,is_stmt,isa 0
     392 00000094 9A06          MOVB      AL,#6                 ; [CPU_ALU] |118| 
     393              $C$DW$29        .dwtag  DW_TAG_TI_branch
TMS320C2000 Assembler PC v20.2.5 Fri Jan  6 17:23:30 2023

Copyright (c) 1996-2018 Texas Instruments Incorporated
drv8305.asm                                                          PAGE    9

     394                      .dwattr $C$DW$29, DW_AT_low_pc(0x00)
     395                      .dwattr $C$DW$29, DW_AT_name("_DRV8305_SPI_Write")
     396                      .dwattr $C$DW$29, DW_AT_TI_call
     397              
     398 00000095 7640!         LCR       #_DRV8305_SPI_Write   ; [CPU_ALU] |118| 
         00000096 0000 
     399                      ; call occurs [#_DRV8305_SPI_Write] ; [] |118| 
     400 00000097 8D00          MOVL      XAR0,#445             ; [CPU_ALU] |118| 
         00000098 01BD 
     401 00000099 CCA9          AND       AL,AL,#0x03ff         ; [CPU_ALU] |118| 
         0000009a 03FF 
     402                      .dwpsn  file "../drv8305.c",line 119,column 2,is_stmt,isa 0
     403 0000009b 8AA1          MOVL      XAR4,XAR1             ; [CPU_ALU] |119| 
     404                      .dwpsn  file "../drv8305.c",line 118,column 2,is_stmt,isa 0
     405 0000009c 9691          MOV       *+XAR1[AR0],AL        ; [CPU_ALU] |118| 
     406                      .dwpsn  file "../drv8305.c",line 119,column 2,is_stmt,isa 0
     407 0000009d 9A07          MOVB      AL,#7                 ; [CPU_ALU] |119| 
     408              $C$DW$30        .dwtag  DW_TAG_TI_branch
     409                      .dwattr $C$DW$30, DW_AT_low_pc(0x00)
     410                      .dwattr $C$DW$30, DW_AT_name("_DRV8305_SPI_Write")
     411                      .dwattr $C$DW$30, DW_AT_TI_call
     412              
     413 0000009e 7640!         LCR       #_DRV8305_SPI_Write   ; [CPU_ALU] |119| 
         0000009f 0000 
     414                      ; call occurs [#_DRV8305_SPI_Write] ; [] |119| 
     415 000000a0 8D00          MOVL      XAR0,#446             ; [CPU_ALU] |119| 
         000000a1 01BE 
     416 000000a2 CCA9          AND       AL,AL,#0x03ff         ; [CPU_ALU] |119| 
         000000a3 03FF 
     417                      .dwpsn  file "../drv8305.c",line 120,column 2,is_stmt,isa 0
     418 000000a4 8AA1          MOVL      XAR4,XAR1             ; [CPU_ALU] |120| 
     419                      .dwpsn  file "../drv8305.c",line 119,column 2,is_stmt,isa 0
     420 000000a5 9691          MOV       *+XAR1[AR0],AL        ; [CPU_ALU] |119| 
     421                      .dwpsn  file "../drv8305.c",line 120,column 2,is_stmt,isa 0
     422 000000a6 9A09          MOVB      AL,#9                 ; [CPU_ALU] |120| 
     423              $C$DW$31        .dwtag  DW_TAG_TI_branch
     424                      .dwattr $C$DW$31, DW_AT_low_pc(0x00)
     425                      .dwattr $C$DW$31, DW_AT_name("_DRV8305_SPI_Write")
     426                      .dwattr $C$DW$31, DW_AT_TI_call
     427              
     428 000000a7 7640!         LCR       #_DRV8305_SPI_Write   ; [CPU_ALU] |120| 
         000000a8 0000 
     429                      ; call occurs [#_DRV8305_SPI_Write] ; [] |120| 
     430 000000a9 8D00          MOVL      XAR0,#447             ; [CPU_ALU] |120| 
         000000aa 01BF 
     431 000000ab CCA9          AND       AL,AL,#0x07ff         ; [CPU_ALU] |120| 
         000000ac 07FF 
     432                      .dwpsn  file "../drv8305.c",line 121,column 2,is_stmt,isa 0
     433 000000ad 8AA1          MOVL      XAR4,XAR1             ; [CPU_ALU] |121| 
     434                      .dwpsn  file "../drv8305.c",line 120,column 2,is_stmt,isa 0
     435 000000ae 9691          MOV       *+XAR1[AR0],AL        ; [CPU_ALU] |120| 
     436                      .dwpsn  file "../drv8305.c",line 121,column 2,is_stmt,isa 0
     437 000000af 9A0A          MOVB      AL,#10                ; [CPU_ALU] |121| 
     438              $C$DW$32        .dwtag  DW_TAG_TI_branch
     439                      .dwattr $C$DW$32, DW_AT_low_pc(0x00)
TMS320C2000 Assembler PC v20.2.5 Fri Jan  6 17:23:30 2023

Copyright (c) 1996-2018 Texas Instruments Incorporated
drv8305.asm                                                          PAGE   10

     440                      .dwattr $C$DW$32, DW_AT_name("_DRV8305_SPI_Write")
     441                      .dwattr $C$DW$32, DW_AT_TI_call
     442              
     443 000000b0 7640!         LCR       #_DRV8305_SPI_Write   ; [CPU_ALU] |121| 
         000000b1 0000 
     444                      ; call occurs [#_DRV8305_SPI_Write] ; [] |121| 
     445 000000b2 8D00          MOVL      XAR0,#448             ; [CPU_ALU] |121| 
         000000b3 01C0 
     446 000000b4 CCA9          AND       AL,AL,#0x07ff         ; [CPU_ALU] |121| 
         000000b5 07FF 
     447                      .dwpsn  file "../drv8305.c",line 122,column 2,is_stmt,isa 0
     448 000000b6 8AA1          MOVL      XAR4,XAR1             ; [CPU_ALU] |122| 
     449                      .dwpsn  file "../drv8305.c",line 121,column 2,is_stmt,isa 0
     450 000000b7 9691          MOV       *+XAR1[AR0],AL        ; [CPU_ALU] |121| 
     451                      .dwpsn  file "../drv8305.c",line 122,column 2,is_stmt,isa 0
     452 000000b8 9A0B          MOVB      AL,#11                ; [CPU_ALU] |122| 
     453              $C$DW$33        .dwtag  DW_TAG_TI_branch
     454                      .dwattr $C$DW$33, DW_AT_low_pc(0x00)
     455                      .dwattr $C$DW$33, DW_AT_name("_DRV8305_SPI_Write")
     456                      .dwattr $C$DW$33, DW_AT_TI_call
     457              
     458 000000b9 7640!         LCR       #_DRV8305_SPI_Write   ; [CPU_ALU] |122| 
         000000ba 0000 
     459                      ; call occurs [#_DRV8305_SPI_Write] ; [] |122| 
     460 000000bb 8D00          MOVL      XAR0,#449             ; [CPU_ALU] |122| 
         000000bc 01C1 
     461 000000bd CCA9          AND       AL,AL,#0x031f         ; [CPU_ALU] |122| 
         000000be 031F 
     462                      .dwpsn  file "../drv8305.c",line 123,column 2,is_stmt,isa 0
     463 000000bf 8AA1          MOVL      XAR4,XAR1             ; [CPU_ALU] |123| 
     464                      .dwpsn  file "../drv8305.c",line 122,column 2,is_stmt,isa 0
     465 000000c0 9691          MOV       *+XAR1[AR0],AL        ; [CPU_ALU] |122| 
     466                      .dwpsn  file "../drv8305.c",line 123,column 2,is_stmt,isa 0
     467 000000c1 9A0C          MOVB      AL,#12                ; [CPU_ALU] |123| 
     468              $C$DW$34        .dwtag  DW_TAG_TI_branch
     469                      .dwattr $C$DW$34, DW_AT_low_pc(0x00)
     470                      .dwattr $C$DW$34, DW_AT_name("_DRV8305_SPI_Write")
     471                      .dwattr $C$DW$34, DW_AT_TI_call
     472              
     473 000000c2 7640!         LCR       #_DRV8305_SPI_Write   ; [CPU_ALU] |123| 
         000000c3 0000 
     474                      ; call occurs [#_DRV8305_SPI_Write] ; [] |123| 
     475 000000c4 8D00          MOVL      XAR0,#450             ; [CPU_ALU] |123| 
         000000c5 01C2 
     476 000000c6 90FF          ANDB      AL,#255               ; [CPU_ALU] |123| 
     477 000000c7 9691          MOV       *+XAR1[AR0],AL        ; [CPU_ALU] |123| 
     478                      .dwpsn  file "../drv8305.c",line 130,column 2,is_stmt,isa 0
     479 000000c8 8D00          MOVL      XAR0,#451             ; [CPU_ALU] |130| 
         000000c9 01C3 
     480                      .dwpsn  file "../drv8305.c",line 128,column 2,is_stmt,isa 0
     481 000000ca B2A9          MOVL      ACC,XAR1              ; [CPU_ALU] |128| 
     482                      .dwpsn  file "../drv8305.c",line 130,column 2,is_stmt,isa 0
     483 000000cb 2B91          MOV       *+XAR1[AR0],#0        ; [CPU_ALU] |130| 
     484                      .dwpsn  file "../drv8305.c",line 128,column 2,is_stmt,isa 0
     485 000000cc FF10          ADD       ACC,#431 << 0         ; [CPU_ALU] |128| 
TMS320C2000 Assembler PC v20.2.5 Fri Jan  6 17:23:30 2023

Copyright (c) 1996-2018 Texas Instruments Incorporated
drv8305.asm                                                          PAGE   11

         000000cd 01AF 
     486                      .dwpsn  file "../drv8305.c",line 133,column 7,is_stmt,isa 0
     487 000000ce D001          MOVB      XAR0,#1               ; [CPU_ALU] |133| 
     488                      .dwpsn  file "../drv8305.c",line 128,column 2,is_stmt,isa 0
     489 000000cf 83A9          MOVL      XAR5,ACC              ; [CPU_ALU] |128| 
     490                      .dwpsn  file "../drv8305.c",line 129,column 2,is_stmt,isa 0
     491 000000d0 B2A9          MOVL      ACC,XAR1              ; [CPU_ALU] |129| 
     492 000000d1 FF12          ADD       ACC,#111 << 2         ; [CPU_ALU] |129| 
         000000d2 006F 
     493 000000d3 8AA9          MOVL      XAR4,ACC              ; [CPU_ALU] |129| 
     494 000000d4       $C$L1:    
     495                      .dwpsn  file "../drv8305.c",line 135,column 3,is_stmt,isa 0
     496 000000d4 9295          MOV       AL,*+XAR5[AR0]        ; [CPU_ALU] |135| 
     497 000000d5 6109          B         $C$L2,EQ              ; [CPU_ALU] |135| 
     498                      ; branchcc occurs ; [] |135| 
     499                      .dwpsn  file "../drv8305.c",line 136,column 4,is_stmt,isa 0
     500 000000d6 B2A9          MOVL      ACC,XAR1              ; [CPU_ALU] |136| 
     501 000000d7 FF10          ADD       ACC,#451 << 0         ; [CPU_ALU] |136| 
         000000d8 01C3 
     502 000000d9 1EA6          MOVL      XAR6,ACC              ; [CPU_ALU] |136| 
     503 000000da 2DA0          MOV       T,AR0                 ; [CPU_ALU] |136| 
     504 000000db 9A01          MOVB      AL,#1                 ; [CPU_ALU] |136| 
     505 000000dc FF66          LSL       AL,T                  ; [CPU_ALU] |136| 
     506 000000dd 98C6          OR        *+XAR6[0],AL          ; [CPU_ALU] |136| 
     507 000000de       $C$L2:    
     508                      .dwpsn  file "../drv8305.c",line 133,column 29,is_stmt,isa 0
     509 000000de D801          ADDB      XAR0,#1               ; [CPU_ALU] |133| 
     510 000000df 92A0          MOV       AL,AR0                ; [CPU_ALU] |133| 
     511 000000e0 5204          CMPB      AL,#4                 ; [CPU_ALU] |133| 
     512 000000e1 69F3          B         $C$L1,LOS             ; [CPU_ALU] |133| 
     513                      ; branchcc occurs ; [] |133| 
     514                      .dwpsn  file "../drv8305.c",line 140,column 9,is_stmt,isa 0
     515 000000e2 520C          CMPB      AL,#12                ; [CPU_ALU] |140| 
     516 000000e3 6614          B         $C$L5,HI              ; [CPU_ALU] |140| 
     517                      ; branchcc occurs ; [] |140| 
     518 000000e4       $C$L3:    
     519                      .dwpsn  file "../drv8305.c",line 142,column 3,is_stmt,isa 0
     520 000000e4 5208          CMPB      AL,#8                 ; [CPU_ALU] |142| 
     521 000000e5 610E          B         $C$L4,EQ              ; [CPU_ALU] |142| 
     522                      ; branchcc occurs ; [] |142| 
     523                      .dwpsn  file "../drv8305.c",line 143,column 4,is_stmt,isa 0
     524 000000e6 8895          MOVZ      AR6,*+XAR5[AR0]       ; [CPU_ALU] |143| 
     525 000000e7 9284          MOV       AL,*XAR4++            ; [CPU_ALU] |143| 
     526 000000e8 0EA9          MOVU      ACC,AL                ; [CPU_ALU] |143| 
     527 000000e9 0FA6          CMPL      ACC,XAR6              ; [CPU_ALU] |143| 
     528 000000ea 6109          B         $C$L4,EQ              ; [CPU_ALU] |143| 
     529                      ; branchcc occurs ; [] |143| 
     530                      .dwpsn  file "../drv8305.c",line 144,column 5,is_stmt,isa 0
     531 000000eb B2A9          MOVL      ACC,XAR1              ; [CPU_ALU] |144| 
     532 000000ec FF10          ADD       ACC,#451 << 0         ; [CPU_ALU] |144| 
         000000ed 01C3 
     533 000000ee 1EA6          MOVL      XAR6,ACC              ; [CPU_ALU] |144| 
     534 000000ef 2DA0          MOV       T,AR0                 ; [CPU_ALU] |144| 
     535 000000f0 9A01          MOVB      AL,#1                 ; [CPU_ALU] |144| 
     536 000000f1 FF66          LSL       AL,T                  ; [CPU_ALU] |144| 
TMS320C2000 Assembler PC v20.2.5 Fri Jan  6 17:23:30 2023

Copyright (c) 1996-2018 Texas Instruments Incorporated
drv8305.asm                                                          PAGE   12

     537 000000f2 98C6          OR        *+XAR6[0],AL          ; [CPU_ALU] |144| 
     538 000000f3       $C$L4:    
     539                      .dwpsn  file "../drv8305.c",line 140,column 21,is_stmt,isa 0
     540 000000f3 D801          ADDB      XAR0,#1               ; [CPU_ALU] |140| 
     541 000000f4 92A0          MOV       AL,AR0                ; [CPU_ALU] |140| 
     542 000000f5 520C          CMPB      AL,#12                ; [CPU_ALU] |140| 
     543 000000f6 69EE          B         $C$L3,LOS             ; [CPU_ALU] |140| 
     544                      ; branchcc occurs ; [] |140| 
     545 000000f7       $C$L5:    
     546 000000f7 8BBE          MOVL      XAR1,*--SP            ; [CPU_ALU] 
     547                      .dwcfi  cfa_offset, -2
     548                      .dwcfi  restore_reg, 7
     549              $C$DW$35        .dwtag  DW_TAG_TI_branch
     550                      .dwattr $C$DW$35, DW_AT_low_pc(0x00)
     551                      .dwattr $C$DW$35, DW_AT_TI_return
     552              
     553 000000f8 0006          LRETR     ; [CPU_ALU] 
     554                      ; return occurs ; [] 
     555                      .dwattr $C$DW$11, DW_AT_TI_end_file("../drv8305.c")
     556                      .dwattr $C$DW$11, DW_AT_TI_end_line(0x94)
     557                      .dwattr $C$DW$11, DW_AT_TI_end_column(0x01)
     558                      .dwendentry
     559                      .dwendtag $C$DW$11
     560              
     561 000000f9               .sect   ".text"
     562                      .clink
     563                      .global _DRV8305_diagnostics
     564              
     565              $C$DW$36        .dwtag  DW_TAG_subprogram
     566                      .dwattr $C$DW$36, DW_AT_name("DRV8305_diagnostics")
     567                      .dwattr $C$DW$36, DW_AT_low_pc(_DRV8305_diagnostics)
     568                      .dwattr $C$DW$36, DW_AT_high_pc(0x00)
     569                      .dwattr $C$DW$36, DW_AT_TI_symbol_name("_DRV8305_diagnostics")
     570                      .dwattr $C$DW$36, DW_AT_external
     571                      .dwattr $C$DW$36, DW_AT_TI_begin_file("../drv8305.c")
     572                      .dwattr $C$DW$36, DW_AT_TI_begin_line(0x9b)
     573                      .dwattr $C$DW$36, DW_AT_TI_begin_column(0x06)
     574                      .dwattr $C$DW$36, DW_AT_TI_max_frame_size(-4)
     575                      .dwpsn  file "../drv8305.c",line 156,column 1,is_stmt,address _DRV8305_diagnostics,isa 0
     576              
     577                      .dwfde $C$DW$CIE, _DRV8305_diagnostics
     578              $C$DW$37        .dwtag  DW_TAG_formal_parameter
     579                      .dwattr $C$DW$37, DW_AT_name("motor")
     580                      .dwattr $C$DW$37, DW_AT_TI_symbol_name("_motor")
     581                      .dwattr $C$DW$37, DW_AT_type(*$C$DW$T$300)
     582                      .dwattr $C$DW$37, DW_AT_location[DW_OP_reg12]
     583              
     584              
     585              ;***************************************************************
     586              ;* FNAME: _DRV8305_diagnostics          FR SIZE:   2           *
     587              ;*                                                             *
     588              ;* FUNCTION ENVIRONMENT                                        *
     589              ;*                                                             *
     590              ;* FUNCTION PROPERTIES                                         *
     591              ;*                            0 Parameter,  0 Auto,  2 SOE     *
TMS320C2000 Assembler PC v20.2.5 Fri Jan  6 17:23:30 2023

Copyright (c) 1996-2018 Texas Instruments Incorporated
drv8305.asm                                                          PAGE   13

     592              ;***************************************************************
     593              
     594              _DRV8305_diagnostics:
     595              ;* AR1   assigned to _motor
     596              $C$DW$38        .dwtag  DW_TAG_variable
     597                      .dwattr $C$DW$38, DW_AT_name("motor")
     598                      .dwattr $C$DW$38, DW_AT_TI_symbol_name("_motor")
     599                      .dwattr $C$DW$38, DW_AT_type(*$C$DW$T$301)
     600                      .dwattr $C$DW$38, DW_AT_location[DW_OP_reg6]
     601              
     602                      .dwcfi  cfa_offset, -2
     603                      .dwcfi  save_reg_to_mem, 26, 0
     604 000000f9 B2BD          MOVL      *SP++,XAR1            ; [CPU_ALU] 
     605                      .dwcfi  save_reg_to_mem, 7, 2
     606                      .dwcfi  cfa_offset, -4
     607                      .dwpsn  file "../drv8305.c",line 157,column 2,is_stmt,isa 0
     608 000000fa 9A01          MOVB      AL,#1                 ; [CPU_ALU] |157| 
     609                      .dwpsn  file "../drv8305.c",line 156,column 1,is_stmt,isa 0
     610 000000fb 8BA4          MOVL      XAR1,XAR4             ; [CPU_ALU] |156| 
     611                      .dwpsn  file "../drv8305.c",line 157,column 2,is_stmt,isa 0
     612              $C$DW$39        .dwtag  DW_TAG_TI_branch
     613                      .dwattr $C$DW$39, DW_AT_low_pc(0x00)
     614                      .dwattr $C$DW$39, DW_AT_name("_DRV8305_SPI_Read")
     615                      .dwattr $C$DW$39, DW_AT_TI_call
     616              
     617 000000fc 7640!         LCR       #_DRV8305_SPI_Read    ; [CPU_ALU] |157| 
         000000fd 0000 
     618                      ; call occurs [#_DRV8305_SPI_Read] ; [] |157| 
     619 000000fe 8D00          MOVL      XAR0,#432             ; [CPU_ALU] |157| 
         000000ff 01B0 
     620 00000100 CCA9          AND       AL,AL,#0x05ff         ; [CPU_ALU] |157| 
         00000101 05FF 
     621                      .dwpsn  file "../drv8305.c",line 158,column 2,is_stmt,isa 0
     622 00000102 8AA1          MOVL      XAR4,XAR1             ; [CPU_ALU] |158| 
     623                      .dwpsn  file "../drv8305.c",line 157,column 2,is_stmt,isa 0
     624 00000103 9691          MOV       *+XAR1[AR0],AL        ; [CPU_ALU] |157| 
     625                      .dwpsn  file "../drv8305.c",line 158,column 2,is_stmt,isa 0
     626 00000104 9A02          MOVB      AL,#2                 ; [CPU_ALU] |158| 
     627              $C$DW$40        .dwtag  DW_TAG_TI_branch
     628                      .dwattr $C$DW$40, DW_AT_low_pc(0x00)
     629                      .dwattr $C$DW$40, DW_AT_name("_DRV8305_SPI_Read")
     630                      .dwattr $C$DW$40, DW_AT_TI_call
     631              
     632 00000105 7640!         LCR       #_DRV8305_SPI_Read    ; [CPU_ALU] |158| 
         00000106 0000 
     633                      ; call occurs [#_DRV8305_SPI_Read] ; [] |158| 
     634 00000107 8D00          MOVL      XAR0,#433             ; [CPU_ALU] |158| 
         00000108 01B1 
     635 00000109 CCA9          AND       AL,AL,#0x07e7         ; [CPU_ALU] |158| 
         0000010a 07E7 
     636                      .dwpsn  file "../drv8305.c",line 159,column 2,is_stmt,isa 0
     637 0000010b 8AA1          MOVL      XAR4,XAR1             ; [CPU_ALU] |159| 
     638                      .dwpsn  file "../drv8305.c",line 158,column 2,is_stmt,isa 0
     639 0000010c 9691          MOV       *+XAR1[AR0],AL        ; [CPU_ALU] |158| 
     640                      .dwpsn  file "../drv8305.c",line 159,column 2,is_stmt,isa 0
TMS320C2000 Assembler PC v20.2.5 Fri Jan  6 17:23:30 2023

Copyright (c) 1996-2018 Texas Instruments Incorporated
drv8305.asm                                                          PAGE   14

     641 0000010d 9A03          MOVB      AL,#3                 ; [CPU_ALU] |159| 
     642              $C$DW$41        .dwtag  DW_TAG_TI_branch
     643                      .dwattr $C$DW$41, DW_AT_low_pc(0x00)
     644                      .dwattr $C$DW$41, DW_AT_name("_DRV8305_SPI_Read")
     645                      .dwattr $C$DW$41, DW_AT_TI_call
     646              
     647 0000010e 7640!         LCR       #_DRV8305_SPI_Read    ; [CPU_ALU] |159| 
         0000010f 0000 
     648                      ; call occurs [#_DRV8305_SPI_Read] ; [] |159| 
     649 00000110 8D00          MOVL      XAR0,#434             ; [CPU_ALU] |159| 
         00000111 01B2 
     650 00000112 CCA9          AND       AL,AL,#0x0777         ; [CPU_ALU] |159| 
         00000113 0777 
     651                      .dwpsn  file "../drv8305.c",line 160,column 2,is_stmt,isa 0
     652 00000114 8AA1          MOVL      XAR4,XAR1             ; [CPU_ALU] |160| 
     653                      .dwpsn  file "../drv8305.c",line 159,column 2,is_stmt,isa 0
     654 00000115 9691          MOV       *+XAR1[AR0],AL        ; [CPU_ALU] |159| 
     655                      .dwpsn  file "../drv8305.c",line 160,column 2,is_stmt,isa 0
     656 00000116 9A04          MOVB      AL,#4                 ; [CPU_ALU] |160| 
     657              $C$DW$42        .dwtag  DW_TAG_TI_branch
     658                      .dwattr $C$DW$42, DW_AT_low_pc(0x00)
     659                      .dwattr $C$DW$42, DW_AT_name("_DRV8305_SPI_Read")
     660                      .dwattr $C$DW$42, DW_AT_TI_call
     661              
     662 00000117 7640!         LCR       #_DRV8305_SPI_Read    ; [CPU_ALU] |160| 
         00000118 0000 
     663                      ; call occurs [#_DRV8305_SPI_Read] ; [] |160| 
     664 00000119 8D00          MOVL      XAR0,#435             ; [CPU_ALU] |160| 
         0000011a 01B3 
     665 0000011b CCA9          AND       AL,AL,#0x07e0         ; [CPU_ALU] |160| 
         0000011c 07E0 
     666 0000011d 9691          MOV       *+XAR1[AR0],AL        ; [CPU_ALU] |160| 
     667 0000011e 8BBE          MOVL      XAR1,*--SP            ; [CPU_ALU] 
     668                      .dwcfi  cfa_offset, -2
     669                      .dwcfi  restore_reg, 7
     670              $C$DW$43        .dwtag  DW_TAG_TI_branch
     671                      .dwattr $C$DW$43, DW_AT_low_pc(0x00)
     672                      .dwattr $C$DW$43, DW_AT_TI_return
     673              
     674 0000011f 0006          LRETR     ; [CPU_ALU] 
     675                      ; return occurs ; [] 
     676                      .dwattr $C$DW$36, DW_AT_TI_end_file("../drv8305.c")
     677                      .dwattr $C$DW$36, DW_AT_TI_end_line(0xb7)
     678                      .dwattr $C$DW$36, DW_AT_TI_end_column(0x01)
     679                      .dwendentry
     680                      .dwendtag $C$DW$36
     681              
     682              ;**************************************************************
     683              ;* UNDEFINED EXTERNAL REFERENCES                              *
     684              ;**************************************************************
     685                      .global _DRV8305_SPI_Write
     686                      .global _DRV8305_SPI_Read
     687              
     688              ;***************************************************************
     689              ;* TYPE INFORMATION                                            *
TMS320C2000 Assembler PC v20.2.5 Fri Jan  6 17:23:30 2023

Copyright (c) 1996-2018 Texas Instruments Incorporated
drv8305.asm                                                          PAGE   15

     690              ;***************************************************************
     691              
     692              $C$DW$T$20      .dwtag  DW_TAG_structure_type
     693                      .dwattr $C$DW$T$20, DW_AT_byte_size(0x0a)
     694              $C$DW$44        .dwtag  DW_TAG_member
     695                      .dwattr $C$DW$44, DW_AT_type(*$C$DW$T$19)
     696                      .dwattr $C$DW$44, DW_AT_name("As")
     697                      .dwattr $C$DW$44, DW_AT_TI_symbol_name("_As")
     698                      .dwattr $C$DW$44, DW_AT_data_member_location[DW_OP_plus_uconst 0x0]
     699                      .dwattr $C$DW$44, DW_AT_accessibility(DW_ACCESS_public)
     700              
     701              $C$DW$45        .dwtag  DW_TAG_member
     702                      .dwattr $C$DW$45, DW_AT_type(*$C$DW$T$19)
     703                      .dwattr $C$DW$45, DW_AT_name("Bs")
     704                      .dwattr $C$DW$45, DW_AT_TI_symbol_name("_Bs")
     705                      .dwattr $C$DW$45, DW_AT_data_member_location[DW_OP_plus_uconst 0x2]
     706                      .dwattr $C$DW$45, DW_AT_accessibility(DW_ACCESS_public)
     707              
     708              $C$DW$46        .dwtag  DW_TAG_member
     709                      .dwattr $C$DW$46, DW_AT_type(*$C$DW$T$19)
     710                      .dwattr $C$DW$46, DW_AT_name("Cs")
     711                      .dwattr $C$DW$46, DW_AT_TI_symbol_name("_Cs")
     712                      .dwattr $C$DW$46, DW_AT_data_member_location[DW_OP_plus_uconst 0x4]
     713                      .dwattr $C$DW$46, DW_AT_accessibility(DW_ACCESS_public)
     714              
     715              $C$DW$47        .dwtag  DW_TAG_member
     716                      .dwattr $C$DW$47, DW_AT_type(*$C$DW$T$19)
     717                      .dwattr $C$DW$47, DW_AT_name("Alpha")
     718                      .dwattr $C$DW$47, DW_AT_TI_symbol_name("_Alpha")
     719                      .dwattr $C$DW$47, DW_AT_data_member_location[DW_OP_plus_uconst 0x6]
     720                      .dwattr $C$DW$47, DW_AT_accessibility(DW_ACCESS_public)
     721              
     722              $C$DW$48        .dwtag  DW_TAG_member
     723                      .dwattr $C$DW$48, DW_AT_type(*$C$DW$T$19)
     724                      .dwattr $C$DW$48, DW_AT_name("Beta")
     725                      .dwattr $C$DW$48, DW_AT_TI_symbol_name("_Beta")
     726                      .dwattr $C$DW$48, DW_AT_data_member_location[DW_OP_plus_uconst 0x8]
     727                      .dwattr $C$DW$48, DW_AT_accessibility(DW_ACCESS_public)
     728              
     729                      .dwendtag $C$DW$T$20
     730              
     731              $C$DW$T$75      .dwtag  DW_TAG_typedef
     732                      .dwattr $C$DW$T$75, DW_AT_name("CLARKE")
     733                      .dwattr $C$DW$T$75, DW_AT_type(*$C$DW$T$20)
     734                      .dwattr $C$DW$T$75, DW_AT_language(DW_LANG_C)
     735              
     736              
     737              $C$DW$T$21      .dwtag  DW_TAG_structure_type
     738                      .dwattr $C$DW$T$21, DW_AT_byte_size(0x0e)
     739              $C$DW$49        .dwtag  DW_TAG_member
     740                      .dwattr $C$DW$49, DW_AT_type(*$C$DW$T$19)
     741                      .dwattr $C$DW$49, DW_AT_name("Alpha")
     742                      .dwattr $C$DW$49, DW_AT_TI_symbol_name("_Alpha")
     743                      .dwattr $C$DW$49, DW_AT_data_member_location[DW_OP_plus_uconst 0x0]
     744                      .dwattr $C$DW$49, DW_AT_accessibility(DW_ACCESS_public)
TMS320C2000 Assembler PC v20.2.5 Fri Jan  6 17:23:30 2023

Copyright (c) 1996-2018 Texas Instruments Incorporated
drv8305.asm                                                          PAGE   16

     745              
     746              $C$DW$50        .dwtag  DW_TAG_member
     747                      .dwattr $C$DW$50, DW_AT_type(*$C$DW$T$19)
     748                      .dwattr $C$DW$50, DW_AT_name("Beta")
     749                      .dwattr $C$DW$50, DW_AT_TI_symbol_name("_Beta")
     750                      .dwattr $C$DW$50, DW_AT_data_member_location[DW_OP_plus_uconst 0x2]
     751                      .dwattr $C$DW$50, DW_AT_accessibility(DW_ACCESS_public)
     752              
     753              $C$DW$51        .dwtag  DW_TAG_member
     754                      .dwattr $C$DW$51, DW_AT_type(*$C$DW$T$19)
     755                      .dwattr $C$DW$51, DW_AT_name("Angle")
     756                      .dwattr $C$DW$51, DW_AT_TI_symbol_name("_Angle")
     757                      .dwattr $C$DW$51, DW_AT_data_member_location[DW_OP_plus_uconst 0x4]
     758                      .dwattr $C$DW$51, DW_AT_accessibility(DW_ACCESS_public)
     759              
     760              $C$DW$52        .dwtag  DW_TAG_member
     761                      .dwattr $C$DW$52, DW_AT_type(*$C$DW$T$19)
     762                      .dwattr $C$DW$52, DW_AT_name("Ds")
     763                      .dwattr $C$DW$52, DW_AT_TI_symbol_name("_Ds")
     764                      .dwattr $C$DW$52, DW_AT_data_member_location[DW_OP_plus_uconst 0x6]
     765                      .dwattr $C$DW$52, DW_AT_accessibility(DW_ACCESS_public)
     766              
     767              $C$DW$53        .dwtag  DW_TAG_member
     768                      .dwattr $C$DW$53, DW_AT_type(*$C$DW$T$19)
     769                      .dwattr $C$DW$53, DW_AT_name("Qs")
     770                      .dwattr $C$DW$53, DW_AT_TI_symbol_name("_Qs")
     771                      .dwattr $C$DW$53, DW_AT_data_member_location[DW_OP_plus_uconst 0x8]
     772                      .dwattr $C$DW$53, DW_AT_accessibility(DW_ACCESS_public)
     773              
     774              $C$DW$54        .dwtag  DW_TAG_member
     775                      .dwattr $C$DW$54, DW_AT_type(*$C$DW$T$19)
     776                      .dwattr $C$DW$54, DW_AT_name("Sine")
     777                      .dwattr $C$DW$54, DW_AT_TI_symbol_name("_Sine")
     778                      .dwattr $C$DW$54, DW_AT_data_member_location[DW_OP_plus_uconst 0xa]
     779                      .dwattr $C$DW$54, DW_AT_accessibility(DW_ACCESS_public)
     780              
     781              $C$DW$55        .dwtag  DW_TAG_member
     782                      .dwattr $C$DW$55, DW_AT_type(*$C$DW$T$19)
     783                      .dwattr $C$DW$55, DW_AT_name("Cosine")
     784                      .dwattr $C$DW$55, DW_AT_TI_symbol_name("_Cosine")
     785                      .dwattr $C$DW$55, DW_AT_data_member_location[DW_OP_plus_uconst 0xc]
     786                      .dwattr $C$DW$55, DW_AT_accessibility(DW_ACCESS_public)
     787              
     788                      .dwendtag $C$DW$T$21
     789              
     790              $C$DW$T$76      .dwtag  DW_TAG_typedef
     791                      .dwattr $C$DW$T$76, DW_AT_name("PARK")
     792                      .dwattr $C$DW$T$76, DW_AT_type(*$C$DW$T$21)
     793                      .dwattr $C$DW$T$76, DW_AT_language(DW_LANG_C)
     794              
     795              
     796              $C$DW$T$22      .dwtag  DW_TAG_structure_type
     797                      .dwattr $C$DW$T$22, DW_AT_byte_size(0x0e)
     798              $C$DW$56        .dwtag  DW_TAG_member
     799                      .dwattr $C$DW$56, DW_AT_type(*$C$DW$T$19)
TMS320C2000 Assembler PC v20.2.5 Fri Jan  6 17:23:30 2023

Copyright (c) 1996-2018 Texas Instruments Incorporated
drv8305.asm                                                          PAGE   17

     800                      .dwattr $C$DW$56, DW_AT_name("Alpha")
     801                      .dwattr $C$DW$56, DW_AT_TI_symbol_name("_Alpha")
     802                      .dwattr $C$DW$56, DW_AT_data_member_location[DW_OP_plus_uconst 0x0]
     803                      .dwattr $C$DW$56, DW_AT_accessibility(DW_ACCESS_public)
     804              
     805              $C$DW$57        .dwtag  DW_TAG_member
     806                      .dwattr $C$DW$57, DW_AT_type(*$C$DW$T$19)
     807                      .dwattr $C$DW$57, DW_AT_name("Beta")
     808                      .dwattr $C$DW$57, DW_AT_TI_symbol_name("_Beta")
     809                      .dwattr $C$DW$57, DW_AT_data_member_location[DW_OP_plus_uconst 0x2]
     810                      .dwattr $C$DW$57, DW_AT_accessibility(DW_ACCESS_public)
     811              
     812              $C$DW$58        .dwtag  DW_TAG_member
     813                      .dwattr $C$DW$58, DW_AT_type(*$C$DW$T$19)
     814                      .dwattr $C$DW$58, DW_AT_name("Angle")
     815                      .dwattr $C$DW$58, DW_AT_TI_symbol_name("_Angle")
     816                      .dwattr $C$DW$58, DW_AT_data_member_location[DW_OP_plus_uconst 0x4]
     817                      .dwattr $C$DW$58, DW_AT_accessibility(DW_ACCESS_public)
     818              
     819              $C$DW$59        .dwtag  DW_TAG_member
     820                      .dwattr $C$DW$59, DW_AT_type(*$C$DW$T$19)
     821                      .dwattr $C$DW$59, DW_AT_name("Ds")
     822                      .dwattr $C$DW$59, DW_AT_TI_symbol_name("_Ds")
     823                      .dwattr $C$DW$59, DW_AT_data_member_location[DW_OP_plus_uconst 0x6]
     824                      .dwattr $C$DW$59, DW_AT_accessibility(DW_ACCESS_public)
     825              
     826              $C$DW$60        .dwtag  DW_TAG_member
     827                      .dwattr $C$DW$60, DW_AT_type(*$C$DW$T$19)
     828                      .dwattr $C$DW$60, DW_AT_name("Qs")
     829                      .dwattr $C$DW$60, DW_AT_TI_symbol_name("_Qs")
     830                      .dwattr $C$DW$60, DW_AT_data_member_location[DW_OP_plus_uconst 0x8]
     831                      .dwattr $C$DW$60, DW_AT_accessibility(DW_ACCESS_public)
     832              
     833              $C$DW$61        .dwtag  DW_TAG_member
     834                      .dwattr $C$DW$61, DW_AT_type(*$C$DW$T$19)
     835                      .dwattr $C$DW$61, DW_AT_name("Sine")
     836                      .dwattr $C$DW$61, DW_AT_TI_symbol_name("_Sine")
     837                      .dwattr $C$DW$61, DW_AT_data_member_location[DW_OP_plus_uconst 0xa]
     838                      .dwattr $C$DW$61, DW_AT_accessibility(DW_ACCESS_public)
     839              
     840              $C$DW$62        .dwtag  DW_TAG_member
     841                      .dwattr $C$DW$62, DW_AT_type(*$C$DW$T$19)
     842                      .dwattr $C$DW$62, DW_AT_name("Cosine")
     843                      .dwattr $C$DW$62, DW_AT_TI_symbol_name("_Cosine")
     844                      .dwattr $C$DW$62, DW_AT_data_member_location[DW_OP_plus_uconst 0xc]
     845                      .dwattr $C$DW$62, DW_AT_accessibility(DW_ACCESS_public)
     846              
     847                      .dwendtag $C$DW$T$22
     848              
     849              $C$DW$T$77      .dwtag  DW_TAG_typedef
     850                      .dwattr $C$DW$T$77, DW_AT_name("IPARK")
     851                      .dwattr $C$DW$T$77, DW_AT_type(*$C$DW$T$22)
     852                      .dwattr $C$DW$T$77, DW_AT_language(DW_LANG_C)
     853              
     854              
TMS320C2000 Assembler PC v20.2.5 Fri Jan  6 17:23:30 2023

Copyright (c) 1996-2018 Texas Instruments Incorporated
drv8305.asm                                                          PAGE   18

     855              $C$DW$T$23      .dwtag  DW_TAG_structure_type
     856                      .dwattr $C$DW$T$23, DW_AT_byte_size(0x18)
     857              $C$DW$63        .dwtag  DW_TAG_member
     858                      .dwattr $C$DW$63, DW_AT_type(*$C$DW$T$19)
     859                      .dwattr $C$DW$63, DW_AT_name("Ref")
     860                      .dwattr $C$DW$63, DW_AT_TI_symbol_name("_Ref")
     861                      .dwattr $C$DW$63, DW_AT_data_member_location[DW_OP_plus_uconst 0x0]
     862                      .dwattr $C$DW$63, DW_AT_accessibility(DW_ACCESS_public)
     863              
     864              $C$DW$64        .dwtag  DW_TAG_member
     865                      .dwattr $C$DW$64, DW_AT_type(*$C$DW$T$19)
     866                      .dwattr $C$DW$64, DW_AT_name("Fbk")
     867                      .dwattr $C$DW$64, DW_AT_TI_symbol_name("_Fbk")
     868                      .dwattr $C$DW$64, DW_AT_data_member_location[DW_OP_plus_uconst 0x2]
     869                      .dwattr $C$DW$64, DW_AT_accessibility(DW_ACCESS_public)
     870              
     871              $C$DW$65        .dwtag  DW_TAG_member
     872                      .dwattr $C$DW$65, DW_AT_type(*$C$DW$T$19)
     873                      .dwattr $C$DW$65, DW_AT_name("Out")
     874                      .dwattr $C$DW$65, DW_AT_TI_symbol_name("_Out")
     875                      .dwattr $C$DW$65, DW_AT_data_member_location[DW_OP_plus_uconst 0x4]
     876                      .dwattr $C$DW$65, DW_AT_accessibility(DW_ACCESS_public)
     877              
     878              $C$DW$66        .dwtag  DW_TAG_member
     879                      .dwattr $C$DW$66, DW_AT_type(*$C$DW$T$19)
     880                      .dwattr $C$DW$66, DW_AT_name("Kp")
     881                      .dwattr $C$DW$66, DW_AT_TI_symbol_name("_Kp")
     882                      .dwattr $C$DW$66, DW_AT_data_member_location[DW_OP_plus_uconst 0x6]
     883                      .dwattr $C$DW$66, DW_AT_accessibility(DW_ACCESS_public)
     884              
     885              $C$DW$67        .dwtag  DW_TAG_member
     886                      .dwattr $C$DW$67, DW_AT_type(*$C$DW$T$19)
     887                      .dwattr $C$DW$67, DW_AT_name("Ki")
     888                      .dwattr $C$DW$67, DW_AT_TI_symbol_name("_Ki")
     889                      .dwattr $C$DW$67, DW_AT_data_member_location[DW_OP_plus_uconst 0x8]
     890                      .dwattr $C$DW$67, DW_AT_accessibility(DW_ACCESS_public)
     891              
     892              $C$DW$68        .dwtag  DW_TAG_member
     893                      .dwattr $C$DW$68, DW_AT_type(*$C$DW$T$19)
     894                      .dwattr $C$DW$68, DW_AT_name("Umax")
     895                      .dwattr $C$DW$68, DW_AT_TI_symbol_name("_Umax")
     896                      .dwattr $C$DW$68, DW_AT_data_member_location[DW_OP_plus_uconst 0xa]
     897                      .dwattr $C$DW$68, DW_AT_accessibility(DW_ACCESS_public)
     898              
     899              $C$DW$69        .dwtag  DW_TAG_member
     900                      .dwattr $C$DW$69, DW_AT_type(*$C$DW$T$19)
     901                      .dwattr $C$DW$69, DW_AT_name("Umin")
     902                      .dwattr $C$DW$69, DW_AT_TI_symbol_name("_Umin")
     903                      .dwattr $C$DW$69, DW_AT_data_member_location[DW_OP_plus_uconst 0xc]
     904                      .dwattr $C$DW$69, DW_AT_accessibility(DW_ACCESS_public)
     905              
     906              $C$DW$70        .dwtag  DW_TAG_member
     907                      .dwattr $C$DW$70, DW_AT_type(*$C$DW$T$19)
     908                      .dwattr $C$DW$70, DW_AT_name("up")
     909                      .dwattr $C$DW$70, DW_AT_TI_symbol_name("_up")
TMS320C2000 Assembler PC v20.2.5 Fri Jan  6 17:23:30 2023

Copyright (c) 1996-2018 Texas Instruments Incorporated
drv8305.asm                                                          PAGE   19

     910                      .dwattr $C$DW$70, DW_AT_data_member_location[DW_OP_plus_uconst 0xe]
     911                      .dwattr $C$DW$70, DW_AT_accessibility(DW_ACCESS_public)
     912              
     913              $C$DW$71        .dwtag  DW_TAG_member
     914                      .dwattr $C$DW$71, DW_AT_type(*$C$DW$T$19)
     915                      .dwattr $C$DW$71, DW_AT_name("ui")
     916                      .dwattr $C$DW$71, DW_AT_TI_symbol_name("_ui")
     917                      .dwattr $C$DW$71, DW_AT_data_member_location[DW_OP_plus_uconst 0x10]
     918                      .dwattr $C$DW$71, DW_AT_accessibility(DW_ACCESS_public)
     919              
     920              $C$DW$72        .dwtag  DW_TAG_member
     921                      .dwattr $C$DW$72, DW_AT_type(*$C$DW$T$19)
     922                      .dwattr $C$DW$72, DW_AT_name("v1")
     923                      .dwattr $C$DW$72, DW_AT_TI_symbol_name("_v1")
     924                      .dwattr $C$DW$72, DW_AT_data_member_location[DW_OP_plus_uconst 0x12]
     925                      .dwattr $C$DW$72, DW_AT_accessibility(DW_ACCESS_public)
     926              
     927              $C$DW$73        .dwtag  DW_TAG_member
     928                      .dwattr $C$DW$73, DW_AT_type(*$C$DW$T$19)
     929                      .dwattr $C$DW$73, DW_AT_name("i1")
     930                      .dwattr $C$DW$73, DW_AT_TI_symbol_name("_i1")
     931                      .dwattr $C$DW$73, DW_AT_data_member_location[DW_OP_plus_uconst 0x14]
     932                      .dwattr $C$DW$73, DW_AT_accessibility(DW_ACCESS_public)
     933              
     934              $C$DW$74        .dwtag  DW_TAG_member
     935                      .dwattr $C$DW$74, DW_AT_type(*$C$DW$T$19)
     936                      .dwattr $C$DW$74, DW_AT_name("w1")
     937                      .dwattr $C$DW$74, DW_AT_TI_symbol_name("_w1")
     938                      .dwattr $C$DW$74, DW_AT_data_member_location[DW_OP_plus_uconst 0x16]
     939                      .dwattr $C$DW$74, DW_AT_accessibility(DW_ACCESS_public)
     940              
     941                      .dwendtag $C$DW$T$23
     942              
     943              $C$DW$T$78      .dwtag  DW_TAG_typedef
     944                      .dwattr $C$DW$T$78, DW_AT_name("PI_CONTROLLER")
     945                      .dwattr $C$DW$T$78, DW_AT_type(*$C$DW$T$23)
     946                      .dwattr $C$DW$T$78, DW_AT_language(DW_LANG_C)
     947              
     948              
     949              $C$DW$T$24      .dwtag  DW_TAG_structure_type
     950                      .dwattr $C$DW$T$24, DW_AT_byte_size(0x0a)
     951              $C$DW$75        .dwtag  DW_TAG_member
     952                      .dwattr $C$DW$75, DW_AT_type(*$C$DW$T$19)
     953                      .dwattr $C$DW$75, DW_AT_name("Ref")
     954                      .dwattr $C$DW$75, DW_AT_TI_symbol_name("_Ref")
     955                      .dwattr $C$DW$75, DW_AT_data_member_location[DW_OP_plus_uconst 0x0]
     956                      .dwattr $C$DW$75, DW_AT_accessibility(DW_ACCESS_public)
     957              
     958              $C$DW$76        .dwtag  DW_TAG_member
     959                      .dwattr $C$DW$76, DW_AT_type(*$C$DW$T$19)
     960                      .dwattr $C$DW$76, DW_AT_name("Fbk")
     961                      .dwattr $C$DW$76, DW_AT_TI_symbol_name("_Fbk")
     962                      .dwattr $C$DW$76, DW_AT_data_member_location[DW_OP_plus_uconst 0x2]
     963                      .dwattr $C$DW$76, DW_AT_accessibility(DW_ACCESS_public)
     964              
TMS320C2000 Assembler PC v20.2.5 Fri Jan  6 17:23:30 2023

Copyright (c) 1996-2018 Texas Instruments Incorporated
drv8305.asm                                                          PAGE   20

     965              $C$DW$77        .dwtag  DW_TAG_member
     966                      .dwattr $C$DW$77, DW_AT_type(*$C$DW$T$19)
     967                      .dwattr $C$DW$77, DW_AT_name("Out")
     968                      .dwattr $C$DW$77, DW_AT_TI_symbol_name("_Out")
     969                      .dwattr $C$DW$77, DW_AT_data_member_location[DW_OP_plus_uconst 0x4]
     970                      .dwattr $C$DW$77, DW_AT_accessibility(DW_ACCESS_public)
     971              
     972              $C$DW$78        .dwtag  DW_TAG_member
     973                      .dwattr $C$DW$78, DW_AT_type(*$C$DW$T$19)
     974                      .dwattr $C$DW$78, DW_AT_name("c1")
     975                      .dwattr $C$DW$78, DW_AT_TI_symbol_name("_c1")
     976                      .dwattr $C$DW$78, DW_AT_data_member_location[DW_OP_plus_uconst 0x6]
     977                      .dwattr $C$DW$78, DW_AT_accessibility(DW_ACCESS_public)
     978              
     979              $C$DW$79        .dwtag  DW_TAG_member
     980                      .dwattr $C$DW$79, DW_AT_type(*$C$DW$T$19)
     981                      .dwattr $C$DW$79, DW_AT_name("c2")
     982                      .dwattr $C$DW$79, DW_AT_TI_symbol_name("_c2")
     983                      .dwattr $C$DW$79, DW_AT_data_member_location[DW_OP_plus_uconst 0x8]
     984                      .dwattr $C$DW$79, DW_AT_accessibility(DW_ACCESS_public)
     985              
     986                      .dwendtag $C$DW$T$24
     987              
     988              $C$DW$T$27      .dwtag  DW_TAG_typedef
     989                      .dwattr $C$DW$T$27, DW_AT_name("PID_TERMINALS")
     990                      .dwattr $C$DW$T$27, DW_AT_type(*$C$DW$T$24)
     991                      .dwattr $C$DW$T$27, DW_AT_language(DW_LANG_C)
     992              
     993              
     994              $C$DW$T$25      .dwtag  DW_TAG_structure_type
     995                      .dwattr $C$DW$T$25, DW_AT_byte_size(0x0e)
     996              $C$DW$80        .dwtag  DW_TAG_member
     997                      .dwattr $C$DW$80, DW_AT_type(*$C$DW$T$19)
     998                      .dwattr $C$DW$80, DW_AT_name("Kr")
     999                      .dwattr $C$DW$80, DW_AT_TI_symbol_name("_Kr")
    1000                      .dwattr $C$DW$80, DW_AT_data_member_location[DW_OP_plus_uconst 0x0]
    1001                      .dwattr $C$DW$80, DW_AT_accessibility(DW_ACCESS_public)
    1002              
    1003              $C$DW$81        .dwtag  DW_TAG_member
    1004                      .dwattr $C$DW$81, DW_AT_type(*$C$DW$T$19)
    1005                      .dwattr $C$DW$81, DW_AT_name("Kp")
    1006                      .dwattr $C$DW$81, DW_AT_TI_symbol_name("_Kp")
    1007                      .dwattr $C$DW$81, DW_AT_data_member_location[DW_OP_plus_uconst 0x2]
    1008                      .dwattr $C$DW$81, DW_AT_accessibility(DW_ACCESS_public)
    1009              
    1010              $C$DW$82        .dwtag  DW_TAG_member
    1011                      .dwattr $C$DW$82, DW_AT_type(*$C$DW$T$19)
    1012                      .dwattr $C$DW$82, DW_AT_name("Ki")
    1013                      .dwattr $C$DW$82, DW_AT_TI_symbol_name("_Ki")
    1014                      .dwattr $C$DW$82, DW_AT_data_member_location[DW_OP_plus_uconst 0x4]
    1015                      .dwattr $C$DW$82, DW_AT_accessibility(DW_ACCESS_public)
    1016              
    1017              $C$DW$83        .dwtag  DW_TAG_member
    1018                      .dwattr $C$DW$83, DW_AT_type(*$C$DW$T$19)
    1019                      .dwattr $C$DW$83, DW_AT_name("Kd")
TMS320C2000 Assembler PC v20.2.5 Fri Jan  6 17:23:30 2023

Copyright (c) 1996-2018 Texas Instruments Incorporated
drv8305.asm                                                          PAGE   21

    1020                      .dwattr $C$DW$83, DW_AT_TI_symbol_name("_Kd")
    1021                      .dwattr $C$DW$83, DW_AT_data_member_location[DW_OP_plus_uconst 0x6]
    1022                      .dwattr $C$DW$83, DW_AT_accessibility(DW_ACCESS_public)
    1023              
    1024              $C$DW$84        .dwtag  DW_TAG_member
    1025                      .dwattr $C$DW$84, DW_AT_type(*$C$DW$T$19)
    1026                      .dwattr $C$DW$84, DW_AT_name("Km")
    1027                      .dwattr $C$DW$84, DW_AT_TI_symbol_name("_Km")
    1028                      .dwattr $C$DW$84, DW_AT_data_member_location[DW_OP_plus_uconst 0x8]
    1029                      .dwattr $C$DW$84, DW_AT_accessibility(DW_ACCESS_public)
    1030              
    1031              $C$DW$85        .dwtag  DW_TAG_member
    1032                      .dwattr $C$DW$85, DW_AT_type(*$C$DW$T$19)
    1033                      .dwattr $C$DW$85, DW_AT_name("Umax")
    1034                      .dwattr $C$DW$85, DW_AT_TI_symbol_name("_Umax")
    1035                      .dwattr $C$DW$85, DW_AT_data_member_location[DW_OP_plus_uconst 0xa]
    1036                      .dwattr $C$DW$85, DW_AT_accessibility(DW_ACCESS_public)
    1037              
    1038              $C$DW$86        .dwtag  DW_TAG_member
    1039                      .dwattr $C$DW$86, DW_AT_type(*$C$DW$T$19)
    1040                      .dwattr $C$DW$86, DW_AT_name("Umin")
    1041                      .dwattr $C$DW$86, DW_AT_TI_symbol_name("_Umin")
    1042                      .dwattr $C$DW$86, DW_AT_data_member_location[DW_OP_plus_uconst 0xc]
    1043                      .dwattr $C$DW$86, DW_AT_accessibility(DW_ACCESS_public)
    1044              
    1045                      .dwendtag $C$DW$T$25
    1046              
    1047              $C$DW$T$28      .dwtag  DW_TAG_typedef
    1048                      .dwattr $C$DW$T$28, DW_AT_name("PID_PARAMETERS")
    1049                      .dwattr $C$DW$T$28, DW_AT_type(*$C$DW$T$25)
    1050                      .dwattr $C$DW$T$28, DW_AT_language(DW_LANG_C)
    1051              
    1052              
    1053              $C$DW$T$26      .dwtag  DW_TAG_structure_type
    1054                      .dwattr $C$DW$T$26, DW_AT_byte_size(0x10)
    1055              $C$DW$87        .dwtag  DW_TAG_member
    1056                      .dwattr $C$DW$87, DW_AT_type(*$C$DW$T$19)
    1057                      .dwattr $C$DW$87, DW_AT_name("up")
    1058                      .dwattr $C$DW$87, DW_AT_TI_symbol_name("_up")
    1059                      .dwattr $C$DW$87, DW_AT_data_member_location[DW_OP_plus_uconst 0x0]
    1060                      .dwattr $C$DW$87, DW_AT_accessibility(DW_ACCESS_public)
    1061              
    1062              $C$DW$88        .dwtag  DW_TAG_member
    1063                      .dwattr $C$DW$88, DW_AT_type(*$C$DW$T$19)
    1064                      .dwattr $C$DW$88, DW_AT_name("ui")
    1065                      .dwattr $C$DW$88, DW_AT_TI_symbol_name("_ui")
    1066                      .dwattr $C$DW$88, DW_AT_data_member_location[DW_OP_plus_uconst 0x2]
    1067                      .dwattr $C$DW$88, DW_AT_accessibility(DW_ACCESS_public)
    1068              
    1069              $C$DW$89        .dwtag  DW_TAG_member
    1070                      .dwattr $C$DW$89, DW_AT_type(*$C$DW$T$19)
    1071                      .dwattr $C$DW$89, DW_AT_name("ud")
    1072                      .dwattr $C$DW$89, DW_AT_TI_symbol_name("_ud")
    1073                      .dwattr $C$DW$89, DW_AT_data_member_location[DW_OP_plus_uconst 0x4]
    1074                      .dwattr $C$DW$89, DW_AT_accessibility(DW_ACCESS_public)
TMS320C2000 Assembler PC v20.2.5 Fri Jan  6 17:23:30 2023

Copyright (c) 1996-2018 Texas Instruments Incorporated
drv8305.asm                                                          PAGE   22

    1075              
    1076              $C$DW$90        .dwtag  DW_TAG_member
    1077                      .dwattr $C$DW$90, DW_AT_type(*$C$DW$T$19)
    1078                      .dwattr $C$DW$90, DW_AT_name("v1")
    1079                      .dwattr $C$DW$90, DW_AT_TI_symbol_name("_v1")
    1080                      .dwattr $C$DW$90, DW_AT_data_member_location[DW_OP_plus_uconst 0x6]
    1081                      .dwattr $C$DW$90, DW_AT_accessibility(DW_ACCESS_public)
    1082              
    1083              $C$DW$91        .dwtag  DW_TAG_member
    1084                      .dwattr $C$DW$91, DW_AT_type(*$C$DW$T$19)
    1085                      .dwattr $C$DW$91, DW_AT_name("i1")
    1086                      .dwattr $C$DW$91, DW_AT_TI_symbol_name("_i1")
    1087                      .dwattr $C$DW$91, DW_AT_data_member_location[DW_OP_plus_uconst 0x8]
    1088                      .dwattr $C$DW$91, DW_AT_accessibility(DW_ACCESS_public)
    1089              
    1090              $C$DW$92        .dwtag  DW_TAG_member
    1091                      .dwattr $C$DW$92, DW_AT_type(*$C$DW$T$19)
    1092                      .dwattr $C$DW$92, DW_AT_name("d1")
    1093                      .dwattr $C$DW$92, DW_AT_TI_symbol_name("_d1")
    1094                      .dwattr $C$DW$92, DW_AT_data_member_location[DW_OP_plus_uconst 0xa]
    1095                      .dwattr $C$DW$92, DW_AT_accessibility(DW_ACCESS_public)
    1096              
    1097              $C$DW$93        .dwtag  DW_TAG_member
    1098                      .dwattr $C$DW$93, DW_AT_type(*$C$DW$T$19)
    1099                      .dwattr $C$DW$93, DW_AT_name("d2")
    1100                      .dwattr $C$DW$93, DW_AT_TI_symbol_name("_d2")
    1101                      .dwattr $C$DW$93, DW_AT_data_member_location[DW_OP_plus_uconst 0xc]
    1102                      .dwattr $C$DW$93, DW_AT_accessibility(DW_ACCESS_public)
    1103              
    1104              $C$DW$94        .dwtag  DW_TAG_member
    1105                      .dwattr $C$DW$94, DW_AT_type(*$C$DW$T$19)
    1106                      .dwattr $C$DW$94, DW_AT_name("w1")
    1107                      .dwattr $C$DW$94, DW_AT_TI_symbol_name("_w1")
    1108                      .dwattr $C$DW$94, DW_AT_data_member_location[DW_OP_plus_uconst 0xe]
    1109                      .dwattr $C$DW$94, DW_AT_accessibility(DW_ACCESS_public)
    1110              
    1111                      .dwendtag $C$DW$T$26
    1112              
    1113              $C$DW$T$29      .dwtag  DW_TAG_typedef
    1114                      .dwattr $C$DW$T$29, DW_AT_name("PID_DATA")
    1115                      .dwattr $C$DW$T$29, DW_AT_type(*$C$DW$T$26)
    1116                      .dwattr $C$DW$T$29, DW_AT_language(DW_LANG_C)
    1117              
    1118              
    1119              $C$DW$T$30      .dwtag  DW_TAG_structure_type
    1120                      .dwattr $C$DW$T$30, DW_AT_byte_size(0x28)
    1121              $C$DW$95        .dwtag  DW_TAG_member
    1122                      .dwattr $C$DW$95, DW_AT_type(*$C$DW$T$27)
    1123                      .dwattr $C$DW$95, DW_AT_name("term")
    1124                      .dwattr $C$DW$95, DW_AT_TI_symbol_name("_term")
    1125                      .dwattr $C$DW$95, DW_AT_data_member_location[DW_OP_plus_uconst 0x0]
    1126                      .dwattr $C$DW$95, DW_AT_accessibility(DW_ACCESS_public)
    1127              
    1128              $C$DW$96        .dwtag  DW_TAG_member
    1129                      .dwattr $C$DW$96, DW_AT_type(*$C$DW$T$28)
TMS320C2000 Assembler PC v20.2.5 Fri Jan  6 17:23:30 2023

Copyright (c) 1996-2018 Texas Instruments Incorporated
drv8305.asm                                                          PAGE   23

    1130                      .dwattr $C$DW$96, DW_AT_name("param")
    1131                      .dwattr $C$DW$96, DW_AT_TI_symbol_name("_param")
    1132                      .dwattr $C$DW$96, DW_AT_data_member_location[DW_OP_plus_uconst 0xa]
    1133                      .dwattr $C$DW$96, DW_AT_accessibility(DW_ACCESS_public)
    1134              
    1135              $C$DW$97        .dwtag  DW_TAG_member
    1136                      .dwattr $C$DW$97, DW_AT_type(*$C$DW$T$29)
    1137                      .dwattr $C$DW$97, DW_AT_name("data")
    1138                      .dwattr $C$DW$97, DW_AT_TI_symbol_name("_data")
    1139                      .dwattr $C$DW$97, DW_AT_data_member_location[DW_OP_plus_uconst 0x18]
    1140                      .dwattr $C$DW$97, DW_AT_accessibility(DW_ACCESS_public)
    1141              
    1142                      .dwendtag $C$DW$T$30
    1143              
    1144              $C$DW$T$79      .dwtag  DW_TAG_typedef
    1145                      .dwattr $C$DW$T$79, DW_AT_name("PID_CONTROLLER")
    1146                      .dwattr $C$DW$T$79, DW_AT_type(*$C$DW$T$30)
    1147                      .dwattr $C$DW$T$79, DW_AT_language(DW_LANG_C)
    1148              
    1149              
    1150              $C$DW$T$31      .dwtag  DW_TAG_structure_type
    1151                      .dwattr $C$DW$T$31, DW_AT_byte_size(0x0a)
    1152              $C$DW$98        .dwtag  DW_TAG_member
    1153                      .dwattr $C$DW$98, DW_AT_type(*$C$DW$T$19)
    1154                      .dwattr $C$DW$98, DW_AT_name("Ref")
    1155                      .dwattr $C$DW$98, DW_AT_TI_symbol_name("_Ref")
    1156                      .dwattr $C$DW$98, DW_AT_data_member_location[DW_OP_plus_uconst 0x0]
    1157                      .dwattr $C$DW$98, DW_AT_accessibility(DW_ACCESS_public)
    1158              
    1159              $C$DW$99        .dwtag  DW_TAG_member
    1160                      .dwattr $C$DW$99, DW_AT_type(*$C$DW$T$19)
    1161                      .dwattr $C$DW$99, DW_AT_name("Fbk")
    1162                      .dwattr $C$DW$99, DW_AT_TI_symbol_name("_Fbk")
    1163                      .dwattr $C$DW$99, DW_AT_data_member_location[DW_OP_plus_uconst 0x2]
    1164                      .dwattr $C$DW$99, DW_AT_accessibility(DW_ACCESS_public)
    1165              
    1166              $C$DW$100       .dwtag  DW_TAG_member
    1167                      .dwattr $C$DW$100, DW_AT_type(*$C$DW$T$19)
    1168                      .dwattr $C$DW$100, DW_AT_name("Out")
    1169                      .dwattr $C$DW$100, DW_AT_TI_symbol_name("_Out")
    1170                      .dwattr $C$DW$100, DW_AT_data_member_location[DW_OP_plus_uconst 0x4]
    1171                      .dwattr $C$DW$100, DW_AT_accessibility(DW_ACCESS_public)
    1172              
    1173              $C$DW$101       .dwtag  DW_TAG_member
    1174                      .dwattr $C$DW$101, DW_AT_type(*$C$DW$T$19)
    1175                      .dwattr $C$DW$101, DW_AT_name("c1")
    1176                      .dwattr $C$DW$101, DW_AT_TI_symbol_name("_c1")
    1177                      .dwattr $C$DW$101, DW_AT_data_member_location[DW_OP_plus_uconst 0x6]
    1178                      .dwattr $C$DW$101, DW_AT_accessibility(DW_ACCESS_public)
    1179              
    1180              $C$DW$102       .dwtag  DW_TAG_member
    1181                      .dwattr $C$DW$102, DW_AT_type(*$C$DW$T$19)
    1182                      .dwattr $C$DW$102, DW_AT_name("c2")
    1183                      .dwattr $C$DW$102, DW_AT_TI_symbol_name("_c2")
    1184                      .dwattr $C$DW$102, DW_AT_data_member_location[DW_OP_plus_uconst 0x8]
TMS320C2000 Assembler PC v20.2.5 Fri Jan  6 17:23:30 2023

Copyright (c) 1996-2018 Texas Instruments Incorporated
drv8305.asm                                                          PAGE   24

    1185                      .dwattr $C$DW$102, DW_AT_accessibility(DW_ACCESS_public)
    1186              
    1187                      .dwendtag $C$DW$T$31
    1188              
    1189              $C$DW$T$34      .dwtag  DW_TAG_typedef
    1190                      .dwattr $C$DW$T$34, DW_AT_name("PI_TERMINALS")
    1191                      .dwattr $C$DW$T$34, DW_AT_type(*$C$DW$T$31)
    1192                      .dwattr $C$DW$T$34, DW_AT_language(DW_LANG_C)
    1193              
    1194              
    1195              $C$DW$T$32      .dwtag  DW_TAG_structure_type
    1196                      .dwattr $C$DW$T$32, DW_AT_byte_size(0x14)
    1197              $C$DW$103       .dwtag  DW_TAG_member
    1198                      .dwattr $C$DW$103, DW_AT_type(*$C$DW$T$19)
    1199                      .dwattr $C$DW$103, DW_AT_name("Kr")
    1200                      .dwattr $C$DW$103, DW_AT_TI_symbol_name("_Kr")
    1201                      .dwattr $C$DW$103, DW_AT_data_member_location[DW_OP_plus_uconst 0x0]
    1202                      .dwattr $C$DW$103, DW_AT_accessibility(DW_ACCESS_public)
    1203              
    1204              $C$DW$104       .dwtag  DW_TAG_member
    1205                      .dwattr $C$DW$104, DW_AT_type(*$C$DW$T$19)
    1206                      .dwattr $C$DW$104, DW_AT_name("Kp")
    1207                      .dwattr $C$DW$104, DW_AT_TI_symbol_name("_Kp")
    1208                      .dwattr $C$DW$104, DW_AT_data_member_location[DW_OP_plus_uconst 0x2]
    1209                      .dwattr $C$DW$104, DW_AT_accessibility(DW_ACCESS_public)
    1210              
    1211              $C$DW$105       .dwtag  DW_TAG_member
    1212                      .dwattr $C$DW$105, DW_AT_type(*$C$DW$T$19)
    1213                      .dwattr $C$DW$105, DW_AT_name("Ki")
    1214                      .dwattr $C$DW$105, DW_AT_TI_symbol_name("_Ki")
    1215                      .dwattr $C$DW$105, DW_AT_data_member_location[DW_OP_plus_uconst 0x4]
    1216                      .dwattr $C$DW$105, DW_AT_accessibility(DW_ACCESS_public)
    1217              
    1218              $C$DW$106       .dwtag  DW_TAG_member
    1219                      .dwattr $C$DW$106, DW_AT_type(*$C$DW$T$19)
    1220                      .dwattr $C$DW$106, DW_AT_name("Kd")
    1221                      .dwattr $C$DW$106, DW_AT_TI_symbol_name("_Kd")
    1222                      .dwattr $C$DW$106, DW_AT_data_member_location[DW_OP_plus_uconst 0x6]
    1223                      .dwattr $C$DW$106, DW_AT_accessibility(DW_ACCESS_public)
    1224              
    1225              $C$DW$107       .dwtag  DW_TAG_member
    1226                      .dwattr $C$DW$107, DW_AT_type(*$C$DW$T$19)
    1227                      .dwattr $C$DW$107, DW_AT_name("Km")
    1228                      .dwattr $C$DW$107, DW_AT_TI_symbol_name("_Km")
    1229                      .dwattr $C$DW$107, DW_AT_data_member_location[DW_OP_plus_uconst 0x8]
    1230                      .dwattr $C$DW$107, DW_AT_accessibility(DW_ACCESS_public)
    1231              
    1232              $C$DW$108       .dwtag  DW_TAG_member
    1233                      .dwattr $C$DW$108, DW_AT_type(*$C$DW$T$19)
    1234                      .dwattr $C$DW$108, DW_AT_name("Umax")
    1235                      .dwattr $C$DW$108, DW_AT_TI_symbol_name("_Umax")
    1236                      .dwattr $C$DW$108, DW_AT_data_member_location[DW_OP_plus_uconst 0xa]
    1237                      .dwattr $C$DW$108, DW_AT_accessibility(DW_ACCESS_public)
    1238              
    1239              $C$DW$109       .dwtag  DW_TAG_member
TMS320C2000 Assembler PC v20.2.5 Fri Jan  6 17:23:30 2023

Copyright (c) 1996-2018 Texas Instruments Incorporated
drv8305.asm                                                          PAGE   25

    1240                      .dwattr $C$DW$109, DW_AT_type(*$C$DW$T$19)
    1241                      .dwattr $C$DW$109, DW_AT_name("Umin")
    1242                      .dwattr $C$DW$109, DW_AT_TI_symbol_name("_Umin")
    1243                      .dwattr $C$DW$109, DW_AT_data_member_location[DW_OP_plus_uconst 0xc]
    1244                      .dwattr $C$DW$109, DW_AT_accessibility(DW_ACCESS_public)
    1245              
    1246              $C$DW$110       .dwtag  DW_TAG_member
    1247                      .dwattr $C$DW$110, DW_AT_type(*$C$DW$T$19)
    1248                      .dwattr $C$DW$110, DW_AT_name("T")
    1249                      .dwattr $C$DW$110, DW_AT_TI_symbol_name("_T")
    1250                      .dwattr $C$DW$110, DW_AT_data_member_location[DW_OP_plus_uconst 0xe]
    1251                      .dwattr $C$DW$110, DW_AT_accessibility(DW_ACCESS_public)
    1252              
    1253              $C$DW$111       .dwtag  DW_TAG_member
    1254                      .dwattr $C$DW$111, DW_AT_type(*$C$DW$T$19)
    1255                      .dwattr $C$DW$111, DW_AT_name("divT")
    1256                      .dwattr $C$DW$111, DW_AT_TI_symbol_name("_divT")
    1257                      .dwattr $C$DW$111, DW_AT_data_member_location[DW_OP_plus_uconst 0x10]
    1258                      .dwattr $C$DW$111, DW_AT_accessibility(DW_ACCESS_public)
    1259              
    1260              $C$DW$112       .dwtag  DW_TAG_member
    1261                      .dwattr $C$DW$112, DW_AT_type(*$C$DW$T$19)
    1262                      .dwattr $C$DW$112, DW_AT_name("Kt")
    1263                      .dwattr $C$DW$112, DW_AT_TI_symbol_name("_Kt")
    1264                      .dwattr $C$DW$112, DW_AT_data_member_location[DW_OP_plus_uconst 0x12]
    1265                      .dwattr $C$DW$112, DW_AT_accessibility(DW_ACCESS_public)
    1266              
    1267                      .dwendtag $C$DW$T$32
    1268              
    1269              $C$DW$T$35      .dwtag  DW_TAG_typedef
    1270                      .dwattr $C$DW$T$35, DW_AT_name("PI_PARAMETERS")
    1271                      .dwattr $C$DW$T$35, DW_AT_type(*$C$DW$T$32)
    1272                      .dwattr $C$DW$T$35, DW_AT_language(DW_LANG_C)
    1273              
    1274              
    1275              $C$DW$T$33      .dwtag  DW_TAG_structure_type
    1276                      .dwattr $C$DW$T$33, DW_AT_byte_size(0x0a)
    1277              $C$DW$113       .dwtag  DW_TAG_member
    1278                      .dwattr $C$DW$113, DW_AT_type(*$C$DW$T$19)
    1279                      .dwattr $C$DW$113, DW_AT_name("up")
    1280                      .dwattr $C$DW$113, DW_AT_TI_symbol_name("_up")
    1281                      .dwattr $C$DW$113, DW_AT_data_member_location[DW_OP_plus_uconst 0x0]
    1282                      .dwattr $C$DW$113, DW_AT_accessibility(DW_ACCESS_public)
    1283              
    1284              $C$DW$114       .dwtag  DW_TAG_member
    1285                      .dwattr $C$DW$114, DW_AT_type(*$C$DW$T$19)
    1286                      .dwattr $C$DW$114, DW_AT_name("ui")
    1287                      .dwattr $C$DW$114, DW_AT_TI_symbol_name("_ui")
    1288                      .dwattr $C$DW$114, DW_AT_data_member_location[DW_OP_plus_uconst 0x2]
    1289                      .dwattr $C$DW$114, DW_AT_accessibility(DW_ACCESS_public)
    1290              
    1291              $C$DW$115       .dwtag  DW_TAG_member
    1292                      .dwattr $C$DW$115, DW_AT_type(*$C$DW$T$19)
    1293                      .dwattr $C$DW$115, DW_AT_name("v1")
    1294                      .dwattr $C$DW$115, DW_AT_TI_symbol_name("_v1")
TMS320C2000 Assembler PC v20.2.5 Fri Jan  6 17:23:30 2023

Copyright (c) 1996-2018 Texas Instruments Incorporated
drv8305.asm                                                          PAGE   26

    1295                      .dwattr $C$DW$115, DW_AT_data_member_location[DW_OP_plus_uconst 0x4]
    1296                      .dwattr $C$DW$115, DW_AT_accessibility(DW_ACCESS_public)
    1297              
    1298              $C$DW$116       .dwtag  DW_TAG_member
    1299                      .dwattr $C$DW$116, DW_AT_type(*$C$DW$T$19)
    1300                      .dwattr $C$DW$116, DW_AT_name("i1")
    1301                      .dwattr $C$DW$116, DW_AT_TI_symbol_name("_i1")
    1302                      .dwattr $C$DW$116, DW_AT_data_member_location[DW_OP_plus_uconst 0x6]
    1303                      .dwattr $C$DW$116, DW_AT_accessibility(DW_ACCESS_public)
    1304              
    1305              $C$DW$117       .dwtag  DW_TAG_member
    1306                      .dwattr $C$DW$117, DW_AT_type(*$C$DW$T$19)
    1307                      .dwattr $C$DW$117, DW_AT_name("w1")
    1308                      .dwattr $C$DW$117, DW_AT_TI_symbol_name("_w1")
    1309                      .dwattr $C$DW$117, DW_AT_data_member_location[DW_OP_plus_uconst 0x8]
    1310                      .dwattr $C$DW$117, DW_AT_accessibility(DW_ACCESS_public)
    1311              
    1312                      .dwendtag $C$DW$T$33
    1313              
    1314              $C$DW$T$36      .dwtag  DW_TAG_typedef
    1315                      .dwattr $C$DW$T$36, DW_AT_name("PI_DATA")
    1316                      .dwattr $C$DW$T$36, DW_AT_type(*$C$DW$T$33)
    1317                      .dwattr $C$DW$T$36, DW_AT_language(DW_LANG_C)
    1318              
    1319              
    1320              $C$DW$T$37      .dwtag  DW_TAG_structure_type
    1321                      .dwattr $C$DW$T$37, DW_AT_byte_size(0x28)
    1322              $C$DW$118       .dwtag  DW_TAG_member
    1323                      .dwattr $C$DW$118, DW_AT_type(*$C$DW$T$34)
    1324                      .dwattr $C$DW$118, DW_AT_name("term")
    1325                      .dwattr $C$DW$118, DW_AT_TI_symbol_name("_term")
    1326                      .dwattr $C$DW$118, DW_AT_data_member_location[DW_OP_plus_uconst 0x0]
    1327                      .dwattr $C$DW$118, DW_AT_accessibility(DW_ACCESS_public)
    1328              
    1329              $C$DW$119       .dwtag  DW_TAG_member
    1330                      .dwattr $C$DW$119, DW_AT_type(*$C$DW$T$35)
    1331                      .dwattr $C$DW$119, DW_AT_name("param")
    1332                      .dwattr $C$DW$119, DW_AT_TI_symbol_name("_param")
    1333                      .dwattr $C$DW$119, DW_AT_data_member_location[DW_OP_plus_uconst 0xa]
    1334                      .dwattr $C$DW$119, DW_AT_accessibility(DW_ACCESS_public)
    1335              
    1336              $C$DW$120       .dwtag  DW_TAG_member
    1337                      .dwattr $C$DW$120, DW_AT_type(*$C$DW$T$36)
    1338                      .dwattr $C$DW$120, DW_AT_name("data")
    1339                      .dwattr $C$DW$120, DW_AT_TI_symbol_name("_data")
    1340                      .dwattr $C$DW$120, DW_AT_data_member_location[DW_OP_plus_uconst 0x1e]
    1341                      .dwattr $C$DW$120, DW_AT_accessibility(DW_ACCESS_public)
    1342              
    1343                      .dwendtag $C$DW$T$37
    1344              
    1345              $C$DW$T$80      .dwtag  DW_TAG_typedef
    1346                      .dwattr $C$DW$T$80, DW_AT_name("PI_SPEED_CONTROLLER")
    1347                      .dwattr $C$DW$T$80, DW_AT_type(*$C$DW$T$37)
    1348                      .dwattr $C$DW$T$80, DW_AT_language(DW_LANG_C)
    1349              
TMS320C2000 Assembler PC v20.2.5 Fri Jan  6 17:23:30 2023

Copyright (c) 1996-2018 Texas Instruments Incorporated
drv8305.asm                                                          PAGE   27

    1350              
    1351              $C$DW$T$39      .dwtag  DW_TAG_structure_type
    1352                      .dwattr $C$DW$T$39, DW_AT_byte_size(0x12)
    1353              $C$DW$121       .dwtag  DW_TAG_member
    1354                      .dwattr $C$DW$121, DW_AT_type(*$C$DW$T$19)
    1355                      .dwattr $C$DW$121, DW_AT_name("Ualpha")
    1356                      .dwattr $C$DW$121, DW_AT_TI_symbol_name("_Ualpha")
    1357                      .dwattr $C$DW$121, DW_AT_data_member_location[DW_OP_plus_uconst 0x0]
    1358                      .dwattr $C$DW$121, DW_AT_accessibility(DW_ACCESS_public)
    1359              
    1360              $C$DW$122       .dwtag  DW_TAG_member
    1361                      .dwattr $C$DW$122, DW_AT_type(*$C$DW$T$19)
    1362                      .dwattr $C$DW$122, DW_AT_name("Ubeta")
    1363                      .dwattr $C$DW$122, DW_AT_TI_symbol_name("_Ubeta")
    1364                      .dwattr $C$DW$122, DW_AT_data_member_location[DW_OP_plus_uconst 0x2]
    1365                      .dwattr $C$DW$122, DW_AT_accessibility(DW_ACCESS_public)
    1366              
    1367              $C$DW$123       .dwtag  DW_TAG_member
    1368                      .dwattr $C$DW$123, DW_AT_type(*$C$DW$T$19)
    1369                      .dwattr $C$DW$123, DW_AT_name("Ta")
    1370                      .dwattr $C$DW$123, DW_AT_TI_symbol_name("_Ta")
    1371                      .dwattr $C$DW$123, DW_AT_data_member_location[DW_OP_plus_uconst 0x4]
    1372                      .dwattr $C$DW$123, DW_AT_accessibility(DW_ACCESS_public)
    1373              
    1374              $C$DW$124       .dwtag  DW_TAG_member
    1375                      .dwattr $C$DW$124, DW_AT_type(*$C$DW$T$19)
    1376                      .dwattr $C$DW$124, DW_AT_name("Tb")
    1377                      .dwattr $C$DW$124, DW_AT_TI_symbol_name("_Tb")
    1378                      .dwattr $C$DW$124, DW_AT_data_member_location[DW_OP_plus_uconst 0x6]
    1379                      .dwattr $C$DW$124, DW_AT_accessibility(DW_ACCESS_public)
    1380              
    1381              $C$DW$125       .dwtag  DW_TAG_member
    1382                      .dwattr $C$DW$125, DW_AT_type(*$C$DW$T$19)
    1383                      .dwattr $C$DW$125, DW_AT_name("Tc")
    1384                      .dwattr $C$DW$125, DW_AT_TI_symbol_name("_Tc")
    1385                      .dwattr $C$DW$125, DW_AT_data_member_location[DW_OP_plus_uconst 0x8]
    1386                      .dwattr $C$DW$125, DW_AT_accessibility(DW_ACCESS_public)
    1387              
    1388              $C$DW$126       .dwtag  DW_TAG_member
    1389                      .dwattr $C$DW$126, DW_AT_type(*$C$DW$T$19)
    1390                      .dwattr $C$DW$126, DW_AT_name("tmp1")
    1391                      .dwattr $C$DW$126, DW_AT_TI_symbol_name("_tmp1")
    1392                      .dwattr $C$DW$126, DW_AT_data_member_location[DW_OP_plus_uconst 0xa]
    1393                      .dwattr $C$DW$126, DW_AT_accessibility(DW_ACCESS_public)
    1394              
    1395              $C$DW$127       .dwtag  DW_TAG_member
    1396                      .dwattr $C$DW$127, DW_AT_type(*$C$DW$T$19)
    1397                      .dwattr $C$DW$127, DW_AT_name("tmp2")
    1398                      .dwattr $C$DW$127, DW_AT_TI_symbol_name("_tmp2")
    1399                      .dwattr $C$DW$127, DW_AT_data_member_location[DW_OP_plus_uconst 0xc]
    1400                      .dwattr $C$DW$127, DW_AT_accessibility(DW_ACCESS_public)
    1401              
    1402              $C$DW$128       .dwtag  DW_TAG_member
    1403                      .dwattr $C$DW$128, DW_AT_type(*$C$DW$T$19)
    1404                      .dwattr $C$DW$128, DW_AT_name("tmp3")
TMS320C2000 Assembler PC v20.2.5 Fri Jan  6 17:23:30 2023

Copyright (c) 1996-2018 Texas Instruments Incorporated
drv8305.asm                                                          PAGE   28

    1405                      .dwattr $C$DW$128, DW_AT_TI_symbol_name("_tmp3")
    1406                      .dwattr $C$DW$128, DW_AT_data_member_location[DW_OP_plus_uconst 0xe]
    1407                      .dwattr $C$DW$128, DW_AT_accessibility(DW_ACCESS_public)
    1408              
    1409              $C$DW$129       .dwtag  DW_TAG_member
    1410                      .dwattr $C$DW$129, DW_AT_type(*$C$DW$T$38)
    1411                      .dwattr $C$DW$129, DW_AT_name("VecSector")
    1412                      .dwattr $C$DW$129, DW_AT_TI_symbol_name("_VecSector")
    1413                      .dwattr $C$DW$129, DW_AT_data_member_location[DW_OP_plus_uconst 0x10]
    1414                      .dwattr $C$DW$129, DW_AT_accessibility(DW_ACCESS_public)
    1415              
    1416                      .dwendtag $C$DW$T$39
    1417              
    1418              $C$DW$T$81      .dwtag  DW_TAG_typedef
    1419                      .dwattr $C$DW$T$81, DW_AT_name("SVGEN")
    1420                      .dwattr $C$DW$T$81, DW_AT_type(*$C$DW$T$39)
    1421                      .dwattr $C$DW$T$81, DW_AT_language(DW_LANG_C)
    1422              
    1423              
    1424              $C$DW$T$41      .dwtag  DW_TAG_structure_type
    1425                      .dwattr $C$DW$T$41, DW_AT_byte_size(0x10)
    1426              $C$DW$130       .dwtag  DW_TAG_member
    1427                      .dwattr $C$DW$130, DW_AT_type(*$C$DW$T$19)
    1428                      .dwattr $C$DW$130, DW_AT_name("TargetValue")
    1429                      .dwattr $C$DW$130, DW_AT_TI_symbol_name("_TargetValue")
    1430                      .dwattr $C$DW$130, DW_AT_data_member_location[DW_OP_plus_uconst 0x0]
    1431                      .dwattr $C$DW$130, DW_AT_accessibility(DW_ACCESS_public)
    1432              
    1433              $C$DW$131       .dwtag  DW_TAG_member
    1434                      .dwattr $C$DW$131, DW_AT_type(*$C$DW$T$40)
    1435                      .dwattr $C$DW$131, DW_AT_name("RampDelayMax")
    1436                      .dwattr $C$DW$131, DW_AT_TI_symbol_name("_RampDelayMax")
    1437                      .dwattr $C$DW$131, DW_AT_data_member_location[DW_OP_plus_uconst 0x2]
    1438                      .dwattr $C$DW$131, DW_AT_accessibility(DW_ACCESS_public)
    1439              
    1440              $C$DW$132       .dwtag  DW_TAG_member
    1441                      .dwattr $C$DW$132, DW_AT_type(*$C$DW$T$19)
    1442                      .dwattr $C$DW$132, DW_AT_name("RampLowLimit")
    1443                      .dwattr $C$DW$132, DW_AT_TI_symbol_name("_RampLowLimit")
    1444                      .dwattr $C$DW$132, DW_AT_data_member_location[DW_OP_plus_uconst 0x4]
    1445                      .dwattr $C$DW$132, DW_AT_accessibility(DW_ACCESS_public)
    1446              
    1447              $C$DW$133       .dwtag  DW_TAG_member
    1448                      .dwattr $C$DW$133, DW_AT_type(*$C$DW$T$19)
    1449                      .dwattr $C$DW$133, DW_AT_name("RampHighLimit")
    1450                      .dwattr $C$DW$133, DW_AT_TI_symbol_name("_RampHighLimit")
    1451                      .dwattr $C$DW$133, DW_AT_data_member_location[DW_OP_plus_uconst 0x6]
    1452                      .dwattr $C$DW$133, DW_AT_accessibility(DW_ACCESS_public)
    1453              
    1454              $C$DW$134       .dwtag  DW_TAG_member
    1455                      .dwattr $C$DW$134, DW_AT_type(*$C$DW$T$40)
    1456                      .dwattr $C$DW$134, DW_AT_name("RampDelayCount")
    1457                      .dwattr $C$DW$134, DW_AT_TI_symbol_name("_RampDelayCount")
    1458                      .dwattr $C$DW$134, DW_AT_data_member_location[DW_OP_plus_uconst 0x8]
    1459                      .dwattr $C$DW$134, DW_AT_accessibility(DW_ACCESS_public)
TMS320C2000 Assembler PC v20.2.5 Fri Jan  6 17:23:30 2023

Copyright (c) 1996-2018 Texas Instruments Incorporated
drv8305.asm                                                          PAGE   29

    1460              
    1461              $C$DW$135       .dwtag  DW_TAG_member
    1462                      .dwattr $C$DW$135, DW_AT_type(*$C$DW$T$19)
    1463                      .dwattr $C$DW$135, DW_AT_name("SetpointValue")
    1464                      .dwattr $C$DW$135, DW_AT_TI_symbol_name("_SetpointValue")
    1465                      .dwattr $C$DW$135, DW_AT_data_member_location[DW_OP_plus_uconst 0xa]
    1466                      .dwattr $C$DW$135, DW_AT_accessibility(DW_ACCESS_public)
    1467              
    1468              $C$DW$136       .dwtag  DW_TAG_member
    1469                      .dwattr $C$DW$136, DW_AT_type(*$C$DW$T$40)
    1470                      .dwattr $C$DW$136, DW_AT_name("EqualFlag")
    1471                      .dwattr $C$DW$136, DW_AT_TI_symbol_name("_EqualFlag")
    1472                      .dwattr $C$DW$136, DW_AT_data_member_location[DW_OP_plus_uconst 0xc]
    1473                      .dwattr $C$DW$136, DW_AT_accessibility(DW_ACCESS_public)
    1474              
    1475              $C$DW$137       .dwtag  DW_TAG_member
    1476                      .dwattr $C$DW$137, DW_AT_type(*$C$DW$T$19)
    1477                      .dwattr $C$DW$137, DW_AT_name("Tmp")
    1478                      .dwattr $C$DW$137, DW_AT_TI_symbol_name("_Tmp")
    1479                      .dwattr $C$DW$137, DW_AT_data_member_location[DW_OP_plus_uconst 0xe]
    1480                      .dwattr $C$DW$137, DW_AT_accessibility(DW_ACCESS_public)
    1481              
    1482                      .dwendtag $C$DW$T$41
    1483              
    1484              $C$DW$T$82      .dwtag  DW_TAG_typedef
    1485                      .dwattr $C$DW$T$82, DW_AT_name("RMPCNTL")
    1486                      .dwattr $C$DW$T$82, DW_AT_type(*$C$DW$T$41)
    1487                      .dwattr $C$DW$T$82, DW_AT_language(DW_LANG_C)
    1488              
    1489              
    1490              $C$DW$T$42      .dwtag  DW_TAG_structure_type
    1491                      .dwattr $C$DW$T$42, DW_AT_byte_size(0x0c)
    1492              $C$DW$138       .dwtag  DW_TAG_member
    1493                      .dwattr $C$DW$138, DW_AT_type(*$C$DW$T$19)
    1494                      .dwattr $C$DW$138, DW_AT_name("Freq")
    1495                      .dwattr $C$DW$138, DW_AT_TI_symbol_name("_Freq")
    1496                      .dwattr $C$DW$138, DW_AT_data_member_location[DW_OP_plus_uconst 0x0]
    1497                      .dwattr $C$DW$138, DW_AT_accessibility(DW_ACCESS_public)
    1498              
    1499              $C$DW$139       .dwtag  DW_TAG_member
    1500                      .dwattr $C$DW$139, DW_AT_type(*$C$DW$T$19)
    1501                      .dwattr $C$DW$139, DW_AT_name("StepAngleMax")
    1502                      .dwattr $C$DW$139, DW_AT_TI_symbol_name("_StepAngleMax")
    1503                      .dwattr $C$DW$139, DW_AT_data_member_location[DW_OP_plus_uconst 0x2]
    1504                      .dwattr $C$DW$139, DW_AT_accessibility(DW_ACCESS_public)
    1505              
    1506              $C$DW$140       .dwtag  DW_TAG_member
    1507                      .dwattr $C$DW$140, DW_AT_type(*$C$DW$T$19)
    1508                      .dwattr $C$DW$140, DW_AT_name("Angle")
    1509                      .dwattr $C$DW$140, DW_AT_TI_symbol_name("_Angle")
    1510                      .dwattr $C$DW$140, DW_AT_data_member_location[DW_OP_plus_uconst 0x4]
    1511                      .dwattr $C$DW$140, DW_AT_accessibility(DW_ACCESS_public)
    1512              
    1513              $C$DW$141       .dwtag  DW_TAG_member
    1514                      .dwattr $C$DW$141, DW_AT_type(*$C$DW$T$19)
TMS320C2000 Assembler PC v20.2.5 Fri Jan  6 17:23:30 2023

Copyright (c) 1996-2018 Texas Instruments Incorporated
drv8305.asm                                                          PAGE   30

    1515                      .dwattr $C$DW$141, DW_AT_name("Gain")
    1516                      .dwattr $C$DW$141, DW_AT_TI_symbol_name("_Gain")
    1517                      .dwattr $C$DW$141, DW_AT_data_member_location[DW_OP_plus_uconst 0x6]
    1518                      .dwattr $C$DW$141, DW_AT_accessibility(DW_ACCESS_public)
    1519              
    1520              $C$DW$142       .dwtag  DW_TAG_member
    1521                      .dwattr $C$DW$142, DW_AT_type(*$C$DW$T$19)
    1522                      .dwattr $C$DW$142, DW_AT_name("Out")
    1523                      .dwattr $C$DW$142, DW_AT_TI_symbol_name("_Out")
    1524                      .dwattr $C$DW$142, DW_AT_data_member_location[DW_OP_plus_uconst 0x8]
    1525                      .dwattr $C$DW$142, DW_AT_accessibility(DW_ACCESS_public)
    1526              
    1527              $C$DW$143       .dwtag  DW_TAG_member
    1528                      .dwattr $C$DW$143, DW_AT_type(*$C$DW$T$19)
    1529                      .dwattr $C$DW$143, DW_AT_name("Offset")
    1530                      .dwattr $C$DW$143, DW_AT_TI_symbol_name("_Offset")
    1531                      .dwattr $C$DW$143, DW_AT_data_member_location[DW_OP_plus_uconst 0xa]
    1532                      .dwattr $C$DW$143, DW_AT_accessibility(DW_ACCESS_public)
    1533              
    1534                      .dwendtag $C$DW$T$42
    1535              
    1536              $C$DW$T$83      .dwtag  DW_TAG_typedef
    1537                      .dwattr $C$DW$T$83, DW_AT_name("RAMPGEN")
    1538                      .dwattr $C$DW$T$83, DW_AT_type(*$C$DW$T$42)
    1539                      .dwattr $C$DW$T$83, DW_AT_language(DW_LANG_C)
    1540              
    1541              
    1542              $C$DW$T$43      .dwtag  DW_TAG_structure_type
    1543                      .dwattr $C$DW$T$43, DW_AT_byte_size(0x16)
    1544              $C$DW$144       .dwtag  DW_TAG_member
    1545                      .dwattr $C$DW$144, DW_AT_type(*$C$DW$T$19)
    1546                      .dwattr $C$DW$144, DW_AT_name("DcBusVolt")
    1547                      .dwattr $C$DW$144, DW_AT_TI_symbol_name("_DcBusVolt")
    1548                      .dwattr $C$DW$144, DW_AT_data_member_location[DW_OP_plus_uconst 0x0]
    1549                      .dwattr $C$DW$144, DW_AT_accessibility(DW_ACCESS_public)
    1550              
    1551              $C$DW$145       .dwtag  DW_TAG_member
    1552                      .dwattr $C$DW$145, DW_AT_type(*$C$DW$T$19)
    1553                      .dwattr $C$DW$145, DW_AT_name("MfuncV1")
    1554                      .dwattr $C$DW$145, DW_AT_TI_symbol_name("_MfuncV1")
    1555                      .dwattr $C$DW$145, DW_AT_data_member_location[DW_OP_plus_uconst 0x2]
    1556                      .dwattr $C$DW$145, DW_AT_accessibility(DW_ACCESS_public)
    1557              
    1558              $C$DW$146       .dwtag  DW_TAG_member
    1559                      .dwattr $C$DW$146, DW_AT_type(*$C$DW$T$19)
    1560                      .dwattr $C$DW$146, DW_AT_name("MfuncV2")
    1561                      .dwattr $C$DW$146, DW_AT_TI_symbol_name("_MfuncV2")
    1562                      .dwattr $C$DW$146, DW_AT_data_member_location[DW_OP_plus_uconst 0x4]
    1563                      .dwattr $C$DW$146, DW_AT_accessibility(DW_ACCESS_public)
    1564              
    1565              $C$DW$147       .dwtag  DW_TAG_member
    1566                      .dwattr $C$DW$147, DW_AT_type(*$C$DW$T$19)
    1567                      .dwattr $C$DW$147, DW_AT_name("MfuncV3")
    1568                      .dwattr $C$DW$147, DW_AT_TI_symbol_name("_MfuncV3")
    1569                      .dwattr $C$DW$147, DW_AT_data_member_location[DW_OP_plus_uconst 0x6]
TMS320C2000 Assembler PC v20.2.5 Fri Jan  6 17:23:30 2023

Copyright (c) 1996-2018 Texas Instruments Incorporated
drv8305.asm                                                          PAGE   31

    1570                      .dwattr $C$DW$147, DW_AT_accessibility(DW_ACCESS_public)
    1571              
    1572              $C$DW$148       .dwtag  DW_TAG_member
    1573                      .dwattr $C$DW$148, DW_AT_type(*$C$DW$T$38)
    1574                      .dwattr $C$DW$148, DW_AT_name("OutOfPhase")
    1575                      .dwattr $C$DW$148, DW_AT_TI_symbol_name("_OutOfPhase")
    1576                      .dwattr $C$DW$148, DW_AT_data_member_location[DW_OP_plus_uconst 0x8]
    1577                      .dwattr $C$DW$148, DW_AT_accessibility(DW_ACCESS_public)
    1578              
    1579              $C$DW$149       .dwtag  DW_TAG_member
    1580                      .dwattr $C$DW$149, DW_AT_type(*$C$DW$T$19)
    1581                      .dwattr $C$DW$149, DW_AT_name("VphaseA")
    1582                      .dwattr $C$DW$149, DW_AT_TI_symbol_name("_VphaseA")
    1583                      .dwattr $C$DW$149, DW_AT_data_member_location[DW_OP_plus_uconst 0xa]
    1584                      .dwattr $C$DW$149, DW_AT_accessibility(DW_ACCESS_public)
    1585              
    1586              $C$DW$150       .dwtag  DW_TAG_member
    1587                      .dwattr $C$DW$150, DW_AT_type(*$C$DW$T$19)
    1588                      .dwattr $C$DW$150, DW_AT_name("VphaseB")
    1589                      .dwattr $C$DW$150, DW_AT_TI_symbol_name("_VphaseB")
    1590                      .dwattr $C$DW$150, DW_AT_data_member_location[DW_OP_plus_uconst 0xc]
    1591                      .dwattr $C$DW$150, DW_AT_accessibility(DW_ACCESS_public)
    1592              
    1593              $C$DW$151       .dwtag  DW_TAG_member
    1594                      .dwattr $C$DW$151, DW_AT_type(*$C$DW$T$19)
    1595                      .dwattr $C$DW$151, DW_AT_name("VphaseC")
    1596                      .dwattr $C$DW$151, DW_AT_TI_symbol_name("_VphaseC")
    1597                      .dwattr $C$DW$151, DW_AT_data_member_location[DW_OP_plus_uconst 0xe]
    1598                      .dwattr $C$DW$151, DW_AT_accessibility(DW_ACCESS_public)
    1599              
    1600              $C$DW$152       .dwtag  DW_TAG_member
    1601                      .dwattr $C$DW$152, DW_AT_type(*$C$DW$T$19)
    1602                      .dwattr $C$DW$152, DW_AT_name("Valpha")
    1603                      .dwattr $C$DW$152, DW_AT_TI_symbol_name("_Valpha")
    1604                      .dwattr $C$DW$152, DW_AT_data_member_location[DW_OP_plus_uconst 0x10]
    1605                      .dwattr $C$DW$152, DW_AT_accessibility(DW_ACCESS_public)
    1606              
    1607              $C$DW$153       .dwtag  DW_TAG_member
    1608                      .dwattr $C$DW$153, DW_AT_type(*$C$DW$T$19)
    1609                      .dwattr $C$DW$153, DW_AT_name("Vbeta")
    1610                      .dwattr $C$DW$153, DW_AT_TI_symbol_name("_Vbeta")
    1611                      .dwattr $C$DW$153, DW_AT_data_member_location[DW_OP_plus_uconst 0x12]
    1612                      .dwattr $C$DW$153, DW_AT_accessibility(DW_ACCESS_public)
    1613              
    1614              $C$DW$154       .dwtag  DW_TAG_member
    1615                      .dwattr $C$DW$154, DW_AT_type(*$C$DW$T$19)
    1616                      .dwattr $C$DW$154, DW_AT_name("temp")
    1617                      .dwattr $C$DW$154, DW_AT_TI_symbol_name("_temp")
    1618                      .dwattr $C$DW$154, DW_AT_data_member_location[DW_OP_plus_uconst 0x14]
    1619                      .dwattr $C$DW$154, DW_AT_accessibility(DW_ACCESS_public)
    1620              
    1621                      .dwendtag $C$DW$T$43
    1622              
    1623              $C$DW$T$84      .dwtag  DW_TAG_typedef
    1624                      .dwattr $C$DW$T$84, DW_AT_name("PHASEVOLTAGE")
TMS320C2000 Assembler PC v20.2.5 Fri Jan  6 17:23:30 2023

Copyright (c) 1996-2018 Texas Instruments Incorporated
drv8305.asm                                                          PAGE   32

    1625                      .dwattr $C$DW$T$84, DW_AT_type(*$C$DW$T$43)
    1626                      .dwattr $C$DW$T$84, DW_AT_language(DW_LANG_C)
    1627              
    1628              
    1629              $C$DW$T$45      .dwtag  DW_TAG_structure_type
    1630                      .dwattr $C$DW$T$45, DW_AT_byte_size(0x0e)
    1631              $C$DW$155       .dwtag  DW_TAG_member
    1632                      .dwattr $C$DW$155, DW_AT_type(*$C$DW$T$44)
    1633                      .dwattr $C$DW$155, DW_AT_name("Rs")
    1634                      .dwattr $C$DW$155, DW_AT_TI_symbol_name("_Rs")
    1635                      .dwattr $C$DW$155, DW_AT_data_member_location[DW_OP_plus_uconst 0x0]
    1636                      .dwattr $C$DW$155, DW_AT_accessibility(DW_ACCESS_public)
    1637              
    1638              $C$DW$156       .dwtag  DW_TAG_member
    1639                      .dwattr $C$DW$156, DW_AT_type(*$C$DW$T$44)
    1640                      .dwattr $C$DW$156, DW_AT_name("Ls")
    1641                      .dwattr $C$DW$156, DW_AT_TI_symbol_name("_Ls")
    1642                      .dwattr $C$DW$156, DW_AT_data_member_location[DW_OP_plus_uconst 0x2]
    1643                      .dwattr $C$DW$156, DW_AT_accessibility(DW_ACCESS_public)
    1644              
    1645              $C$DW$157       .dwtag  DW_TAG_member
    1646                      .dwattr $C$DW$157, DW_AT_type(*$C$DW$T$44)
    1647                      .dwattr $C$DW$157, DW_AT_name("Ib")
    1648                      .dwattr $C$DW$157, DW_AT_TI_symbol_name("_Ib")
    1649                      .dwattr $C$DW$157, DW_AT_data_member_location[DW_OP_plus_uconst 0x4]
    1650                      .dwattr $C$DW$157, DW_AT_accessibility(DW_ACCESS_public)
    1651              
    1652              $C$DW$158       .dwtag  DW_TAG_member
    1653                      .dwattr $C$DW$158, DW_AT_type(*$C$DW$T$44)
    1654                      .dwattr $C$DW$158, DW_AT_name("Vb")
    1655                      .dwattr $C$DW$158, DW_AT_TI_symbol_name("_Vb")
    1656                      .dwattr $C$DW$158, DW_AT_data_member_location[DW_OP_plus_uconst 0x6]
    1657                      .dwattr $C$DW$158, DW_AT_accessibility(DW_ACCESS_public)
    1658              
    1659              $C$DW$159       .dwtag  DW_TAG_member
    1660                      .dwattr $C$DW$159, DW_AT_type(*$C$DW$T$44)
    1661                      .dwattr $C$DW$159, DW_AT_name("Ts")
    1662                      .dwattr $C$DW$159, DW_AT_TI_symbol_name("_Ts")
    1663                      .dwattr $C$DW$159, DW_AT_data_member_location[DW_OP_plus_uconst 0x8]
    1664                      .dwattr $C$DW$159, DW_AT_accessibility(DW_ACCESS_public)
    1665              
    1666              $C$DW$160       .dwtag  DW_TAG_member
    1667                      .dwattr $C$DW$160, DW_AT_type(*$C$DW$T$44)
    1668                      .dwattr $C$DW$160, DW_AT_name("Fsmopos")
    1669                      .dwattr $C$DW$160, DW_AT_TI_symbol_name("_Fsmopos")
    1670                      .dwattr $C$DW$160, DW_AT_data_member_location[DW_OP_plus_uconst 0xa]
    1671                      .dwattr $C$DW$160, DW_AT_accessibility(DW_ACCESS_public)
    1672              
    1673              $C$DW$161       .dwtag  DW_TAG_member
    1674                      .dwattr $C$DW$161, DW_AT_type(*$C$DW$T$44)
    1675                      .dwattr $C$DW$161, DW_AT_name("Gsmopos")
    1676                      .dwattr $C$DW$161, DW_AT_TI_symbol_name("_Gsmopos")
    1677                      .dwattr $C$DW$161, DW_AT_data_member_location[DW_OP_plus_uconst 0xc]
    1678                      .dwattr $C$DW$161, DW_AT_accessibility(DW_ACCESS_public)
    1679              
TMS320C2000 Assembler PC v20.2.5 Fri Jan  6 17:23:30 2023

Copyright (c) 1996-2018 Texas Instruments Incorporated
drv8305.asm                                                          PAGE   33

    1680                      .dwendtag $C$DW$T$45
    1681              
    1682              $C$DW$T$85      .dwtag  DW_TAG_typedef
    1683                      .dwattr $C$DW$T$85, DW_AT_name("SMOPOS_CONST")
    1684                      .dwattr $C$DW$T$85, DW_AT_type(*$C$DW$T$45)
    1685                      .dwattr $C$DW$T$85, DW_AT_language(DW_LANG_C)
    1686              
    1687              
    1688              $C$DW$T$46      .dwtag  DW_TAG_structure_type
    1689                      .dwattr $C$DW$T$46, DW_AT_byte_size(0x24)
    1690              $C$DW$162       .dwtag  DW_TAG_member
    1691                      .dwattr $C$DW$162, DW_AT_type(*$C$DW$T$19)
    1692                      .dwattr $C$DW$162, DW_AT_name("Valpha")
    1693                      .dwattr $C$DW$162, DW_AT_TI_symbol_name("_Valpha")
    1694                      .dwattr $C$DW$162, DW_AT_data_member_location[DW_OP_plus_uconst 0x0]
    1695                      .dwattr $C$DW$162, DW_AT_accessibility(DW_ACCESS_public)
    1696              
    1697              $C$DW$163       .dwtag  DW_TAG_member
    1698                      .dwattr $C$DW$163, DW_AT_type(*$C$DW$T$19)
    1699                      .dwattr $C$DW$163, DW_AT_name("Ealpha")
    1700                      .dwattr $C$DW$163, DW_AT_TI_symbol_name("_Ealpha")
    1701                      .dwattr $C$DW$163, DW_AT_data_member_location[DW_OP_plus_uconst 0x2]
    1702                      .dwattr $C$DW$163, DW_AT_accessibility(DW_ACCESS_public)
    1703              
    1704              $C$DW$164       .dwtag  DW_TAG_member
    1705                      .dwattr $C$DW$164, DW_AT_type(*$C$DW$T$19)
    1706                      .dwattr $C$DW$164, DW_AT_name("Zalpha")
    1707                      .dwattr $C$DW$164, DW_AT_TI_symbol_name("_Zalpha")
    1708                      .dwattr $C$DW$164, DW_AT_data_member_location[DW_OP_plus_uconst 0x4]
    1709                      .dwattr $C$DW$164, DW_AT_accessibility(DW_ACCESS_public)
    1710              
    1711              $C$DW$165       .dwtag  DW_TAG_member
    1712                      .dwattr $C$DW$165, DW_AT_type(*$C$DW$T$19)
    1713                      .dwattr $C$DW$165, DW_AT_name("Gsmopos")
    1714                      .dwattr $C$DW$165, DW_AT_TI_symbol_name("_Gsmopos")
    1715                      .dwattr $C$DW$165, DW_AT_data_member_location[DW_OP_plus_uconst 0x6]
    1716                      .dwattr $C$DW$165, DW_AT_accessibility(DW_ACCESS_public)
    1717              
    1718              $C$DW$166       .dwtag  DW_TAG_member
    1719                      .dwattr $C$DW$166, DW_AT_type(*$C$DW$T$19)
    1720                      .dwattr $C$DW$166, DW_AT_name("EstIalpha")
    1721                      .dwattr $C$DW$166, DW_AT_TI_symbol_name("_EstIalpha")
    1722                      .dwattr $C$DW$166, DW_AT_data_member_location[DW_OP_plus_uconst 0x8]
    1723                      .dwattr $C$DW$166, DW_AT_accessibility(DW_ACCESS_public)
    1724              
    1725              $C$DW$167       .dwtag  DW_TAG_member
    1726                      .dwattr $C$DW$167, DW_AT_type(*$C$DW$T$19)
    1727                      .dwattr $C$DW$167, DW_AT_name("Fsmopos")
    1728                      .dwattr $C$DW$167, DW_AT_TI_symbol_name("_Fsmopos")
    1729                      .dwattr $C$DW$167, DW_AT_data_member_location[DW_OP_plus_uconst 0xa]
    1730                      .dwattr $C$DW$167, DW_AT_accessibility(DW_ACCESS_public)
    1731              
    1732              $C$DW$168       .dwtag  DW_TAG_member
    1733                      .dwattr $C$DW$168, DW_AT_type(*$C$DW$T$19)
    1734                      .dwattr $C$DW$168, DW_AT_name("Vbeta")
TMS320C2000 Assembler PC v20.2.5 Fri Jan  6 17:23:30 2023

Copyright (c) 1996-2018 Texas Instruments Incorporated
drv8305.asm                                                          PAGE   34

    1735                      .dwattr $C$DW$168, DW_AT_TI_symbol_name("_Vbeta")
    1736                      .dwattr $C$DW$168, DW_AT_data_member_location[DW_OP_plus_uconst 0xc]
    1737                      .dwattr $C$DW$168, DW_AT_accessibility(DW_ACCESS_public)
    1738              
    1739              $C$DW$169       .dwtag  DW_TAG_member
    1740                      .dwattr $C$DW$169, DW_AT_type(*$C$DW$T$19)
    1741                      .dwattr $C$DW$169, DW_AT_name("Ebeta")
    1742                      .dwattr $C$DW$169, DW_AT_TI_symbol_name("_Ebeta")
    1743                      .dwattr $C$DW$169, DW_AT_data_member_location[DW_OP_plus_uconst 0xe]
    1744                      .dwattr $C$DW$169, DW_AT_accessibility(DW_ACCESS_public)
    1745              
    1746              $C$DW$170       .dwtag  DW_TAG_member
    1747                      .dwattr $C$DW$170, DW_AT_type(*$C$DW$T$19)
    1748                      .dwattr $C$DW$170, DW_AT_name("Zbeta")
    1749                      .dwattr $C$DW$170, DW_AT_TI_symbol_name("_Zbeta")
    1750                      .dwattr $C$DW$170, DW_AT_data_member_location[DW_OP_plus_uconst 0x10]
    1751                      .dwattr $C$DW$170, DW_AT_accessibility(DW_ACCESS_public)
    1752              
    1753              $C$DW$171       .dwtag  DW_TAG_member
    1754                      .dwattr $C$DW$171, DW_AT_type(*$C$DW$T$19)
    1755                      .dwattr $C$DW$171, DW_AT_name("EstIbeta")
    1756                      .dwattr $C$DW$171, DW_AT_TI_symbol_name("_EstIbeta")
    1757                      .dwattr $C$DW$171, DW_AT_data_member_location[DW_OP_plus_uconst 0x12]
    1758                      .dwattr $C$DW$171, DW_AT_accessibility(DW_ACCESS_public)
    1759              
    1760              $C$DW$172       .dwtag  DW_TAG_member
    1761                      .dwattr $C$DW$172, DW_AT_type(*$C$DW$T$19)
    1762                      .dwattr $C$DW$172, DW_AT_name("Ialpha")
    1763                      .dwattr $C$DW$172, DW_AT_TI_symbol_name("_Ialpha")
    1764                      .dwattr $C$DW$172, DW_AT_data_member_location[DW_OP_plus_uconst 0x14]
    1765                      .dwattr $C$DW$172, DW_AT_accessibility(DW_ACCESS_public)
    1766              
    1767              $C$DW$173       .dwtag  DW_TAG_member
    1768                      .dwattr $C$DW$173, DW_AT_type(*$C$DW$T$19)
    1769                      .dwattr $C$DW$173, DW_AT_name("IalphaError")
    1770                      .dwattr $C$DW$173, DW_AT_TI_symbol_name("_IalphaError")
    1771                      .dwattr $C$DW$173, DW_AT_data_member_location[DW_OP_plus_uconst 0x16]
    1772                      .dwattr $C$DW$173, DW_AT_accessibility(DW_ACCESS_public)
    1773              
    1774              $C$DW$174       .dwtag  DW_TAG_member
    1775                      .dwattr $C$DW$174, DW_AT_type(*$C$DW$T$19)
    1776                      .dwattr $C$DW$174, DW_AT_name("Kslide")
    1777                      .dwattr $C$DW$174, DW_AT_TI_symbol_name("_Kslide")
    1778                      .dwattr $C$DW$174, DW_AT_data_member_location[DW_OP_plus_uconst 0x18]
    1779                      .dwattr $C$DW$174, DW_AT_accessibility(DW_ACCESS_public)
    1780              
    1781              $C$DW$175       .dwtag  DW_TAG_member
    1782                      .dwattr $C$DW$175, DW_AT_type(*$C$DW$T$19)
    1783                      .dwattr $C$DW$175, DW_AT_name("Ibeta")
    1784                      .dwattr $C$DW$175, DW_AT_TI_symbol_name("_Ibeta")
    1785                      .dwattr $C$DW$175, DW_AT_data_member_location[DW_OP_plus_uconst 0x1a]
    1786                      .dwattr $C$DW$175, DW_AT_accessibility(DW_ACCESS_public)
    1787              
    1788              $C$DW$176       .dwtag  DW_TAG_member
    1789                      .dwattr $C$DW$176, DW_AT_type(*$C$DW$T$19)
TMS320C2000 Assembler PC v20.2.5 Fri Jan  6 17:23:30 2023

Copyright (c) 1996-2018 Texas Instruments Incorporated
drv8305.asm                                                          PAGE   35

    1790                      .dwattr $C$DW$176, DW_AT_name("IbetaError")
    1791                      .dwattr $C$DW$176, DW_AT_TI_symbol_name("_IbetaError")
    1792                      .dwattr $C$DW$176, DW_AT_data_member_location[DW_OP_plus_uconst 0x1c]
    1793                      .dwattr $C$DW$176, DW_AT_accessibility(DW_ACCESS_public)
    1794              
    1795              $C$DW$177       .dwtag  DW_TAG_member
    1796                      .dwattr $C$DW$177, DW_AT_type(*$C$DW$T$19)
    1797                      .dwattr $C$DW$177, DW_AT_name("Kslf")
    1798                      .dwattr $C$DW$177, DW_AT_TI_symbol_name("_Kslf")
    1799                      .dwattr $C$DW$177, DW_AT_data_member_location[DW_OP_plus_uconst 0x1e]
    1800                      .dwattr $C$DW$177, DW_AT_accessibility(DW_ACCESS_public)
    1801              
    1802              $C$DW$178       .dwtag  DW_TAG_member
    1803                      .dwattr $C$DW$178, DW_AT_type(*$C$DW$T$19)
    1804                      .dwattr $C$DW$178, DW_AT_name("Theta")
    1805                      .dwattr $C$DW$178, DW_AT_TI_symbol_name("_Theta")
    1806                      .dwattr $C$DW$178, DW_AT_data_member_location[DW_OP_plus_uconst 0x20]
    1807                      .dwattr $C$DW$178, DW_AT_accessibility(DW_ACCESS_public)
    1808              
    1809              $C$DW$179       .dwtag  DW_TAG_member
    1810                      .dwattr $C$DW$179, DW_AT_type(*$C$DW$T$19)
    1811                      .dwattr $C$DW$179, DW_AT_name("E0")
    1812                      .dwattr $C$DW$179, DW_AT_TI_symbol_name("_E0")
    1813                      .dwattr $C$DW$179, DW_AT_data_member_location[DW_OP_plus_uconst 0x22]
    1814                      .dwattr $C$DW$179, DW_AT_accessibility(DW_ACCESS_public)
    1815              
    1816                      .dwendtag $C$DW$T$46
    1817              
    1818              $C$DW$T$86      .dwtag  DW_TAG_typedef
    1819                      .dwattr $C$DW$T$86, DW_AT_name("SMOPOS")
    1820                      .dwattr $C$DW$T$86, DW_AT_type(*$C$DW$T$46)
    1821                      .dwattr $C$DW$T$86, DW_AT_language(DW_LANG_C)
    1822              
    1823              
    1824              $C$DW$T$49      .dwtag  DW_TAG_structure_type
    1825                      .dwattr $C$DW$T$49, DW_AT_byte_size(0x12)
    1826              $C$DW$180       .dwtag  DW_TAG_member
    1827                      .dwattr $C$DW$180, DW_AT_type(*$C$DW$T$19)
    1828                      .dwattr $C$DW$180, DW_AT_name("EstimatedTheta")
    1829                      .dwattr $C$DW$180, DW_AT_TI_symbol_name("_EstimatedTheta")
    1830                      .dwattr $C$DW$180, DW_AT_data_member_location[DW_OP_plus_uconst 0x0]
    1831                      .dwattr $C$DW$180, DW_AT_accessibility(DW_ACCESS_public)
    1832              
    1833              $C$DW$181       .dwtag  DW_TAG_member
    1834                      .dwattr $C$DW$181, DW_AT_type(*$C$DW$T$19)
    1835                      .dwattr $C$DW$181, DW_AT_name("OldEstimatedTheta")
    1836                      .dwattr $C$DW$181, DW_AT_TI_symbol_name("_OldEstimatedTheta")
    1837                      .dwattr $C$DW$181, DW_AT_data_member_location[DW_OP_plus_uconst 0x2]
    1838                      .dwattr $C$DW$181, DW_AT_accessibility(DW_ACCESS_public)
    1839              
    1840              $C$DW$182       .dwtag  DW_TAG_member
    1841                      .dwattr $C$DW$182, DW_AT_type(*$C$DW$T$19)
    1842                      .dwattr $C$DW$182, DW_AT_name("EstimatedSpeed")
    1843                      .dwattr $C$DW$182, DW_AT_TI_symbol_name("_EstimatedSpeed")
    1844                      .dwattr $C$DW$182, DW_AT_data_member_location[DW_OP_plus_uconst 0x4]
TMS320C2000 Assembler PC v20.2.5 Fri Jan  6 17:23:30 2023

Copyright (c) 1996-2018 Texas Instruments Incorporated
drv8305.asm                                                          PAGE   36

    1845                      .dwattr $C$DW$182, DW_AT_accessibility(DW_ACCESS_public)
    1846              
    1847              $C$DW$183       .dwtag  DW_TAG_member
    1848                      .dwattr $C$DW$183, DW_AT_type(*$C$DW$T$40)
    1849                      .dwattr $C$DW$183, DW_AT_name("BaseRpm")
    1850                      .dwattr $C$DW$183, DW_AT_TI_symbol_name("_BaseRpm")
    1851                      .dwattr $C$DW$183, DW_AT_data_member_location[DW_OP_plus_uconst 0x6]
    1852                      .dwattr $C$DW$183, DW_AT_accessibility(DW_ACCESS_public)
    1853              
    1854              $C$DW$184       .dwtag  DW_TAG_member
    1855                      .dwattr $C$DW$184, DW_AT_type(*$C$DW$T$47)
    1856                      .dwattr $C$DW$184, DW_AT_name("K1")
    1857                      .dwattr $C$DW$184, DW_AT_TI_symbol_name("_K1")
    1858                      .dwattr $C$DW$184, DW_AT_data_member_location[DW_OP_plus_uconst 0x8]
    1859                      .dwattr $C$DW$184, DW_AT_accessibility(DW_ACCESS_public)
    1860              
    1861              $C$DW$185       .dwtag  DW_TAG_member
    1862                      .dwattr $C$DW$185, DW_AT_type(*$C$DW$T$19)
    1863                      .dwattr $C$DW$185, DW_AT_name("K2")
    1864                      .dwattr $C$DW$185, DW_AT_TI_symbol_name("_K2")
    1865                      .dwattr $C$DW$185, DW_AT_data_member_location[DW_OP_plus_uconst 0xa]
    1866                      .dwattr $C$DW$185, DW_AT_accessibility(DW_ACCESS_public)
    1867              
    1868              $C$DW$186       .dwtag  DW_TAG_member
    1869                      .dwattr $C$DW$186, DW_AT_type(*$C$DW$T$19)
    1870                      .dwattr $C$DW$186, DW_AT_name("K3")
    1871                      .dwattr $C$DW$186, DW_AT_TI_symbol_name("_K3")
    1872                      .dwattr $C$DW$186, DW_AT_data_member_location[DW_OP_plus_uconst 0xc]
    1873                      .dwattr $C$DW$186, DW_AT_accessibility(DW_ACCESS_public)
    1874              
    1875              $C$DW$187       .dwtag  DW_TAG_member
    1876                      .dwattr $C$DW$187, DW_AT_type(*$C$DW$T$48)
    1877                      .dwattr $C$DW$187, DW_AT_name("EstimatedSpeedRpm")
    1878                      .dwattr $C$DW$187, DW_AT_TI_symbol_name("_EstimatedSpeedRpm")
    1879                      .dwattr $C$DW$187, DW_AT_data_member_location[DW_OP_plus_uconst 0xe]
    1880                      .dwattr $C$DW$187, DW_AT_accessibility(DW_ACCESS_public)
    1881              
    1882              $C$DW$188       .dwtag  DW_TAG_member
    1883                      .dwattr $C$DW$188, DW_AT_type(*$C$DW$T$19)
    1884                      .dwattr $C$DW$188, DW_AT_name("Temp")
    1885                      .dwattr $C$DW$188, DW_AT_TI_symbol_name("_Temp")
    1886                      .dwattr $C$DW$188, DW_AT_data_member_location[DW_OP_plus_uconst 0x10]
    1887                      .dwattr $C$DW$188, DW_AT_accessibility(DW_ACCESS_public)
    1888              
    1889                      .dwendtag $C$DW$T$49
    1890              
    1891              $C$DW$T$87      .dwtag  DW_TAG_typedef
    1892                      .dwattr $C$DW$T$87, DW_AT_name("SPEED_ESTIMATION")
    1893                      .dwattr $C$DW$T$87, DW_AT_type(*$C$DW$T$49)
    1894                      .dwattr $C$DW$T$87, DW_AT_language(DW_LANG_C)
    1895              
    1896              
    1897              $C$DW$T$50      .dwtag  DW_TAG_structure_type
    1898                      .dwattr $C$DW$T$50, DW_AT_byte_size(0x14)
    1899              $C$DW$189       .dwtag  DW_TAG_member
TMS320C2000 Assembler PC v20.2.5 Fri Jan  6 17:23:30 2023

Copyright (c) 1996-2018 Texas Instruments Incorporated
drv8305.asm                                                          PAGE   37

    1900                      .dwattr $C$DW$189, DW_AT_type(*$C$DW$T$19)
    1901                      .dwattr $C$DW$189, DW_AT_name("ElecTheta")
    1902                      .dwattr $C$DW$189, DW_AT_TI_symbol_name("_ElecTheta")
    1903                      .dwattr $C$DW$189, DW_AT_data_member_location[DW_OP_plus_uconst 0x0]
    1904                      .dwattr $C$DW$189, DW_AT_accessibility(DW_ACCESS_public)
    1905              
    1906              $C$DW$190       .dwtag  DW_TAG_member
    1907                      .dwattr $C$DW$190, DW_AT_type(*$C$DW$T$40)
    1908                      .dwattr $C$DW$190, DW_AT_name("DirectionQep")
    1909                      .dwattr $C$DW$190, DW_AT_TI_symbol_name("_DirectionQep")
    1910                      .dwattr $C$DW$190, DW_AT_data_member_location[DW_OP_plus_uconst 0x2]
    1911                      .dwattr $C$DW$190, DW_AT_accessibility(DW_ACCESS_public)
    1912              
    1913              $C$DW$191       .dwtag  DW_TAG_member
    1914                      .dwattr $C$DW$191, DW_AT_type(*$C$DW$T$19)
    1915                      .dwattr $C$DW$191, DW_AT_name("OldElecTheta")
    1916                      .dwattr $C$DW$191, DW_AT_TI_symbol_name("_OldElecTheta")
    1917                      .dwattr $C$DW$191, DW_AT_data_member_location[DW_OP_plus_uconst 0x4]
    1918                      .dwattr $C$DW$191, DW_AT_accessibility(DW_ACCESS_public)
    1919              
    1920              $C$DW$192       .dwtag  DW_TAG_member
    1921                      .dwattr $C$DW$192, DW_AT_type(*$C$DW$T$19)
    1922                      .dwattr $C$DW$192, DW_AT_name("Speed")
    1923                      .dwattr $C$DW$192, DW_AT_TI_symbol_name("_Speed")
    1924                      .dwattr $C$DW$192, DW_AT_data_member_location[DW_OP_plus_uconst 0x6]
    1925                      .dwattr $C$DW$192, DW_AT_accessibility(DW_ACCESS_public)
    1926              
    1927              $C$DW$193       .dwtag  DW_TAG_member
    1928                      .dwattr $C$DW$193, DW_AT_type(*$C$DW$T$40)
    1929                      .dwattr $C$DW$193, DW_AT_name("BaseRpm")
    1930                      .dwattr $C$DW$193, DW_AT_TI_symbol_name("_BaseRpm")
    1931                      .dwattr $C$DW$193, DW_AT_data_member_location[DW_OP_plus_uconst 0x8]
    1932                      .dwattr $C$DW$193, DW_AT_accessibility(DW_ACCESS_public)
    1933              
    1934              $C$DW$194       .dwtag  DW_TAG_member
    1935                      .dwattr $C$DW$194, DW_AT_type(*$C$DW$T$47)
    1936                      .dwattr $C$DW$194, DW_AT_name("K1")
    1937                      .dwattr $C$DW$194, DW_AT_TI_symbol_name("_K1")
    1938                      .dwattr $C$DW$194, DW_AT_data_member_location[DW_OP_plus_uconst 0xa]
    1939                      .dwattr $C$DW$194, DW_AT_accessibility(DW_ACCESS_public)
    1940              
    1941              $C$DW$195       .dwtag  DW_TAG_member
    1942                      .dwattr $C$DW$195, DW_AT_type(*$C$DW$T$19)
    1943                      .dwattr $C$DW$195, DW_AT_name("K2")
    1944                      .dwattr $C$DW$195, DW_AT_TI_symbol_name("_K2")
    1945                      .dwattr $C$DW$195, DW_AT_data_member_location[DW_OP_plus_uconst 0xc]
    1946                      .dwattr $C$DW$195, DW_AT_accessibility(DW_ACCESS_public)
    1947              
    1948              $C$DW$196       .dwtag  DW_TAG_member
    1949                      .dwattr $C$DW$196, DW_AT_type(*$C$DW$T$19)
    1950                      .dwattr $C$DW$196, DW_AT_name("K3")
    1951                      .dwattr $C$DW$196, DW_AT_TI_symbol_name("_K3")
    1952                      .dwattr $C$DW$196, DW_AT_data_member_location[DW_OP_plus_uconst 0xe]
    1953                      .dwattr $C$DW$196, DW_AT_accessibility(DW_ACCESS_public)
    1954              
TMS320C2000 Assembler PC v20.2.5 Fri Jan  6 17:23:30 2023

Copyright (c) 1996-2018 Texas Instruments Incorporated
drv8305.asm                                                          PAGE   38

    1955              $C$DW$197       .dwtag  DW_TAG_member
    1956                      .dwattr $C$DW$197, DW_AT_type(*$C$DW$T$48)
    1957                      .dwattr $C$DW$197, DW_AT_name("SpeedRpm")
    1958                      .dwattr $C$DW$197, DW_AT_TI_symbol_name("_SpeedRpm")
    1959                      .dwattr $C$DW$197, DW_AT_data_member_location[DW_OP_plus_uconst 0x10]
    1960                      .dwattr $C$DW$197, DW_AT_accessibility(DW_ACCESS_public)
    1961              
    1962              $C$DW$198       .dwtag  DW_TAG_member
    1963                      .dwattr $C$DW$198, DW_AT_type(*$C$DW$T$19)
    1964                      .dwattr $C$DW$198, DW_AT_name("Tmp")
    1965                      .dwattr $C$DW$198, DW_AT_TI_symbol_name("_Tmp")
    1966                      .dwattr $C$DW$198, DW_AT_data_member_location[DW_OP_plus_uconst 0x12]
    1967                      .dwattr $C$DW$198, DW_AT_accessibility(DW_ACCESS_public)
    1968              
    1969                      .dwendtag $C$DW$T$50
    1970              
    1971              $C$DW$T$88      .dwtag  DW_TAG_typedef
    1972                      .dwattr $C$DW$T$88, DW_AT_name("SPEED_MEAS_QEP")
    1973                      .dwattr $C$DW$T$88, DW_AT_type(*$C$DW$T$50)
    1974                      .dwattr $C$DW$T$88, DW_AT_language(DW_LANG_C)
    1975              
    1976              
    1977              $C$DW$T$51      .dwtag  DW_TAG_structure_type
    1978                      .dwattr $C$DW$T$51, DW_AT_byte_size(0x12)
    1979              $C$DW$199       .dwtag  DW_TAG_member
    1980                      .dwattr $C$DW$199, DW_AT_type(*$C$DW$T$44)
    1981                      .dwattr $C$DW$199, DW_AT_name("ElecTheta")
    1982                      .dwattr $C$DW$199, DW_AT_TI_symbol_name("_ElecTheta")
    1983                      .dwattr $C$DW$199, DW_AT_data_member_location[DW_OP_plus_uconst 0x0]
    1984                      .dwattr $C$DW$199, DW_AT_accessibility(DW_ACCESS_public)
    1985              
    1986              $C$DW$200       .dwtag  DW_TAG_member
    1987                      .dwattr $C$DW$200, DW_AT_type(*$C$DW$T$44)
    1988                      .dwattr $C$DW$200, DW_AT_name("MechTheta")
    1989                      .dwattr $C$DW$200, DW_AT_TI_symbol_name("_MechTheta")
    1990                      .dwattr $C$DW$200, DW_AT_data_member_location[DW_OP_plus_uconst 0x2]
    1991                      .dwattr $C$DW$200, DW_AT_accessibility(DW_ACCESS_public)
    1992              
    1993              $C$DW$201       .dwtag  DW_TAG_member
    1994                      .dwattr $C$DW$201, DW_AT_type(*$C$DW$T$38)
    1995                      .dwattr $C$DW$201, DW_AT_name("DirectionQep")
    1996                      .dwattr $C$DW$201, DW_AT_TI_symbol_name("_DirectionQep")
    1997                      .dwattr $C$DW$201, DW_AT_data_member_location[DW_OP_plus_uconst 0x4]
    1998                      .dwattr $C$DW$201, DW_AT_accessibility(DW_ACCESS_public)
    1999              
    2000              $C$DW$202       .dwtag  DW_TAG_member
    2001                      .dwattr $C$DW$202, DW_AT_type(*$C$DW$T$38)
    2002                      .dwattr $C$DW$202, DW_AT_name("QepPeriod")
    2003                      .dwattr $C$DW$202, DW_AT_TI_symbol_name("_QepPeriod")
    2004                      .dwattr $C$DW$202, DW_AT_data_member_location[DW_OP_plus_uconst 0x5]
    2005                      .dwattr $C$DW$202, DW_AT_accessibility(DW_ACCESS_public)
    2006              
    2007              $C$DW$203       .dwtag  DW_TAG_member
    2008                      .dwattr $C$DW$203, DW_AT_type(*$C$DW$T$40)
    2009                      .dwattr $C$DW$203, DW_AT_name("QepCountIndex")
TMS320C2000 Assembler PC v20.2.5 Fri Jan  6 17:23:30 2023

Copyright (c) 1996-2018 Texas Instruments Incorporated
drv8305.asm                                                          PAGE   39

    2010                      .dwattr $C$DW$203, DW_AT_TI_symbol_name("_QepCountIndex")
    2011                      .dwattr $C$DW$203, DW_AT_data_member_location[DW_OP_plus_uconst 0x6]
    2012                      .dwattr $C$DW$203, DW_AT_accessibility(DW_ACCESS_public)
    2013              
    2014              $C$DW$204       .dwtag  DW_TAG_member
    2015                      .dwattr $C$DW$204, DW_AT_type(*$C$DW$T$48)
    2016                      .dwattr $C$DW$204, DW_AT_name("RawTheta")
    2017                      .dwattr $C$DW$204, DW_AT_TI_symbol_name("_RawTheta")
    2018                      .dwattr $C$DW$204, DW_AT_data_member_location[DW_OP_plus_uconst 0x8]
    2019                      .dwattr $C$DW$204, DW_AT_accessibility(DW_ACCESS_public)
    2020              
    2021              $C$DW$205       .dwtag  DW_TAG_member
    2022                      .dwattr $C$DW$205, DW_AT_type(*$C$DW$T$44)
    2023                      .dwattr $C$DW$205, DW_AT_name("MechScaler")
    2024                      .dwattr $C$DW$205, DW_AT_TI_symbol_name("_MechScaler")
    2025                      .dwattr $C$DW$205, DW_AT_data_member_location[DW_OP_plus_uconst 0xa]
    2026                      .dwattr $C$DW$205, DW_AT_accessibility(DW_ACCESS_public)
    2027              
    2028              $C$DW$206       .dwtag  DW_TAG_member
    2029                      .dwattr $C$DW$206, DW_AT_type(*$C$DW$T$38)
    2030                      .dwattr $C$DW$206, DW_AT_name("LineEncoder")
    2031                      .dwattr $C$DW$206, DW_AT_TI_symbol_name("_LineEncoder")
    2032                      .dwattr $C$DW$206, DW_AT_data_member_location[DW_OP_plus_uconst 0xc]
    2033                      .dwattr $C$DW$206, DW_AT_accessibility(DW_ACCESS_public)
    2034              
    2035              $C$DW$207       .dwtag  DW_TAG_member
    2036                      .dwattr $C$DW$207, DW_AT_type(*$C$DW$T$38)
    2037                      .dwattr $C$DW$207, DW_AT_name("PolePairs")
    2038                      .dwattr $C$DW$207, DW_AT_TI_symbol_name("_PolePairs")
    2039                      .dwattr $C$DW$207, DW_AT_data_member_location[DW_OP_plus_uconst 0xd]
    2040                      .dwattr $C$DW$207, DW_AT_accessibility(DW_ACCESS_public)
    2041              
    2042              $C$DW$208       .dwtag  DW_TAG_member
    2043                      .dwattr $C$DW$208, DW_AT_type(*$C$DW$T$48)
    2044                      .dwattr $C$DW$208, DW_AT_name("CalibratedAngle")
    2045                      .dwattr $C$DW$208, DW_AT_TI_symbol_name("_CalibratedAngle")
    2046                      .dwattr $C$DW$208, DW_AT_data_member_location[DW_OP_plus_uconst 0xe]
    2047                      .dwattr $C$DW$208, DW_AT_accessibility(DW_ACCESS_public)
    2048              
    2049              $C$DW$209       .dwtag  DW_TAG_member
    2050                      .dwattr $C$DW$209, DW_AT_type(*$C$DW$T$38)
    2051                      .dwattr $C$DW$209, DW_AT_name("IndexSyncFlag")
    2052                      .dwattr $C$DW$209, DW_AT_TI_symbol_name("_IndexSyncFlag")
    2053                      .dwattr $C$DW$209, DW_AT_data_member_location[DW_OP_plus_uconst 0x10]
    2054                      .dwattr $C$DW$209, DW_AT_accessibility(DW_ACCESS_public)
    2055              
    2056                      .dwendtag $C$DW$T$51
    2057              
    2058              $C$DW$T$89      .dwtag  DW_TAG_typedef
    2059                      .dwattr $C$DW$T$89, DW_AT_name("QEP")
    2060                      .dwattr $C$DW$T$89, DW_AT_type(*$C$DW$T$51)
    2061                      .dwattr $C$DW$T$89, DW_AT_language(DW_LANG_C)
    2062              
    2063              
    2064              $C$DW$T$56      .dwtag  DW_TAG_structure_type
TMS320C2000 Assembler PC v20.2.5 Fri Jan  6 17:23:30 2023

Copyright (c) 1996-2018 Texas Instruments Incorporated
drv8305.asm                                                          PAGE   40

    2065                      .dwattr $C$DW$T$56, DW_AT_byte_size(0x07)
    2066              $C$DW$210       .dwtag  DW_TAG_member
    2067                      .dwattr $C$DW$210, DW_AT_type(*$C$DW$T$52)
    2068                      .dwattr $C$DW$210, DW_AT_name("stat_reg1")
    2069                      .dwattr $C$DW$210, DW_AT_TI_symbol_name("_stat_reg1")
    2070                      .dwattr $C$DW$210, DW_AT_data_member_location[DW_OP_plus_uconst 0x0]
    2071                      .dwattr $C$DW$210, DW_AT_accessibility(DW_ACCESS_public)
    2072              
    2073              $C$DW$211       .dwtag  DW_TAG_member
    2074                      .dwattr $C$DW$211, DW_AT_type(*$C$DW$T$53)
    2075                      .dwattr $C$DW$211, DW_AT_name("stat_reg2")
    2076                      .dwattr $C$DW$211, DW_AT_TI_symbol_name("_stat_reg2")
    2077                      .dwattr $C$DW$211, DW_AT_data_member_location[DW_OP_plus_uconst 0x1]
    2078                      .dwattr $C$DW$211, DW_AT_accessibility(DW_ACCESS_public)
    2079              
    2080              $C$DW$212       .dwtag  DW_TAG_member
    2081                      .dwattr $C$DW$212, DW_AT_type(*$C$DW$T$54)
    2082                      .dwattr $C$DW$212, DW_AT_name("cntrl_reg1")
    2083                      .dwattr $C$DW$212, DW_AT_TI_symbol_name("_cntrl_reg1")
    2084                      .dwattr $C$DW$212, DW_AT_data_member_location[DW_OP_plus_uconst 0x2]
    2085                      .dwattr $C$DW$212, DW_AT_accessibility(DW_ACCESS_public)
    2086              
    2087              $C$DW$213       .dwtag  DW_TAG_member
    2088                      .dwattr $C$DW$213, DW_AT_type(*$C$DW$T$55)
    2089                      .dwattr $C$DW$213, DW_AT_name("cntrl_reg2")
    2090                      .dwattr $C$DW$213, DW_AT_TI_symbol_name("_cntrl_reg2")
    2091                      .dwattr $C$DW$213, DW_AT_data_member_location[DW_OP_plus_uconst 0x3]
    2092                      .dwattr $C$DW$213, DW_AT_accessibility(DW_ACCESS_public)
    2093              
    2094              $C$DW$214       .dwtag  DW_TAG_member
    2095                      .dwattr $C$DW$214, DW_AT_type(*$C$DW$T$38)
    2096                      .dwattr $C$DW$214, DW_AT_name("readCntrl1")
    2097                      .dwattr $C$DW$214, DW_AT_TI_symbol_name("_readCntrl1")
    2098                      .dwattr $C$DW$214, DW_AT_data_member_location[DW_OP_plus_uconst 0x4]
    2099                      .dwattr $C$DW$214, DW_AT_accessibility(DW_ACCESS_public)
    2100              
    2101              $C$DW$215       .dwtag  DW_TAG_member
    2102                      .dwattr $C$DW$215, DW_AT_type(*$C$DW$T$38)
    2103                      .dwattr $C$DW$215, DW_AT_name("readCntrl2")
    2104                      .dwattr $C$DW$215, DW_AT_TI_symbol_name("_readCntrl2")
    2105                      .dwattr $C$DW$215, DW_AT_data_member_location[DW_OP_plus_uconst 0x5]
    2106                      .dwattr $C$DW$215, DW_AT_accessibility(DW_ACCESS_public)
    2107              
    2108              $C$DW$216       .dwtag  DW_TAG_member
    2109                      .dwattr $C$DW$216, DW_AT_type(*$C$DW$T$38)
    2110                      .dwattr $C$DW$216, DW_AT_name("DRV_fault")
    2111                      .dwattr $C$DW$216, DW_AT_TI_symbol_name("_DRV_fault")
    2112                      .dwattr $C$DW$216, DW_AT_data_member_location[DW_OP_plus_uconst 0x6]
    2113                      .dwattr $C$DW$216, DW_AT_accessibility(DW_ACCESS_public)
    2114              
    2115                      .dwendtag $C$DW$T$56
    2116              
    2117              $C$DW$T$90      .dwtag  DW_TAG_typedef
    2118                      .dwattr $C$DW$T$90, DW_AT_name("DRV8301_Vars")
    2119                      .dwattr $C$DW$T$90, DW_AT_type(*$C$DW$T$56)
TMS320C2000 Assembler PC v20.2.5 Fri Jan  6 17:23:30 2023

Copyright (c) 1996-2018 Texas Instruments Incorporated
drv8305.asm                                                          PAGE   41

    2120                      .dwattr $C$DW$T$90, DW_AT_language(DW_LANG_C)
    2121              
    2122              
    2123              $C$DW$T$68      .dwtag  DW_TAG_structure_type
    2124                      .dwattr $C$DW$T$68, DW_AT_byte_size(0x15)
    2125              $C$DW$217       .dwtag  DW_TAG_member
    2126                      .dwattr $C$DW$217, DW_AT_type(*$C$DW$T$38)
    2127                      .dwattr $C$DW$217, DW_AT_name("Rsvd0")
    2128                      .dwattr $C$DW$217, DW_AT_TI_symbol_name("_Rsvd0")
    2129                      .dwattr $C$DW$217, DW_AT_data_member_location[DW_OP_plus_uconst 0x0]
    2130                      .dwattr $C$DW$217, DW_AT_accessibility(DW_ACCESS_public)
    2131              
    2132              $C$DW$218       .dwtag  DW_TAG_member
    2133                      .dwattr $C$DW$218, DW_AT_type(*$C$DW$T$57)
    2134                      .dwattr $C$DW$218, DW_AT_name("status1_wwd")
    2135                      .dwattr $C$DW$218, DW_AT_TI_symbol_name("_status1_wwd")
    2136                      .dwattr $C$DW$218, DW_AT_data_member_location[DW_OP_plus_uconst 0x1]
    2137                      .dwattr $C$DW$218, DW_AT_accessibility(DW_ACCESS_public)
    2138              
    2139              $C$DW$219       .dwtag  DW_TAG_member
    2140                      .dwattr $C$DW$219, DW_AT_type(*$C$DW$T$58)
    2141                      .dwattr $C$DW$219, DW_AT_name("status2_ov_vds")
    2142                      .dwattr $C$DW$219, DW_AT_TI_symbol_name("_status2_ov_vds")
    2143                      .dwattr $C$DW$219, DW_AT_data_member_location[DW_OP_plus_uconst 0x2]
    2144                      .dwattr $C$DW$219, DW_AT_accessibility(DW_ACCESS_public)
    2145              
    2146              $C$DW$220       .dwtag  DW_TAG_member
    2147                      .dwattr $C$DW$220, DW_AT_type(*$C$DW$T$59)
    2148                      .dwattr $C$DW$220, DW_AT_name("status3_IC")
    2149                      .dwattr $C$DW$220, DW_AT_TI_symbol_name("_status3_IC")
    2150                      .dwattr $C$DW$220, DW_AT_data_member_location[DW_OP_plus_uconst 0x3]
    2151                      .dwattr $C$DW$220, DW_AT_accessibility(DW_ACCESS_public)
    2152              
    2153              $C$DW$221       .dwtag  DW_TAG_member
    2154                      .dwattr $C$DW$221, DW_AT_type(*$C$DW$T$60)
    2155                      .dwattr $C$DW$221, DW_AT_name("status4_gd_Vgs")
    2156                      .dwattr $C$DW$221, DW_AT_TI_symbol_name("_status4_gd_Vgs")
    2157                      .dwattr $C$DW$221, DW_AT_data_member_location[DW_OP_plus_uconst 0x4]
    2158                      .dwattr $C$DW$221, DW_AT_accessibility(DW_ACCESS_public)
    2159              
    2160              $C$DW$222       .dwtag  DW_TAG_member
    2161                      .dwattr $C$DW$222, DW_AT_type(*$C$DW$T$61)
    2162                      .dwattr $C$DW$222, DW_AT_name("cntrl5_hs_gd")
    2163                      .dwattr $C$DW$222, DW_AT_TI_symbol_name("_cntrl5_hs_gd")
    2164                      .dwattr $C$DW$222, DW_AT_data_member_location[DW_OP_plus_uconst 0x5]
    2165                      .dwattr $C$DW$222, DW_AT_accessibility(DW_ACCESS_public)
    2166              
    2167              $C$DW$223       .dwtag  DW_TAG_member
    2168                      .dwattr $C$DW$223, DW_AT_type(*$C$DW$T$62)
    2169                      .dwattr $C$DW$223, DW_AT_name("cntrl6_ls_gd")
    2170                      .dwattr $C$DW$223, DW_AT_TI_symbol_name("_cntrl6_ls_gd")
    2171                      .dwattr $C$DW$223, DW_AT_data_member_location[DW_OP_plus_uconst 0x6]
    2172                      .dwattr $C$DW$223, DW_AT_accessibility(DW_ACCESS_public)
    2173              
    2174              $C$DW$224       .dwtag  DW_TAG_member
TMS320C2000 Assembler PC v20.2.5 Fri Jan  6 17:23:30 2023

Copyright (c) 1996-2018 Texas Instruments Incorporated
drv8305.asm                                                          PAGE   42

    2175                      .dwattr $C$DW$224, DW_AT_type(*$C$DW$T$63)
    2176                      .dwattr $C$DW$224, DW_AT_name("cntrl7_gd")
    2177                      .dwattr $C$DW$224, DW_AT_TI_symbol_name("_cntrl7_gd")
    2178                      .dwattr $C$DW$224, DW_AT_data_member_location[DW_OP_plus_uconst 0x7]
    2179                      .dwattr $C$DW$224, DW_AT_accessibility(DW_ACCESS_public)
    2180              
    2181              $C$DW$225       .dwtag  DW_TAG_member
    2182                      .dwattr $C$DW$225, DW_AT_type(*$C$DW$T$38)
    2183                      .dwattr $C$DW$225, DW_AT_name("Rsvd8")
    2184                      .dwattr $C$DW$225, DW_AT_TI_symbol_name("_Rsvd8")
    2185                      .dwattr $C$DW$225, DW_AT_data_member_location[DW_OP_plus_uconst 0x8]
    2186                      .dwattr $C$DW$225, DW_AT_accessibility(DW_ACCESS_public)
    2187              
    2188              $C$DW$226       .dwtag  DW_TAG_member
    2189                      .dwattr $C$DW$226, DW_AT_type(*$C$DW$T$64)
    2190                      .dwattr $C$DW$226, DW_AT_name("cntrl9_IC_ops")
    2191                      .dwattr $C$DW$226, DW_AT_TI_symbol_name("_cntrl9_IC_ops")
    2192                      .dwattr $C$DW$226, DW_AT_data_member_location[DW_OP_plus_uconst 0x9]
    2193                      .dwattr $C$DW$226, DW_AT_accessibility(DW_ACCESS_public)
    2194              
    2195              $C$DW$227       .dwtag  DW_TAG_member
    2196                      .dwattr $C$DW$227, DW_AT_type(*$C$DW$T$65)
    2197                      .dwattr $C$DW$227, DW_AT_name("cntrlA_shunt_amp")
    2198                      .dwattr $C$DW$227, DW_AT_TI_symbol_name("_cntrlA_shunt_amp")
    2199                      .dwattr $C$DW$227, DW_AT_data_member_location[DW_OP_plus_uconst 0xa]
    2200                      .dwattr $C$DW$227, DW_AT_accessibility(DW_ACCESS_public)
    2201              
    2202              $C$DW$228       .dwtag  DW_TAG_member
    2203                      .dwattr $C$DW$228, DW_AT_type(*$C$DW$T$66)
    2204                      .dwattr $C$DW$228, DW_AT_name("cntrlB_Vreg")
    2205                      .dwattr $C$DW$228, DW_AT_TI_symbol_name("_cntrlB_Vreg")
    2206                      .dwattr $C$DW$228, DW_AT_data_member_location[DW_OP_plus_uconst 0xb]
    2207                      .dwattr $C$DW$228, DW_AT_accessibility(DW_ACCESS_public)
    2208              
    2209              $C$DW$229       .dwtag  DW_TAG_member
    2210                      .dwattr $C$DW$229, DW_AT_type(*$C$DW$T$67)
    2211                      .dwattr $C$DW$229, DW_AT_name("cntrlC_Vds_SNS")
    2212                      .dwattr $C$DW$229, DW_AT_TI_symbol_name("_cntrlC_Vds_SNS")
    2213                      .dwattr $C$DW$229, DW_AT_data_member_location[DW_OP_plus_uconst 0xc]
    2214                      .dwattr $C$DW$229, DW_AT_accessibility(DW_ACCESS_public)
    2215              
    2216              $C$DW$230       .dwtag  DW_TAG_member
    2217                      .dwattr $C$DW$230, DW_AT_type(*$C$DW$T$38)
    2218                      .dwattr $C$DW$230, DW_AT_name("readCntrl5")
    2219                      .dwattr $C$DW$230, DW_AT_TI_symbol_name("_readCntrl5")
    2220                      .dwattr $C$DW$230, DW_AT_data_member_location[DW_OP_plus_uconst 0xd]
    2221                      .dwattr $C$DW$230, DW_AT_accessibility(DW_ACCESS_public)
    2222              
    2223              $C$DW$231       .dwtag  DW_TAG_member
    2224                      .dwattr $C$DW$231, DW_AT_type(*$C$DW$T$38)
    2225                      .dwattr $C$DW$231, DW_AT_name("readCntrl6")
    2226                      .dwattr $C$DW$231, DW_AT_TI_symbol_name("_readCntrl6")
    2227                      .dwattr $C$DW$231, DW_AT_data_member_location[DW_OP_plus_uconst 0xe]
    2228                      .dwattr $C$DW$231, DW_AT_accessibility(DW_ACCESS_public)
    2229              
TMS320C2000 Assembler PC v20.2.5 Fri Jan  6 17:23:30 2023

Copyright (c) 1996-2018 Texas Instruments Incorporated
drv8305.asm                                                          PAGE   43

    2230              $C$DW$232       .dwtag  DW_TAG_member
    2231                      .dwattr $C$DW$232, DW_AT_type(*$C$DW$T$38)
    2232                      .dwattr $C$DW$232, DW_AT_name("readCntrl7")
    2233                      .dwattr $C$DW$232, DW_AT_TI_symbol_name("_readCntrl7")
    2234                      .dwattr $C$DW$232, DW_AT_data_member_location[DW_OP_plus_uconst 0xf]
    2235                      .dwattr $C$DW$232, DW_AT_accessibility(DW_ACCESS_public)
    2236              
    2237              $C$DW$233       .dwtag  DW_TAG_member
    2238                      .dwattr $C$DW$233, DW_AT_type(*$C$DW$T$38)
    2239                      .dwattr $C$DW$233, DW_AT_name("readCntrl9")
    2240                      .dwattr $C$DW$233, DW_AT_TI_symbol_name("_readCntrl9")
    2241                      .dwattr $C$DW$233, DW_AT_data_member_location[DW_OP_plus_uconst 0x10]
    2242                      .dwattr $C$DW$233, DW_AT_accessibility(DW_ACCESS_public)
    2243              
    2244              $C$DW$234       .dwtag  DW_TAG_member
    2245                      .dwattr $C$DW$234, DW_AT_type(*$C$DW$T$38)
    2246                      .dwattr $C$DW$234, DW_AT_name("readCntrlA")
    2247                      .dwattr $C$DW$234, DW_AT_TI_symbol_name("_readCntrlA")
    2248                      .dwattr $C$DW$234, DW_AT_data_member_location[DW_OP_plus_uconst 0x11]
    2249                      .dwattr $C$DW$234, DW_AT_accessibility(DW_ACCESS_public)
    2250              
    2251              $C$DW$235       .dwtag  DW_TAG_member
    2252                      .dwattr $C$DW$235, DW_AT_type(*$C$DW$T$38)
    2253                      .dwattr $C$DW$235, DW_AT_name("readCntrlB")
    2254                      .dwattr $C$DW$235, DW_AT_TI_symbol_name("_readCntrlB")
    2255                      .dwattr $C$DW$235, DW_AT_data_member_location[DW_OP_plus_uconst 0x12]
    2256                      .dwattr $C$DW$235, DW_AT_accessibility(DW_ACCESS_public)
    2257              
    2258              $C$DW$236       .dwtag  DW_TAG_member
    2259                      .dwattr $C$DW$236, DW_AT_type(*$C$DW$T$38)
    2260                      .dwattr $C$DW$236, DW_AT_name("readCntrlC")
    2261                      .dwattr $C$DW$236, DW_AT_TI_symbol_name("_readCntrlC")
    2262                      .dwattr $C$DW$236, DW_AT_data_member_location[DW_OP_plus_uconst 0x13]
    2263                      .dwattr $C$DW$236, DW_AT_accessibility(DW_ACCESS_public)
    2264              
    2265              $C$DW$237       .dwtag  DW_TAG_member
    2266                      .dwattr $C$DW$237, DW_AT_type(*$C$DW$T$38)
    2267                      .dwattr $C$DW$237, DW_AT_name("DRV_fault")
    2268                      .dwattr $C$DW$237, DW_AT_TI_symbol_name("_DRV_fault")
    2269                      .dwattr $C$DW$237, DW_AT_data_member_location[DW_OP_plus_uconst 0x14]
    2270                      .dwattr $C$DW$237, DW_AT_accessibility(DW_ACCESS_public)
    2271              
    2272                      .dwendtag $C$DW$T$68
    2273              
    2274              $C$DW$T$91      .dwtag  DW_TAG_typedef
    2275                      .dwattr $C$DW$T$91, DW_AT_name("DRV8305_Vars")
    2276                      .dwattr $C$DW$T$91, DW_AT_type(*$C$DW$T$68)
    2277                      .dwattr $C$DW$T$91, DW_AT_language(DW_LANG_C)
    2278              
    2279              
    2280              $C$DW$T$92      .dwtag  DW_TAG_structure_type
    2281                      .dwattr $C$DW$T$92, DW_AT_byte_size(0x1c4)
    2282              $C$DW$238       .dwtag  DW_TAG_member
    2283                      .dwattr $C$DW$238, DW_AT_type(*$C$DW$T$70)
    2284                      .dwattr $C$DW$238, DW_AT_name("PwmARegs")
TMS320C2000 Assembler PC v20.2.5 Fri Jan  6 17:23:30 2023

Copyright (c) 1996-2018 Texas Instruments Incorporated
drv8305.asm                                                          PAGE   44

    2285                      .dwattr $C$DW$238, DW_AT_TI_symbol_name("_PwmARegs")
    2286                      .dwattr $C$DW$238, DW_AT_data_member_location[DW_OP_plus_uconst 0x0]
    2287                      .dwattr $C$DW$238, DW_AT_accessibility(DW_ACCESS_public)
    2288              
    2289              $C$DW$239       .dwtag  DW_TAG_member
    2290                      .dwattr $C$DW$239, DW_AT_type(*$C$DW$T$70)
    2291                      .dwattr $C$DW$239, DW_AT_name("PwmBRegs")
    2292                      .dwattr $C$DW$239, DW_AT_TI_symbol_name("_PwmBRegs")
    2293                      .dwattr $C$DW$239, DW_AT_data_member_location[DW_OP_plus_uconst 0x2]
    2294                      .dwattr $C$DW$239, DW_AT_accessibility(DW_ACCESS_public)
    2295              
    2296              $C$DW$240       .dwtag  DW_TAG_member
    2297                      .dwattr $C$DW$240, DW_AT_type(*$C$DW$T$70)
    2298                      .dwattr $C$DW$240, DW_AT_name("PwmCRegs")
    2299                      .dwattr $C$DW$240, DW_AT_TI_symbol_name("_PwmCRegs")
    2300                      .dwattr $C$DW$240, DW_AT_data_member_location[DW_OP_plus_uconst 0x4]
    2301                      .dwattr $C$DW$240, DW_AT_accessibility(DW_ACCESS_public)
    2302              
    2303              $C$DW$241       .dwtag  DW_TAG_member
    2304                      .dwattr $C$DW$241, DW_AT_type(*$C$DW$T$72)
    2305                      .dwattr $C$DW$241, DW_AT_name("QepRegs")
    2306                      .dwattr $C$DW$241, DW_AT_TI_symbol_name("_QepRegs")
    2307                      .dwattr $C$DW$241, DW_AT_data_member_location[DW_OP_plus_uconst 0x6]
    2308                      .dwattr $C$DW$241, DW_AT_accessibility(DW_ACCESS_public)
    2309              
    2310              $C$DW$242       .dwtag  DW_TAG_member
    2311                      .dwattr $C$DW$242, DW_AT_type(*$C$DW$T$74)
    2312                      .dwattr $C$DW$242, DW_AT_name("SpiRegs")
    2313                      .dwattr $C$DW$242, DW_AT_TI_symbol_name("_SpiRegs")
    2314                      .dwattr $C$DW$242, DW_AT_data_member_location[DW_OP_plus_uconst 0x8]
    2315                      .dwattr $C$DW$242, DW_AT_accessibility(DW_ACCESS_public)
    2316              
    2317              $C$DW$243       .dwtag  DW_TAG_member
    2318                      .dwattr $C$DW$243, DW_AT_type(*$C$DW$T$38)
    2319                      .dwattr $C$DW$243, DW_AT_name("drvScsPin")
    2320                      .dwattr $C$DW$243, DW_AT_TI_symbol_name("_drvScsPin")
    2321                      .dwattr $C$DW$243, DW_AT_data_member_location[DW_OP_plus_uconst 0xa]
    2322                      .dwattr $C$DW$243, DW_AT_accessibility(DW_ACCESS_public)
    2323              
    2324              $C$DW$244       .dwtag  DW_TAG_member
    2325                      .dwattr $C$DW$244, DW_AT_type(*$C$DW$T$19)
    2326                      .dwattr $C$DW$244, DW_AT_name("offset_shntA")
    2327                      .dwattr $C$DW$244, DW_AT_TI_symbol_name("_offset_shntA")
    2328                      .dwattr $C$DW$244, DW_AT_data_member_location[DW_OP_plus_uconst 0xc]
    2329                      .dwattr $C$DW$244, DW_AT_accessibility(DW_ACCESS_public)
    2330              
    2331              $C$DW$245       .dwtag  DW_TAG_member
    2332                      .dwattr $C$DW$245, DW_AT_type(*$C$DW$T$19)
    2333                      .dwattr $C$DW$245, DW_AT_name("offset_shntB")
    2334                      .dwattr $C$DW$245, DW_AT_TI_symbol_name("_offset_shntB")
    2335                      .dwattr $C$DW$245, DW_AT_data_member_location[DW_OP_plus_uconst 0xe]
    2336                      .dwattr $C$DW$245, DW_AT_accessibility(DW_ACCESS_public)
    2337              
    2338              $C$DW$246       .dwtag  DW_TAG_member
    2339                      .dwattr $C$DW$246, DW_AT_type(*$C$DW$T$19)
TMS320C2000 Assembler PC v20.2.5 Fri Jan  6 17:23:30 2023

Copyright (c) 1996-2018 Texas Instruments Incorporated
drv8305.asm                                                          PAGE   45

    2340                      .dwattr $C$DW$246, DW_AT_name("offset_shntC")
    2341                      .dwattr $C$DW$246, DW_AT_TI_symbol_name("_offset_shntC")
    2342                      .dwattr $C$DW$246, DW_AT_data_member_location[DW_OP_plus_uconst 0x10]
    2343                      .dwattr $C$DW$246, DW_AT_accessibility(DW_ACCESS_public)
    2344              
    2345              $C$DW$247       .dwtag  DW_TAG_member
    2346                      .dwattr $C$DW$247, DW_AT_type(*$C$DW$T$19)
    2347                      .dwattr $C$DW$247, DW_AT_name("VdTesting")
    2348                      .dwattr $C$DW$247, DW_AT_TI_symbol_name("_VdTesting")
    2349                      .dwattr $C$DW$247, DW_AT_data_member_location[DW_OP_plus_uconst 0x12]
    2350                      .dwattr $C$DW$247, DW_AT_accessibility(DW_ACCESS_public)
    2351              
    2352              $C$DW$248       .dwtag  DW_TAG_member
    2353                      .dwattr $C$DW$248, DW_AT_type(*$C$DW$T$19)
    2354                      .dwattr $C$DW$248, DW_AT_name("VqTesting")
    2355                      .dwattr $C$DW$248, DW_AT_TI_symbol_name("_VqTesting")
    2356                      .dwattr $C$DW$248, DW_AT_data_member_location[DW_OP_plus_uconst 0x14]
    2357                      .dwattr $C$DW$248, DW_AT_accessibility(DW_ACCESS_public)
    2358              
    2359              $C$DW$249       .dwtag  DW_TAG_member
    2360                      .dwattr $C$DW$249, DW_AT_type(*$C$DW$T$19)
    2361                      .dwattr $C$DW$249, DW_AT_name("IdRef")
    2362                      .dwattr $C$DW$249, DW_AT_TI_symbol_name("_IdRef")
    2363                      .dwattr $C$DW$249, DW_AT_data_member_location[DW_OP_plus_uconst 0x16]
    2364                      .dwattr $C$DW$249, DW_AT_accessibility(DW_ACCESS_public)
    2365              
    2366              $C$DW$250       .dwtag  DW_TAG_member
    2367                      .dwattr $C$DW$250, DW_AT_type(*$C$DW$T$19)
    2368                      .dwattr $C$DW$250, DW_AT_name("IqRef")
    2369                      .dwattr $C$DW$250, DW_AT_TI_symbol_name("_IqRef")
    2370                      .dwattr $C$DW$250, DW_AT_data_member_location[DW_OP_plus_uconst 0x18]
    2371                      .dwattr $C$DW$250, DW_AT_accessibility(DW_ACCESS_public)
    2372              
    2373              $C$DW$251       .dwtag  DW_TAG_member
    2374                      .dwattr $C$DW$251, DW_AT_type(*$C$DW$T$19)
    2375                      .dwattr $C$DW$251, DW_AT_name("SpeedRef")
    2376                      .dwattr $C$DW$251, DW_AT_TI_symbol_name("_SpeedRef")
    2377                      .dwattr $C$DW$251, DW_AT_data_member_location[DW_OP_plus_uconst 0x1a]
    2378                      .dwattr $C$DW$251, DW_AT_accessibility(DW_ACCESS_public)
    2379              
    2380              $C$DW$252       .dwtag  DW_TAG_member
    2381                      .dwattr $C$DW$252, DW_AT_type(*$C$DW$T$19)
    2382                      .dwattr $C$DW$252, DW_AT_name("ElecTheta")
    2383                      .dwattr $C$DW$252, DW_AT_TI_symbol_name("_ElecTheta")
    2384                      .dwattr $C$DW$252, DW_AT_data_member_location[DW_OP_plus_uconst 0x1c]
    2385                      .dwattr $C$DW$252, DW_AT_accessibility(DW_ACCESS_public)
    2386              
    2387              $C$DW$253       .dwtag  DW_TAG_member
    2388                      .dwattr $C$DW$253, DW_AT_type(*$C$DW$T$19)
    2389                      .dwattr $C$DW$253, DW_AT_name("MechTheta")
    2390                      .dwattr $C$DW$253, DW_AT_TI_symbol_name("_MechTheta")
    2391                      .dwattr $C$DW$253, DW_AT_data_member_location[DW_OP_plus_uconst 0x1e]
    2392                      .dwattr $C$DW$253, DW_AT_accessibility(DW_ACCESS_public)
    2393              
    2394              $C$DW$254       .dwtag  DW_TAG_member
TMS320C2000 Assembler PC v20.2.5 Fri Jan  6 17:23:30 2023

Copyright (c) 1996-2018 Texas Instruments Incorporated
drv8305.asm                                                          PAGE   46

    2395                      .dwattr $C$DW$254, DW_AT_type(*$C$DW$T$44)
    2396                      .dwattr $C$DW$254, DW_AT_name("currentAs")
    2397                      .dwattr $C$DW$254, DW_AT_TI_symbol_name("_currentAs")
    2398                      .dwattr $C$DW$254, DW_AT_data_member_location[DW_OP_plus_uconst 0x20]
    2399                      .dwattr $C$DW$254, DW_AT_accessibility(DW_ACCESS_public)
    2400              
    2401              $C$DW$255       .dwtag  DW_TAG_member
    2402                      .dwattr $C$DW$255, DW_AT_type(*$C$DW$T$44)
    2403                      .dwattr $C$DW$255, DW_AT_name("currentBs")
    2404                      .dwattr $C$DW$255, DW_AT_TI_symbol_name("_currentBs")
    2405                      .dwattr $C$DW$255, DW_AT_data_member_location[DW_OP_plus_uconst 0x22]
    2406                      .dwattr $C$DW$255, DW_AT_accessibility(DW_ACCESS_public)
    2407              
    2408              $C$DW$256       .dwtag  DW_TAG_member
    2409                      .dwattr $C$DW$256, DW_AT_type(*$C$DW$T$44)
    2410                      .dwattr $C$DW$256, DW_AT_name("currentCs")
    2411                      .dwattr $C$DW$256, DW_AT_TI_symbol_name("_currentCs")
    2412                      .dwattr $C$DW$256, DW_AT_data_member_location[DW_OP_plus_uconst 0x24]
    2413                      .dwattr $C$DW$256, DW_AT_accessibility(DW_ACCESS_public)
    2414              
    2415              $C$DW$257       .dwtag  DW_TAG_member
    2416                      .dwattr $C$DW$257, DW_AT_type(*$C$DW$T$44)
    2417                      .dwattr $C$DW$257, DW_AT_name("voltageAs")
    2418                      .dwattr $C$DW$257, DW_AT_TI_symbol_name("_voltageAs")
    2419                      .dwattr $C$DW$257, DW_AT_data_member_location[DW_OP_plus_uconst 0x26]
    2420                      .dwattr $C$DW$257, DW_AT_accessibility(DW_ACCESS_public)
    2421              
    2422              $C$DW$258       .dwtag  DW_TAG_member
    2423                      .dwattr $C$DW$258, DW_AT_type(*$C$DW$T$44)
    2424                      .dwattr $C$DW$258, DW_AT_name("voltageBs")
    2425                      .dwattr $C$DW$258, DW_AT_TI_symbol_name("_voltageBs")
    2426                      .dwattr $C$DW$258, DW_AT_data_member_location[DW_OP_plus_uconst 0x28]
    2427                      .dwattr $C$DW$258, DW_AT_accessibility(DW_ACCESS_public)
    2428              
    2429              $C$DW$259       .dwtag  DW_TAG_member
    2430                      .dwattr $C$DW$259, DW_AT_type(*$C$DW$T$44)
    2431                      .dwattr $C$DW$259, DW_AT_name("voltageCs")
    2432                      .dwattr $C$DW$259, DW_AT_TI_symbol_name("_voltageCs")
    2433                      .dwattr $C$DW$259, DW_AT_data_member_location[DW_OP_plus_uconst 0x2a]
    2434                      .dwattr $C$DW$259, DW_AT_accessibility(DW_ACCESS_public)
    2435              
    2436              $C$DW$260       .dwtag  DW_TAG_member
    2437                      .dwattr $C$DW$260, DW_AT_type(*$C$DW$T$44)
    2438                      .dwattr $C$DW$260, DW_AT_name("voltageDC")
    2439                      .dwattr $C$DW$260, DW_AT_TI_symbol_name("_voltageDC")
    2440                      .dwattr $C$DW$260, DW_AT_data_member_location[DW_OP_plus_uconst 0x2c]
    2441                      .dwattr $C$DW$260, DW_AT_accessibility(DW_ACCESS_public)
    2442              
    2443              $C$DW$261       .dwtag  DW_TAG_member
    2444                      .dwattr $C$DW$261, DW_AT_type(*$C$DW$T$48)
    2445                      .dwattr $C$DW$261, DW_AT_name("alignCntr")
    2446                      .dwattr $C$DW$261, DW_AT_TI_symbol_name("_alignCntr")
    2447                      .dwattr $C$DW$261, DW_AT_data_member_location[DW_OP_plus_uconst 0x2e]
    2448                      .dwattr $C$DW$261, DW_AT_accessibility(DW_ACCESS_public)
    2449              
TMS320C2000 Assembler PC v20.2.5 Fri Jan  6 17:23:30 2023

Copyright (c) 1996-2018 Texas Instruments Incorporated
drv8305.asm                                                          PAGE   47

    2450              $C$DW$262       .dwtag  DW_TAG_member
    2451                      .dwattr $C$DW$262, DW_AT_type(*$C$DW$T$48)
    2452                      .dwattr $C$DW$262, DW_AT_name("alignCnt")
    2453                      .dwattr $C$DW$262, DW_AT_TI_symbol_name("_alignCnt")
    2454                      .dwattr $C$DW$262, DW_AT_data_member_location[DW_OP_plus_uconst 0x30]
    2455                      .dwattr $C$DW$262, DW_AT_accessibility(DW_ACCESS_public)
    2456              
    2457              $C$DW$263       .dwtag  DW_TAG_member
    2458                      .dwattr $C$DW$263, DW_AT_type(*$C$DW$T$38)
    2459                      .dwattr $C$DW$263, DW_AT_name("lsw")
    2460                      .dwattr $C$DW$263, DW_AT_TI_symbol_name("_lsw")
    2461                      .dwattr $C$DW$263, DW_AT_data_member_location[DW_OP_plus_uconst 0x32]
    2462                      .dwattr $C$DW$263, DW_AT_accessibility(DW_ACCESS_public)
    2463              
    2464              $C$DW$264       .dwtag  DW_TAG_member
    2465                      .dwattr $C$DW$264, DW_AT_type(*$C$DW$T$38)
    2466                      .dwattr $C$DW$264, DW_AT_name("TripFlagDMC")
    2467                      .dwattr $C$DW$264, DW_AT_TI_symbol_name("_TripFlagDMC")
    2468                      .dwattr $C$DW$264, DW_AT_data_member_location[DW_OP_plus_uconst 0x33]
    2469                      .dwattr $C$DW$264, DW_AT_accessibility(DW_ACCESS_public)
    2470              
    2471              $C$DW$265       .dwtag  DW_TAG_member
    2472                      .dwattr $C$DW$265, DW_AT_type(*$C$DW$T$38)
    2473                      .dwattr $C$DW$265, DW_AT_name("clearTripFlagDMC")
    2474                      .dwattr $C$DW$265, DW_AT_TI_symbol_name("_clearTripFlagDMC")
    2475                      .dwattr $C$DW$265, DW_AT_data_member_location[DW_OP_plus_uconst 0x34]
    2476                      .dwattr $C$DW$265, DW_AT_accessibility(DW_ACCESS_public)
    2477              
    2478              $C$DW$266       .dwtag  DW_TAG_member
    2479                      .dwattr $C$DW$266, DW_AT_type(*$C$DW$T$38)
    2480                      .dwattr $C$DW$266, DW_AT_name("RunMotor")
    2481                      .dwattr $C$DW$266, DW_AT_TI_symbol_name("_RunMotor")
    2482                      .dwattr $C$DW$266, DW_AT_data_member_location[DW_OP_plus_uconst 0x35]
    2483                      .dwattr $C$DW$266, DW_AT_accessibility(DW_ACCESS_public)
    2484              
    2485              $C$DW$267       .dwtag  DW_TAG_member
    2486                      .dwattr $C$DW$267, DW_AT_type(*$C$DW$T$38)
    2487                      .dwattr $C$DW$267, DW_AT_name("SpeedLoopPrescaler")
    2488                      .dwattr $C$DW$267, DW_AT_TI_symbol_name("_SpeedLoopPrescaler")
    2489                      .dwattr $C$DW$267, DW_AT_data_member_location[DW_OP_plus_uconst 0x36]
    2490                      .dwattr $C$DW$267, DW_AT_accessibility(DW_ACCESS_public)
    2491              
    2492              $C$DW$268       .dwtag  DW_TAG_member
    2493                      .dwattr $C$DW$268, DW_AT_type(*$C$DW$T$38)
    2494                      .dwattr $C$DW$268, DW_AT_name("SpeedLoopCount")
    2495                      .dwattr $C$DW$268, DW_AT_TI_symbol_name("_SpeedLoopCount")
    2496                      .dwattr $C$DW$268, DW_AT_data_member_location[DW_OP_plus_uconst 0x37]
    2497                      .dwattr $C$DW$268, DW_AT_accessibility(DW_ACCESS_public)
    2498              
    2499              $C$DW$269       .dwtag  DW_TAG_member
    2500                      .dwattr $C$DW$269, DW_AT_type(*$C$DW$T$38)
    2501                      .dwattr $C$DW$269, DW_AT_name("PosSenseReverse")
    2502                      .dwattr $C$DW$269, DW_AT_TI_symbol_name("_PosSenseReverse")
    2503                      .dwattr $C$DW$269, DW_AT_data_member_location[DW_OP_plus_uconst 0x38]
    2504                      .dwattr $C$DW$269, DW_AT_accessibility(DW_ACCESS_public)
TMS320C2000 Assembler PC v20.2.5 Fri Jan  6 17:23:30 2023

Copyright (c) 1996-2018 Texas Instruments Incorporated
drv8305.asm                                                          PAGE   48

    2505              
    2506              $C$DW$270       .dwtag  DW_TAG_member
    2507                      .dwattr $C$DW$270, DW_AT_type(*$C$DW$T$38)
    2508                      .dwattr $C$DW$270, DW_AT_name("newCmdDRV")
    2509                      .dwattr $C$DW$270, DW_AT_TI_symbol_name("_newCmdDRV")
    2510                      .dwattr $C$DW$270, DW_AT_data_member_location[DW_OP_plus_uconst 0x39]
    2511                      .dwattr $C$DW$270, DW_AT_accessibility(DW_ACCESS_public)
    2512              
    2513              $C$DW$271       .dwtag  DW_TAG_member
    2514                      .dwattr $C$DW$271, DW_AT_type(*$C$DW$T$44)
    2515                      .dwattr $C$DW$271, DW_AT_name("T")
    2516                      .dwattr $C$DW$271, DW_AT_TI_symbol_name("_T")
    2517                      .dwattr $C$DW$271, DW_AT_data_member_location[DW_OP_plus_uconst 0x3a]
    2518                      .dwattr $C$DW$271, DW_AT_accessibility(DW_ACCESS_public)
    2519              
    2520              $C$DW$272       .dwtag  DW_TAG_member
    2521                      .dwattr $C$DW$272, DW_AT_type(*$C$DW$T$75)
    2522                      .dwattr $C$DW$272, DW_AT_name("clarke")
    2523                      .dwattr $C$DW$272, DW_AT_TI_symbol_name("_clarke")
    2524                      .dwattr $C$DW$272, DW_AT_data_member_location[DW_OP_plus_uconst 0x3c]
    2525                      .dwattr $C$DW$272, DW_AT_accessibility(DW_ACCESS_public)
    2526              
    2527              $C$DW$273       .dwtag  DW_TAG_member
    2528                      .dwattr $C$DW$273, DW_AT_type(*$C$DW$T$76)
    2529                      .dwattr $C$DW$273, DW_AT_name("park")
    2530                      .dwattr $C$DW$273, DW_AT_TI_symbol_name("_park")
    2531                      .dwattr $C$DW$273, DW_AT_data_member_location[DW_OP_plus_uconst 0x46]
    2532                      .dwattr $C$DW$273, DW_AT_accessibility(DW_ACCESS_public)
    2533              
    2534              $C$DW$274       .dwtag  DW_TAG_member
    2535                      .dwattr $C$DW$274, DW_AT_type(*$C$DW$T$77)
    2536                      .dwattr $C$DW$274, DW_AT_name("ipark")
    2537                      .dwattr $C$DW$274, DW_AT_TI_symbol_name("_ipark")
    2538                      .dwattr $C$DW$274, DW_AT_data_member_location[DW_OP_plus_uconst 0x54]
    2539                      .dwattr $C$DW$274, DW_AT_accessibility(DW_ACCESS_public)
    2540              
    2541              $C$DW$275       .dwtag  DW_TAG_member
    2542                      .dwattr $C$DW$275, DW_AT_type(*$C$DW$T$78)
    2543                      .dwattr $C$DW$275, DW_AT_name("pi_pos")
    2544                      .dwattr $C$DW$275, DW_AT_TI_symbol_name("_pi_pos")
    2545                      .dwattr $C$DW$275, DW_AT_data_member_location[DW_OP_plus_uconst 0x62]
    2546                      .dwattr $C$DW$275, DW_AT_accessibility(DW_ACCESS_public)
    2547              
    2548              $C$DW$276       .dwtag  DW_TAG_member
    2549                      .dwattr $C$DW$276, DW_AT_type(*$C$DW$T$79)
    2550                      .dwattr $C$DW$276, DW_AT_name("pid_spd")
    2551                      .dwattr $C$DW$276, DW_AT_TI_symbol_name("_pid_spd")
    2552                      .dwattr $C$DW$276, DW_AT_data_member_location[DW_OP_plus_uconst 0x7a]
    2553                      .dwattr $C$DW$276, DW_AT_accessibility(DW_ACCESS_public)
    2554              
    2555              $C$DW$277       .dwtag  DW_TAG_member
    2556                      .dwattr $C$DW$277, DW_AT_type(*$C$DW$T$78)
    2557                      .dwattr $C$DW$277, DW_AT_name("pi_id")
    2558                      .dwattr $C$DW$277, DW_AT_TI_symbol_name("_pi_id")
    2559                      .dwattr $C$DW$277, DW_AT_data_member_location[DW_OP_plus_uconst 0xa2]
TMS320C2000 Assembler PC v20.2.5 Fri Jan  6 17:23:30 2023

Copyright (c) 1996-2018 Texas Instruments Incorporated
drv8305.asm                                                          PAGE   49

    2560                      .dwattr $C$DW$277, DW_AT_accessibility(DW_ACCESS_public)
    2561              
    2562              $C$DW$278       .dwtag  DW_TAG_member
    2563                      .dwattr $C$DW$278, DW_AT_type(*$C$DW$T$78)
    2564                      .dwattr $C$DW$278, DW_AT_name("pi_iq")
    2565                      .dwattr $C$DW$278, DW_AT_TI_symbol_name("_pi_iq")
    2566                      .dwattr $C$DW$278, DW_AT_data_member_location[DW_OP_plus_uconst 0xba]
    2567                      .dwattr $C$DW$278, DW_AT_accessibility(DW_ACCESS_public)
    2568              
    2569              $C$DW$279       .dwtag  DW_TAG_member
    2570                      .dwattr $C$DW$279, DW_AT_type(*$C$DW$T$80)
    2571                      .dwattr $C$DW$279, DW_AT_name("pi_spd")
    2572                      .dwattr $C$DW$279, DW_AT_TI_symbol_name("_pi_spd")
    2573                      .dwattr $C$DW$279, DW_AT_data_member_location[DW_OP_plus_uconst 0xd2]
    2574                      .dwattr $C$DW$279, DW_AT_accessibility(DW_ACCESS_public)
    2575              
    2576              $C$DW$280       .dwtag  DW_TAG_member
    2577                      .dwattr $C$DW$280, DW_AT_type(*$C$DW$T$81)
    2578                      .dwattr $C$DW$280, DW_AT_name("svgen")
    2579                      .dwattr $C$DW$280, DW_AT_TI_symbol_name("_svgen")
    2580                      .dwattr $C$DW$280, DW_AT_data_member_location[DW_OP_plus_uconst 0xfa]
    2581                      .dwattr $C$DW$280, DW_AT_accessibility(DW_ACCESS_public)
    2582              
    2583              $C$DW$281       .dwtag  DW_TAG_member
    2584                      .dwattr $C$DW$281, DW_AT_type(*$C$DW$T$82)
    2585                      .dwattr $C$DW$281, DW_AT_name("rc")
    2586                      .dwattr $C$DW$281, DW_AT_TI_symbol_name("_rc")
    2587                      .dwattr $C$DW$281, DW_AT_data_member_location[DW_OP_plus_uconst 0x10c]
    2588                      .dwattr $C$DW$281, DW_AT_accessibility(DW_ACCESS_public)
    2589              
    2590              $C$DW$282       .dwtag  DW_TAG_member
    2591                      .dwattr $C$DW$282, DW_AT_type(*$C$DW$T$83)
    2592                      .dwattr $C$DW$282, DW_AT_name("rg")
    2593                      .dwattr $C$DW$282, DW_AT_TI_symbol_name("_rg")
    2594                      .dwattr $C$DW$282, DW_AT_data_member_location[DW_OP_plus_uconst 0x11c]
    2595                      .dwattr $C$DW$282, DW_AT_accessibility(DW_ACCESS_public)
    2596              
    2597              $C$DW$283       .dwtag  DW_TAG_member
    2598                      .dwattr $C$DW$283, DW_AT_type(*$C$DW$T$84)
    2599                      .dwattr $C$DW$283, DW_AT_name("volt")
    2600                      .dwattr $C$DW$283, DW_AT_TI_symbol_name("_volt")
    2601                      .dwattr $C$DW$283, DW_AT_data_member_location[DW_OP_plus_uconst 0x128]
    2602                      .dwattr $C$DW$283, DW_AT_accessibility(DW_ACCESS_public)
    2603              
    2604              $C$DW$284       .dwtag  DW_TAG_member
    2605                      .dwattr $C$DW$284, DW_AT_type(*$C$DW$T$85)
    2606                      .dwattr $C$DW$284, DW_AT_name("smo_const")
    2607                      .dwattr $C$DW$284, DW_AT_TI_symbol_name("_smo_const")
    2608                      .dwattr $C$DW$284, DW_AT_data_member_location[DW_OP_plus_uconst 0x13e]
    2609                      .dwattr $C$DW$284, DW_AT_accessibility(DW_ACCESS_public)
    2610              
    2611              $C$DW$285       .dwtag  DW_TAG_member
    2612                      .dwattr $C$DW$285, DW_AT_type(*$C$DW$T$86)
    2613                      .dwattr $C$DW$285, DW_AT_name("smo")
    2614                      .dwattr $C$DW$285, DW_AT_TI_symbol_name("_smo")
TMS320C2000 Assembler PC v20.2.5 Fri Jan  6 17:23:30 2023

Copyright (c) 1996-2018 Texas Instruments Incorporated
drv8305.asm                                                          PAGE   50

    2615                      .dwattr $C$DW$285, DW_AT_data_member_location[DW_OP_plus_uconst 0x14c]
    2616                      .dwattr $C$DW$285, DW_AT_accessibility(DW_ACCESS_public)
    2617              
    2618              $C$DW$286       .dwtag  DW_TAG_member
    2619                      .dwattr $C$DW$286, DW_AT_type(*$C$DW$T$87)
    2620                      .dwattr $C$DW$286, DW_AT_name("speed1")
    2621                      .dwattr $C$DW$286, DW_AT_TI_symbol_name("_speed1")
    2622                      .dwattr $C$DW$286, DW_AT_data_member_location[DW_OP_plus_uconst 0x170]
    2623                      .dwattr $C$DW$286, DW_AT_accessibility(DW_ACCESS_public)
    2624              
    2625              $C$DW$287       .dwtag  DW_TAG_member
    2626                      .dwattr $C$DW$287, DW_AT_type(*$C$DW$T$88)
    2627                      .dwattr $C$DW$287, DW_AT_name("speed")
    2628                      .dwattr $C$DW$287, DW_AT_TI_symbol_name("_speed")
    2629                      .dwattr $C$DW$287, DW_AT_data_member_location[DW_OP_plus_uconst 0x182]
    2630                      .dwattr $C$DW$287, DW_AT_accessibility(DW_ACCESS_public)
    2631              
    2632              $C$DW$288       .dwtag  DW_TAG_member
    2633                      .dwattr $C$DW$288, DW_AT_type(*$C$DW$T$89)
    2634                      .dwattr $C$DW$288, DW_AT_name("qep")
    2635                      .dwattr $C$DW$288, DW_AT_TI_symbol_name("_qep")
    2636                      .dwattr $C$DW$288, DW_AT_data_member_location[DW_OP_plus_uconst 0x196]
    2637                      .dwattr $C$DW$288, DW_AT_accessibility(DW_ACCESS_public)
    2638              
    2639              $C$DW$289       .dwtag  DW_TAG_member
    2640                      .dwattr $C$DW$289, DW_AT_type(*$C$DW$T$90)
    2641                      .dwattr $C$DW$289, DW_AT_name("drv8301")
    2642                      .dwattr $C$DW$289, DW_AT_TI_symbol_name("_drv8301")
    2643                      .dwattr $C$DW$289, DW_AT_data_member_location[DW_OP_plus_uconst 0x1a8]
    2644                      .dwattr $C$DW$289, DW_AT_accessibility(DW_ACCESS_public)
    2645              
    2646              $C$DW$290       .dwtag  DW_TAG_member
    2647                      .dwattr $C$DW$290, DW_AT_type(*$C$DW$T$91)
    2648                      .dwattr $C$DW$290, DW_AT_name("drv8305")
    2649                      .dwattr $C$DW$290, DW_AT_TI_symbol_name("_drv8305")
    2650                      .dwattr $C$DW$290, DW_AT_data_member_location[DW_OP_plus_uconst 0x1af]
    2651                      .dwattr $C$DW$290, DW_AT_accessibility(DW_ACCESS_public)
    2652              
    2653                      .dwendtag $C$DW$T$92
    2654              
    2655              $C$DW$T$299     .dwtag  DW_TAG_typedef
    2656                      .dwattr $C$DW$T$299, DW_AT_name("MOTOR_VARS")
    2657                      .dwattr $C$DW$T$299, DW_AT_type(*$C$DW$T$92)
    2658                      .dwattr $C$DW$T$299, DW_AT_language(DW_LANG_C)
    2659              
    2660              $C$DW$T$300     .dwtag  DW_TAG_pointer_type
    2661                      .dwattr $C$DW$T$300, DW_AT_type(*$C$DW$T$299)
    2662                      .dwattr $C$DW$T$300, DW_AT_address_class(0x20)
    2663              
    2664              $C$DW$291       .dwtag  DW_TAG_TI_far_type
    2665                      .dwattr $C$DW$291, DW_AT_type(*$C$DW$T$300)
    2666              
    2667              $C$DW$T$301     .dwtag  DW_TAG_const_type
    2668                      .dwattr $C$DW$T$301, DW_AT_type(*$C$DW$291)
    2669              
TMS320C2000 Assembler PC v20.2.5 Fri Jan  6 17:23:30 2023

Copyright (c) 1996-2018 Texas Instruments Incorporated
drv8305.asm                                                          PAGE   51

    2670              
    2671              $C$DW$T$93      .dwtag  DW_TAG_union_type
    2672                      .dwattr $C$DW$T$93, DW_AT_byte_size(0x01)
    2673              $C$DW$292       .dwtag  DW_TAG_member
    2674                      .dwattr $C$DW$292, DW_AT_type(*$C$DW$T$38)
    2675                      .dwattr $C$DW$292, DW_AT_name("all")
    2676                      .dwattr $C$DW$292, DW_AT_TI_symbol_name("_all")
    2677                      .dwattr $C$DW$292, DW_AT_data_member_location[DW_OP_plus_uconst 0x0]
    2678                      .dwattr $C$DW$292, DW_AT_accessibility(DW_ACCESS_public)
    2679              
    2680              $C$DW$293       .dwtag  DW_TAG_member
    2681                      .dwattr $C$DW$293, DW_AT_type(*$C$DW$T$164)
    2682                      .dwattr $C$DW$293, DW_AT_name("bit")
    2683                      .dwattr $C$DW$293, DW_AT_TI_symbol_name("_bit")
    2684                      .dwattr $C$DW$293, DW_AT_data_member_location[DW_OP_plus_uconst 0x0]
    2685                      .dwattr $C$DW$293, DW_AT_accessibility(DW_ACCESS_public)
    2686              
    2687                      .dwendtag $C$DW$T$93
    2688              
    2689              $C$DW$T$52      .dwtag  DW_TAG_typedef
    2690                      .dwattr $C$DW$T$52, DW_AT_name("DRV8301_STATUS_REG_1")
    2691                      .dwattr $C$DW$T$52, DW_AT_type(*$C$DW$T$93)
    2692                      .dwattr $C$DW$T$52, DW_AT_language(DW_LANG_C)
    2693              
    2694              
    2695              $C$DW$T$94      .dwtag  DW_TAG_union_type
    2696                      .dwattr $C$DW$T$94, DW_AT_byte_size(0x01)
    2697              $C$DW$294       .dwtag  DW_TAG_member
    2698                      .dwattr $C$DW$294, DW_AT_type(*$C$DW$T$38)
    2699                      .dwattr $C$DW$294, DW_AT_name("all")
    2700                      .dwattr $C$DW$294, DW_AT_TI_symbol_name("_all")
    2701                      .dwattr $C$DW$294, DW_AT_data_member_location[DW_OP_plus_uconst 0x0]
    2702                      .dwattr $C$DW$294, DW_AT_accessibility(DW_ACCESS_public)
    2703              
    2704              $C$DW$295       .dwtag  DW_TAG_member
    2705                      .dwattr $C$DW$295, DW_AT_type(*$C$DW$T$165)
    2706                      .dwattr $C$DW$295, DW_AT_name("bit")
    2707                      .dwattr $C$DW$295, DW_AT_TI_symbol_name("_bit")
    2708                      .dwattr $C$DW$295, DW_AT_data_member_location[DW_OP_plus_uconst 0x0]
    2709                      .dwattr $C$DW$295, DW_AT_accessibility(DW_ACCESS_public)
    2710              
    2711                      .dwendtag $C$DW$T$94
    2712              
    2713              $C$DW$T$53      .dwtag  DW_TAG_typedef
    2714                      .dwattr $C$DW$T$53, DW_AT_name("DRV8301_STATUS_REG_2")
    2715                      .dwattr $C$DW$T$53, DW_AT_type(*$C$DW$T$94)
    2716                      .dwattr $C$DW$T$53, DW_AT_language(DW_LANG_C)
    2717              
    2718              
    2719              $C$DW$T$95      .dwtag  DW_TAG_union_type
    2720                      .dwattr $C$DW$T$95, DW_AT_byte_size(0x01)
    2721              $C$DW$296       .dwtag  DW_TAG_member
    2722                      .dwattr $C$DW$296, DW_AT_type(*$C$DW$T$38)
    2723                      .dwattr $C$DW$296, DW_AT_name("all")
    2724                      .dwattr $C$DW$296, DW_AT_TI_symbol_name("_all")
TMS320C2000 Assembler PC v20.2.5 Fri Jan  6 17:23:30 2023

Copyright (c) 1996-2018 Texas Instruments Incorporated
drv8305.asm                                                          PAGE   52

    2725                      .dwattr $C$DW$296, DW_AT_data_member_location[DW_OP_plus_uconst 0x0]
    2726                      .dwattr $C$DW$296, DW_AT_accessibility(DW_ACCESS_public)
    2727              
    2728              $C$DW$297       .dwtag  DW_TAG_member
    2729                      .dwattr $C$DW$297, DW_AT_type(*$C$DW$T$162)
    2730                      .dwattr $C$DW$297, DW_AT_name("bit")
    2731                      .dwattr $C$DW$297, DW_AT_TI_symbol_name("_bit")
    2732                      .dwattr $C$DW$297, DW_AT_data_member_location[DW_OP_plus_uconst 0x0]
    2733                      .dwattr $C$DW$297, DW_AT_accessibility(DW_ACCESS_public)
    2734              
    2735                      .dwendtag $C$DW$T$95
    2736              
    2737              $C$DW$T$54      .dwtag  DW_TAG_typedef
    2738                      .dwattr $C$DW$T$54, DW_AT_name("DRV8301_CONTROL_REG_1")
    2739                      .dwattr $C$DW$T$54, DW_AT_type(*$C$DW$T$95)
    2740                      .dwattr $C$DW$T$54, DW_AT_language(DW_LANG_C)
    2741              
    2742              
    2743              $C$DW$T$96      .dwtag  DW_TAG_union_type
    2744                      .dwattr $C$DW$T$96, DW_AT_byte_size(0x01)
    2745              $C$DW$298       .dwtag  DW_TAG_member
    2746                      .dwattr $C$DW$298, DW_AT_type(*$C$DW$T$38)
    2747                      .dwattr $C$DW$298, DW_AT_name("all")
    2748                      .dwattr $C$DW$298, DW_AT_TI_symbol_name("_all")
    2749                      .dwattr $C$DW$298, DW_AT_data_member_location[DW_OP_plus_uconst 0x0]
    2750                      .dwattr $C$DW$298, DW_AT_accessibility(DW_ACCESS_public)
    2751              
    2752              $C$DW$299       .dwtag  DW_TAG_member
    2753                      .dwattr $C$DW$299, DW_AT_type(*$C$DW$T$163)
    2754                      .dwattr $C$DW$299, DW_AT_name("bit")
    2755                      .dwattr $C$DW$299, DW_AT_TI_symbol_name("_bit")
    2756                      .dwattr $C$DW$299, DW_AT_data_member_location[DW_OP_plus_uconst 0x0]
    2757                      .dwattr $C$DW$299, DW_AT_accessibility(DW_ACCESS_public)
    2758              
    2759                      .dwendtag $C$DW$T$96
    2760              
    2761              $C$DW$T$55      .dwtag  DW_TAG_typedef
    2762                      .dwattr $C$DW$T$55, DW_AT_name("DRV8301_CONTROL_REG_2")
    2763                      .dwattr $C$DW$T$55, DW_AT_type(*$C$DW$T$96)
    2764                      .dwattr $C$DW$T$55, DW_AT_language(DW_LANG_C)
    2765              
    2766              
    2767              $C$DW$T$97      .dwtag  DW_TAG_union_type
    2768                      .dwattr $C$DW$T$97, DW_AT_byte_size(0x01)
    2769              $C$DW$300       .dwtag  DW_TAG_member
    2770                      .dwattr $C$DW$300, DW_AT_type(*$C$DW$T$38)
    2771                      .dwattr $C$DW$300, DW_AT_name("all")
    2772                      .dwattr $C$DW$300, DW_AT_TI_symbol_name("_all")
    2773                      .dwattr $C$DW$300, DW_AT_data_member_location[DW_OP_plus_uconst 0x0]
    2774                      .dwattr $C$DW$300, DW_AT_accessibility(DW_ACCESS_public)
    2775              
    2776              $C$DW$301       .dwtag  DW_TAG_member
    2777                      .dwattr $C$DW$301, DW_AT_type(*$C$DW$T$176)
    2778                      .dwattr $C$DW$301, DW_AT_name("bit")
    2779                      .dwattr $C$DW$301, DW_AT_TI_symbol_name("_bit")
TMS320C2000 Assembler PC v20.2.5 Fri Jan  6 17:23:30 2023

Copyright (c) 1996-2018 Texas Instruments Incorporated
drv8305.asm                                                          PAGE   53

    2780                      .dwattr $C$DW$301, DW_AT_data_member_location[DW_OP_plus_uconst 0x0]
    2781                      .dwattr $C$DW$301, DW_AT_accessibility(DW_ACCESS_public)
    2782              
    2783                      .dwendtag $C$DW$T$97
    2784              
    2785              $C$DW$T$57      .dwtag  DW_TAG_typedef
    2786                      .dwattr $C$DW$T$57, DW_AT_name("DRV8305_WWD_REG")
    2787                      .dwattr $C$DW$T$57, DW_AT_type(*$C$DW$T$97)
    2788                      .dwattr $C$DW$T$57, DW_AT_language(DW_LANG_C)
    2789              
    2790              
    2791              $C$DW$T$98      .dwtag  DW_TAG_union_type
    2792                      .dwattr $C$DW$T$98, DW_AT_byte_size(0x01)
    2793              $C$DW$302       .dwtag  DW_TAG_member
    2794                      .dwattr $C$DW$302, DW_AT_type(*$C$DW$T$38)
    2795                      .dwattr $C$DW$302, DW_AT_name("all")
    2796                      .dwattr $C$DW$302, DW_AT_TI_symbol_name("_all")
    2797                      .dwattr $C$DW$302, DW_AT_data_member_location[DW_OP_plus_uconst 0x0]
    2798                      .dwattr $C$DW$302, DW_AT_accessibility(DW_ACCESS_public)
    2799              
    2800              $C$DW$303       .dwtag  DW_TAG_member
    2801                      .dwattr $C$DW$303, DW_AT_type(*$C$DW$T$172)
    2802                      .dwattr $C$DW$303, DW_AT_name("bit")
    2803                      .dwattr $C$DW$303, DW_AT_TI_symbol_name("_bit")
    2804                      .dwattr $C$DW$303, DW_AT_data_member_location[DW_OP_plus_uconst 0x0]
    2805                      .dwattr $C$DW$303, DW_AT_accessibility(DW_ACCESS_public)
    2806              
    2807                      .dwendtag $C$DW$T$98
    2808              
    2809              $C$DW$T$58      .dwtag  DW_TAG_typedef
    2810                      .dwattr $C$DW$T$58, DW_AT_name("DRV8305_OV_VDS_FAULTS_REG")
    2811                      .dwattr $C$DW$T$58, DW_AT_type(*$C$DW$T$98)
    2812                      .dwattr $C$DW$T$58, DW_AT_language(DW_LANG_C)
    2813              
    2814              
    2815              $C$DW$T$99      .dwtag  DW_TAG_union_type
    2816                      .dwattr $C$DW$T$99, DW_AT_byte_size(0x01)
    2817              $C$DW$304       .dwtag  DW_TAG_member
    2818                      .dwattr $C$DW$304, DW_AT_type(*$C$DW$T$38)
    2819                      .dwattr $C$DW$304, DW_AT_name("all")
    2820                      .dwattr $C$DW$304, DW_AT_TI_symbol_name("_all")
    2821                      .dwattr $C$DW$304, DW_AT_data_member_location[DW_OP_plus_uconst 0x0]
    2822                      .dwattr $C$DW$304, DW_AT_accessibility(DW_ACCESS_public)
    2823              
    2824              $C$DW$305       .dwtag  DW_TAG_member
    2825                      .dwattr $C$DW$305, DW_AT_type(*$C$DW$T$169)
    2826                      .dwattr $C$DW$305, DW_AT_name("bit")
    2827                      .dwattr $C$DW$305, DW_AT_TI_symbol_name("_bit")
    2828                      .dwattr $C$DW$305, DW_AT_data_member_location[DW_OP_plus_uconst 0x0]
    2829                      .dwattr $C$DW$305, DW_AT_accessibility(DW_ACCESS_public)
    2830              
    2831                      .dwendtag $C$DW$T$99
    2832              
    2833              $C$DW$T$59      .dwtag  DW_TAG_typedef
    2834                      .dwattr $C$DW$T$59, DW_AT_name("DRV8305_IC_FAULTS_REG")
TMS320C2000 Assembler PC v20.2.5 Fri Jan  6 17:23:30 2023

Copyright (c) 1996-2018 Texas Instruments Incorporated
drv8305.asm                                                          PAGE   54

    2835                      .dwattr $C$DW$T$59, DW_AT_type(*$C$DW$T$99)
    2836                      .dwattr $C$DW$T$59, DW_AT_language(DW_LANG_C)
    2837              
    2838              
    2839              $C$DW$T$100     .dwtag  DW_TAG_union_type
    2840                      .dwattr $C$DW$T$100, DW_AT_byte_size(0x01)
    2841              $C$DW$306       .dwtag  DW_TAG_member
    2842                      .dwattr $C$DW$306, DW_AT_type(*$C$DW$T$38)
    2843                      .dwattr $C$DW$306, DW_AT_name("all")
    2844                      .dwattr $C$DW$306, DW_AT_TI_symbol_name("_all")
    2845                      .dwattr $C$DW$306, DW_AT_data_member_location[DW_OP_plus_uconst 0x0]
    2846                      .dwattr $C$DW$306, DW_AT_accessibility(DW_ACCESS_public)
    2847              
    2848              $C$DW$307       .dwtag  DW_TAG_member
    2849                      .dwattr $C$DW$307, DW_AT_type(*$C$DW$T$167)
    2850                      .dwattr $C$DW$307, DW_AT_name("bit")
    2851                      .dwattr $C$DW$307, DW_AT_TI_symbol_name("_bit")
    2852                      .dwattr $C$DW$307, DW_AT_data_member_location[DW_OP_plus_uconst 0x0]
    2853                      .dwattr $C$DW$307, DW_AT_accessibility(DW_ACCESS_public)
    2854              
    2855                      .dwendtag $C$DW$T$100
    2856              
    2857              $C$DW$T$60      .dwtag  DW_TAG_typedef
    2858                      .dwattr $C$DW$T$60, DW_AT_name("DRV8305_GD_VGS_FAULTS_REG")
    2859                      .dwattr $C$DW$T$60, DW_AT_type(*$C$DW$T$100)
    2860                      .dwattr $C$DW$T$60, DW_AT_language(DW_LANG_C)
    2861              
    2862              
    2863              $C$DW$T$101     .dwtag  DW_TAG_union_type
    2864                      .dwattr $C$DW$T$101, DW_AT_byte_size(0x01)
    2865              $C$DW$308       .dwtag  DW_TAG_member
    2866                      .dwattr $C$DW$308, DW_AT_type(*$C$DW$T$38)
    2867                      .dwattr $C$DW$308, DW_AT_name("all")
    2868                      .dwattr $C$DW$308, DW_AT_TI_symbol_name("_all")
    2869                      .dwattr $C$DW$308, DW_AT_data_member_location[DW_OP_plus_uconst 0x0]
    2870                      .dwattr $C$DW$308, DW_AT_accessibility(DW_ACCESS_public)
    2871              
    2872              $C$DW$309       .dwtag  DW_TAG_member
    2873                      .dwattr $C$DW$309, DW_AT_type(*$C$DW$T$168)
    2874                      .dwattr $C$DW$309, DW_AT_name("bit")
    2875                      .dwattr $C$DW$309, DW_AT_TI_symbol_name("_bit")
    2876                      .dwattr $C$DW$309, DW_AT_data_member_location[DW_OP_plus_uconst 0x0]
    2877                      .dwattr $C$DW$309, DW_AT_accessibility(DW_ACCESS_public)
    2878              
    2879                      .dwendtag $C$DW$T$101
    2880              
    2881              $C$DW$T$61      .dwtag  DW_TAG_typedef
    2882                      .dwattr $C$DW$T$61, DW_AT_name("DRV8305_HS_GATE_DRIVER_CNTRL_REG")
    2883                      .dwattr $C$DW$T$61, DW_AT_type(*$C$DW$T$101)
    2884                      .dwattr $C$DW$T$61, DW_AT_language(DW_LANG_C)
    2885              
    2886              
    2887              $C$DW$T$102     .dwtag  DW_TAG_union_type
    2888                      .dwattr $C$DW$T$102, DW_AT_byte_size(0x01)
    2889              $C$DW$310       .dwtag  DW_TAG_member
TMS320C2000 Assembler PC v20.2.5 Fri Jan  6 17:23:30 2023

Copyright (c) 1996-2018 Texas Instruments Incorporated
drv8305.asm                                                          PAGE   55

    2890                      .dwattr $C$DW$310, DW_AT_type(*$C$DW$T$38)
    2891                      .dwattr $C$DW$310, DW_AT_name("all")
    2892                      .dwattr $C$DW$310, DW_AT_TI_symbol_name("_all")
    2893                      .dwattr $C$DW$310, DW_AT_data_member_location[DW_OP_plus_uconst 0x0]
    2894                      .dwattr $C$DW$310, DW_AT_accessibility(DW_ACCESS_public)
    2895              
    2896              $C$DW$311       .dwtag  DW_TAG_member
    2897                      .dwattr $C$DW$311, DW_AT_type(*$C$DW$T$171)
    2898                      .dwattr $C$DW$311, DW_AT_name("bit")
    2899                      .dwattr $C$DW$311, DW_AT_TI_symbol_name("_bit")
    2900                      .dwattr $C$DW$311, DW_AT_data_member_location[DW_OP_plus_uconst 0x0]
    2901                      .dwattr $C$DW$311, DW_AT_accessibility(DW_ACCESS_public)
    2902              
    2903                      .dwendtag $C$DW$T$102
    2904              
    2905              $C$DW$T$62      .dwtag  DW_TAG_typedef
    2906                      .dwattr $C$DW$T$62, DW_AT_name("DRV8305_LS_GATE_DRIVER_CNTRL_REG")
    2907                      .dwattr $C$DW$T$62, DW_AT_type(*$C$DW$T$102)
    2908                      .dwattr $C$DW$T$62, DW_AT_language(DW_LANG_C)
    2909              
    2910              
    2911              $C$DW$T$103     .dwtag  DW_TAG_union_type
    2912                      .dwattr $C$DW$T$103, DW_AT_byte_size(0x01)
    2913              $C$DW$312       .dwtag  DW_TAG_member
    2914                      .dwattr $C$DW$312, DW_AT_type(*$C$DW$T$38)
    2915                      .dwattr $C$DW$312, DW_AT_name("all")
    2916                      .dwattr $C$DW$312, DW_AT_TI_symbol_name("_all")
    2917                      .dwattr $C$DW$312, DW_AT_data_member_location[DW_OP_plus_uconst 0x0]
    2918                      .dwattr $C$DW$312, DW_AT_accessibility(DW_ACCESS_public)
    2919              
    2920              $C$DW$313       .dwtag  DW_TAG_member
    2921                      .dwattr $C$DW$313, DW_AT_type(*$C$DW$T$166)
    2922                      .dwattr $C$DW$313, DW_AT_name("bit")
    2923                      .dwattr $C$DW$313, DW_AT_TI_symbol_name("_bit")
    2924                      .dwattr $C$DW$313, DW_AT_data_member_location[DW_OP_plus_uconst 0x0]
    2925                      .dwattr $C$DW$313, DW_AT_accessibility(DW_ACCESS_public)
    2926              
    2927                      .dwendtag $C$DW$T$103
    2928              
    2929              $C$DW$T$63      .dwtag  DW_TAG_typedef
    2930                      .dwattr $C$DW$T$63, DW_AT_name("DRV8305_GD_CNTRL_REG")
    2931                      .dwattr $C$DW$T$63, DW_AT_type(*$C$DW$T$103)
    2932                      .dwattr $C$DW$T$63, DW_AT_language(DW_LANG_C)
    2933              
    2934              
    2935              $C$DW$T$104     .dwtag  DW_TAG_union_type
    2936                      .dwattr $C$DW$T$104, DW_AT_byte_size(0x01)
    2937              $C$DW$314       .dwtag  DW_TAG_member
    2938                      .dwattr $C$DW$314, DW_AT_type(*$C$DW$T$38)
    2939                      .dwattr $C$DW$314, DW_AT_name("all")
    2940                      .dwattr $C$DW$314, DW_AT_TI_symbol_name("_all")
    2941                      .dwattr $C$DW$314, DW_AT_data_member_location[DW_OP_plus_uconst 0x0]
    2942                      .dwattr $C$DW$314, DW_AT_accessibility(DW_ACCESS_public)
    2943              
    2944              $C$DW$315       .dwtag  DW_TAG_member
TMS320C2000 Assembler PC v20.2.5 Fri Jan  6 17:23:30 2023

Copyright (c) 1996-2018 Texas Instruments Incorporated
drv8305.asm                                                          PAGE   56

    2945                      .dwattr $C$DW$315, DW_AT_type(*$C$DW$T$170)
    2946                      .dwattr $C$DW$315, DW_AT_name("bit")
    2947                      .dwattr $C$DW$315, DW_AT_TI_symbol_name("_bit")
    2948                      .dwattr $C$DW$315, DW_AT_data_member_location[DW_OP_plus_uconst 0x0]
    2949                      .dwattr $C$DW$315, DW_AT_accessibility(DW_ACCESS_public)
    2950              
    2951                      .dwendtag $C$DW$T$104
    2952              
    2953              $C$DW$T$64      .dwtag  DW_TAG_typedef
    2954                      .dwattr $C$DW$T$64, DW_AT_name("DRV8305_IC_OPS_REG")
    2955                      .dwattr $C$DW$T$64, DW_AT_type(*$C$DW$T$104)
    2956                      .dwattr $C$DW$T$64, DW_AT_language(DW_LANG_C)
    2957              
    2958              
    2959              $C$DW$T$105     .dwtag  DW_TAG_union_type
    2960                      .dwattr $C$DW$T$105, DW_AT_byte_size(0x01)
    2961              $C$DW$316       .dwtag  DW_TAG_member
    2962                      .dwattr $C$DW$316, DW_AT_type(*$C$DW$T$38)
    2963                      .dwattr $C$DW$316, DW_AT_name("all")
    2964                      .dwattr $C$DW$316, DW_AT_TI_symbol_name("_all")
    2965                      .dwattr $C$DW$316, DW_AT_data_member_location[DW_OP_plus_uconst 0x0]
    2966                      .dwattr $C$DW$316, DW_AT_accessibility(DW_ACCESS_public)
    2967              
    2968              $C$DW$317       .dwtag  DW_TAG_member
    2969                      .dwattr $C$DW$317, DW_AT_type(*$C$DW$T$173)
    2970                      .dwattr $C$DW$317, DW_AT_name("bit")
    2971                      .dwattr $C$DW$317, DW_AT_TI_symbol_name("_bit")
    2972                      .dwattr $C$DW$317, DW_AT_data_member_location[DW_OP_plus_uconst 0x0]
    2973                      .dwattr $C$DW$317, DW_AT_accessibility(DW_ACCESS_public)
    2974              
    2975                      .dwendtag $C$DW$T$105
    2976              
    2977              $C$DW$T$65      .dwtag  DW_TAG_typedef
    2978                      .dwattr $C$DW$T$65, DW_AT_name("DRV8305_SHUNT_AMP_CNTRL_REG")
    2979                      .dwattr $C$DW$T$65, DW_AT_type(*$C$DW$T$105)
    2980                      .dwattr $C$DW$T$65, DW_AT_language(DW_LANG_C)
    2981              
    2982              
    2983              $C$DW$T$106     .dwtag  DW_TAG_union_type
    2984                      .dwattr $C$DW$T$106, DW_AT_byte_size(0x01)
    2985              $C$DW$318       .dwtag  DW_TAG_member
    2986                      .dwattr $C$DW$318, DW_AT_type(*$C$DW$T$38)
    2987                      .dwattr $C$DW$318, DW_AT_name("all")
    2988                      .dwattr $C$DW$318, DW_AT_TI_symbol_name("_all")
    2989                      .dwattr $C$DW$318, DW_AT_data_member_location[DW_OP_plus_uconst 0x0]
    2990                      .dwattr $C$DW$318, DW_AT_accessibility(DW_ACCESS_public)
    2991              
    2992              $C$DW$319       .dwtag  DW_TAG_member
    2993                      .dwattr $C$DW$319, DW_AT_type(*$C$DW$T$175)
    2994                      .dwattr $C$DW$319, DW_AT_name("bit")
    2995                      .dwattr $C$DW$319, DW_AT_TI_symbol_name("_bit")
    2996                      .dwattr $C$DW$319, DW_AT_data_member_location[DW_OP_plus_uconst 0x0]
    2997                      .dwattr $C$DW$319, DW_AT_accessibility(DW_ACCESS_public)
    2998              
    2999                      .dwendtag $C$DW$T$106
TMS320C2000 Assembler PC v20.2.5 Fri Jan  6 17:23:30 2023

Copyright (c) 1996-2018 Texas Instruments Incorporated
drv8305.asm                                                          PAGE   57

    3000              
    3001              $C$DW$T$66      .dwtag  DW_TAG_typedef
    3002                      .dwattr $C$DW$T$66, DW_AT_name("DRV8305_VREG_CNTRL_REG")
    3003                      .dwattr $C$DW$T$66, DW_AT_type(*$C$DW$T$106)
    3004                      .dwattr $C$DW$T$66, DW_AT_language(DW_LANG_C)
    3005              
    3006              
    3007              $C$DW$T$107     .dwtag  DW_TAG_union_type
    3008                      .dwattr $C$DW$T$107, DW_AT_byte_size(0x01)
    3009              $C$DW$320       .dwtag  DW_TAG_member
    3010                      .dwattr $C$DW$320, DW_AT_type(*$C$DW$T$38)
    3011                      .dwattr $C$DW$320, DW_AT_name("all")
    3012                      .dwattr $C$DW$320, DW_AT_TI_symbol_name("_all")
    3013                      .dwattr $C$DW$320, DW_AT_data_member_location[DW_OP_plus_uconst 0x0]
    3014                      .dwattr $C$DW$320, DW_AT_accessibility(DW_ACCESS_public)
    3015              
    3016              $C$DW$321       .dwtag  DW_TAG_member
    3017                      .dwattr $C$DW$321, DW_AT_type(*$C$DW$T$174)
    3018                      .dwattr $C$DW$321, DW_AT_name("bit")
    3019                      .dwattr $C$DW$321, DW_AT_TI_symbol_name("_bit")
    3020                      .dwattr $C$DW$321, DW_AT_data_member_location[DW_OP_plus_uconst 0x0]
    3021                      .dwattr $C$DW$321, DW_AT_accessibility(DW_ACCESS_public)
    3022              
    3023                      .dwendtag $C$DW$T$107
    3024              
    3025              $C$DW$T$67      .dwtag  DW_TAG_typedef
    3026                      .dwattr $C$DW$T$67, DW_AT_name("DRV8305_VDS_SNS_CNTRL_REG")
    3027                      .dwattr $C$DW$T$67, DW_AT_type(*$C$DW$T$107)
    3028                      .dwattr $C$DW$T$67, DW_AT_language(DW_LANG_C)
    3029              
    3030              
    3031              $C$DW$T$108     .dwtag  DW_TAG_structure_type
    3032                      .dwattr $C$DW$T$108, DW_AT_name("AQCSFRC_BITS")
    3033                      .dwattr $C$DW$T$108, DW_AT_byte_size(0x01)
    3034              $C$DW$322       .dwtag  DW_TAG_member
    3035                      .dwattr $C$DW$322, DW_AT_type(*$C$DW$T$38)
    3036                      .dwattr $C$DW$322, DW_AT_name("CSFA")
    3037                      .dwattr $C$DW$322, DW_AT_TI_symbol_name("_CSFA")
    3038                      .dwattr $C$DW$322, DW_AT_bit_offset(0x0e)
    3039                      .dwattr $C$DW$322, DW_AT_bit_size(0x02)
    3040                      .dwattr $C$DW$322, DW_AT_data_member_location[DW_OP_plus_uconst 0x0]
    3041                      .dwattr $C$DW$322, DW_AT_accessibility(DW_ACCESS_public)
    3042              
    3043              $C$DW$323       .dwtag  DW_TAG_member
    3044                      .dwattr $C$DW$323, DW_AT_type(*$C$DW$T$38)
    3045                      .dwattr $C$DW$323, DW_AT_name("CSFB")
    3046                      .dwattr $C$DW$323, DW_AT_TI_symbol_name("_CSFB")
    3047                      .dwattr $C$DW$323, DW_AT_bit_offset(0x0c)
    3048                      .dwattr $C$DW$323, DW_AT_bit_size(0x02)
    3049                      .dwattr $C$DW$323, DW_AT_data_member_location[DW_OP_plus_uconst 0x0]
    3050                      .dwattr $C$DW$323, DW_AT_accessibility(DW_ACCESS_public)
    3051              
    3052              $C$DW$324       .dwtag  DW_TAG_member
    3053                      .dwattr $C$DW$324, DW_AT_type(*$C$DW$T$38)
    3054                      .dwattr $C$DW$324, DW_AT_name("rsvd1")
TMS320C2000 Assembler PC v20.2.5 Fri Jan  6 17:23:30 2023

Copyright (c) 1996-2018 Texas Instruments Incorporated
drv8305.asm                                                          PAGE   58

    3055                      .dwattr $C$DW$324, DW_AT_TI_symbol_name("_rsvd1")
    3056                      .dwattr $C$DW$324, DW_AT_bit_offset(0x00)
    3057                      .dwattr $C$DW$324, DW_AT_bit_size(0x0c)
    3058                      .dwattr $C$DW$324, DW_AT_data_member_location[DW_OP_plus_uconst 0x0]
    3059                      .dwattr $C$DW$324, DW_AT_accessibility(DW_ACCESS_public)
    3060              
    3061                      .dwendtag $C$DW$T$108
    3062              
    3063              
    3064              $C$DW$T$109     .dwtag  DW_TAG_union_type
    3065                      .dwattr $C$DW$T$109, DW_AT_name("AQCSFRC_REG")
    3066                      .dwattr $C$DW$T$109, DW_AT_byte_size(0x01)
    3067              $C$DW$325       .dwtag  DW_TAG_member
    3068                      .dwattr $C$DW$325, DW_AT_type(*$C$DW$T$38)
    3069                      .dwattr $C$DW$325, DW_AT_name("all")
    3070                      .dwattr $C$DW$325, DW_AT_TI_symbol_name("_all")
    3071                      .dwattr $C$DW$325, DW_AT_data_member_location[DW_OP_plus_uconst 0x0]
    3072                      .dwattr $C$DW$325, DW_AT_accessibility(DW_ACCESS_public)
    3073              
    3074              $C$DW$326       .dwtag  DW_TAG_member
    3075                      .dwattr $C$DW$326, DW_AT_type(*$C$DW$T$108)
    3076                      .dwattr $C$DW$326, DW_AT_name("bit")
    3077                      .dwattr $C$DW$326, DW_AT_TI_symbol_name("_bit")
    3078                      .dwattr $C$DW$326, DW_AT_data_member_location[DW_OP_plus_uconst 0x0]
    3079                      .dwattr $C$DW$326, DW_AT_accessibility(DW_ACCESS_public)
    3080              
    3081                      .dwendtag $C$DW$T$109
    3082              
    3083              
    3084              $C$DW$T$110     .dwtag  DW_TAG_structure_type
    3085                      .dwattr $C$DW$T$110, DW_AT_name("AQCTLA2_BITS")
    3086                      .dwattr $C$DW$T$110, DW_AT_byte_size(0x01)
    3087              $C$DW$327       .dwtag  DW_TAG_member
    3088                      .dwattr $C$DW$327, DW_AT_type(*$C$DW$T$38)
    3089                      .dwattr $C$DW$327, DW_AT_name("T1U")
    3090                      .dwattr $C$DW$327, DW_AT_TI_symbol_name("_T1U")
    3091                      .dwattr $C$DW$327, DW_AT_bit_offset(0x0e)
    3092                      .dwattr $C$DW$327, DW_AT_bit_size(0x02)
    3093                      .dwattr $C$DW$327, DW_AT_data_member_location[DW_OP_plus_uconst 0x0]
    3094                      .dwattr $C$DW$327, DW_AT_accessibility(DW_ACCESS_public)
    3095              
    3096              $C$DW$328       .dwtag  DW_TAG_member
    3097                      .dwattr $C$DW$328, DW_AT_type(*$C$DW$T$38)
    3098                      .dwattr $C$DW$328, DW_AT_name("T1D")
    3099                      .dwattr $C$DW$328, DW_AT_TI_symbol_name("_T1D")
    3100                      .dwattr $C$DW$328, DW_AT_bit_offset(0x0c)
    3101                      .dwattr $C$DW$328, DW_AT_bit_size(0x02)
    3102                      .dwattr $C$DW$328, DW_AT_data_member_location[DW_OP_plus_uconst 0x0]
    3103                      .dwattr $C$DW$328, DW_AT_accessibility(DW_ACCESS_public)
    3104              
    3105              $C$DW$329       .dwtag  DW_TAG_member
    3106                      .dwattr $C$DW$329, DW_AT_type(*$C$DW$T$38)
    3107                      .dwattr $C$DW$329, DW_AT_name("T2U")
    3108                      .dwattr $C$DW$329, DW_AT_TI_symbol_name("_T2U")
    3109                      .dwattr $C$DW$329, DW_AT_bit_offset(0x0a)
TMS320C2000 Assembler PC v20.2.5 Fri Jan  6 17:23:30 2023

Copyright (c) 1996-2018 Texas Instruments Incorporated
drv8305.asm                                                          PAGE   59

    3110                      .dwattr $C$DW$329, DW_AT_bit_size(0x02)
    3111                      .dwattr $C$DW$329, DW_AT_data_member_location[DW_OP_plus_uconst 0x0]
    3112                      .dwattr $C$DW$329, DW_AT_accessibility(DW_ACCESS_public)
    3113              
    3114              $C$DW$330       .dwtag  DW_TAG_member
    3115                      .dwattr $C$DW$330, DW_AT_type(*$C$DW$T$38)
    3116                      .dwattr $C$DW$330, DW_AT_name("T2D")
    3117                      .dwattr $C$DW$330, DW_AT_TI_symbol_name("_T2D")
    3118                      .dwattr $C$DW$330, DW_AT_bit_offset(0x08)
    3119                      .dwattr $C$DW$330, DW_AT_bit_size(0x02)
    3120                      .dwattr $C$DW$330, DW_AT_data_member_location[DW_OP_plus_uconst 0x0]
    3121                      .dwattr $C$DW$330, DW_AT_accessibility(DW_ACCESS_public)
    3122              
    3123              $C$DW$331       .dwtag  DW_TAG_member
    3124                      .dwattr $C$DW$331, DW_AT_type(*$C$DW$T$38)
    3125                      .dwattr $C$DW$331, DW_AT_name("rsvd1")
    3126                      .dwattr $C$DW$331, DW_AT_TI_symbol_name("_rsvd1")
    3127                      .dwattr $C$DW$331, DW_AT_bit_offset(0x00)
    3128                      .dwattr $C$DW$331, DW_AT_bit_size(0x08)
    3129                      .dwattr $C$DW$331, DW_AT_data_member_location[DW_OP_plus_uconst 0x0]
    3130                      .dwattr $C$DW$331, DW_AT_accessibility(DW_ACCESS_public)
    3131              
    3132                      .dwendtag $C$DW$T$110
    3133              
    3134              
    3135              $C$DW$T$111     .dwtag  DW_TAG_union_type
    3136                      .dwattr $C$DW$T$111, DW_AT_name("AQCTLA2_REG")
    3137                      .dwattr $C$DW$T$111, DW_AT_byte_size(0x01)
    3138              $C$DW$332       .dwtag  DW_TAG_member
    3139                      .dwattr $C$DW$332, DW_AT_type(*$C$DW$T$38)
    3140                      .dwattr $C$DW$332, DW_AT_name("all")
    3141                      .dwattr $C$DW$332, DW_AT_TI_symbol_name("_all")
    3142                      .dwattr $C$DW$332, DW_AT_data_member_location[DW_OP_plus_uconst 0x0]
    3143                      .dwattr $C$DW$332, DW_AT_accessibility(DW_ACCESS_public)
    3144              
    3145              $C$DW$333       .dwtag  DW_TAG_member
    3146                      .dwattr $C$DW$333, DW_AT_type(*$C$DW$T$110)
    3147                      .dwattr $C$DW$333, DW_AT_name("bit")
    3148                      .dwattr $C$DW$333, DW_AT_TI_symbol_name("_bit")
    3149                      .dwattr $C$DW$333, DW_AT_data_member_location[DW_OP_plus_uconst 0x0]
    3150                      .dwattr $C$DW$333, DW_AT_accessibility(DW_ACCESS_public)
    3151              
    3152                      .dwendtag $C$DW$T$111
    3153              
    3154              
    3155              $C$DW$T$112     .dwtag  DW_TAG_structure_type
    3156                      .dwattr $C$DW$T$112, DW_AT_name("AQCTLA_BITS")
    3157                      .dwattr $C$DW$T$112, DW_AT_byte_size(0x01)
    3158              $C$DW$334       .dwtag  DW_TAG_member
    3159                      .dwattr $C$DW$334, DW_AT_type(*$C$DW$T$38)
    3160                      .dwattr $C$DW$334, DW_AT_name("ZRO")
    3161                      .dwattr $C$DW$334, DW_AT_TI_symbol_name("_ZRO")
    3162                      .dwattr $C$DW$334, DW_AT_bit_offset(0x0e)
    3163                      .dwattr $C$DW$334, DW_AT_bit_size(0x02)
    3164                      .dwattr $C$DW$334, DW_AT_data_member_location[DW_OP_plus_uconst 0x0]
TMS320C2000 Assembler PC v20.2.5 Fri Jan  6 17:23:30 2023

Copyright (c) 1996-2018 Texas Instruments Incorporated
drv8305.asm                                                          PAGE   60

    3165                      .dwattr $C$DW$334, DW_AT_accessibility(DW_ACCESS_public)
    3166              
    3167              $C$DW$335       .dwtag  DW_TAG_member
    3168                      .dwattr $C$DW$335, DW_AT_type(*$C$DW$T$38)
    3169                      .dwattr $C$DW$335, DW_AT_name("PRD")
    3170                      .dwattr $C$DW$335, DW_AT_TI_symbol_name("_PRD")
    3171                      .dwattr $C$DW$335, DW_AT_bit_offset(0x0c)
    3172                      .dwattr $C$DW$335, DW_AT_bit_size(0x02)
    3173                      .dwattr $C$DW$335, DW_AT_data_member_location[DW_OP_plus_uconst 0x0]
    3174                      .dwattr $C$DW$335, DW_AT_accessibility(DW_ACCESS_public)
    3175              
    3176              $C$DW$336       .dwtag  DW_TAG_member
    3177                      .dwattr $C$DW$336, DW_AT_type(*$C$DW$T$38)
    3178                      .dwattr $C$DW$336, DW_AT_name("CAU")
    3179                      .dwattr $C$DW$336, DW_AT_TI_symbol_name("_CAU")
    3180                      .dwattr $C$DW$336, DW_AT_bit_offset(0x0a)
    3181                      .dwattr $C$DW$336, DW_AT_bit_size(0x02)
    3182                      .dwattr $C$DW$336, DW_AT_data_member_location[DW_OP_plus_uconst 0x0]
    3183                      .dwattr $C$DW$336, DW_AT_accessibility(DW_ACCESS_public)
    3184              
    3185              $C$DW$337       .dwtag  DW_TAG_member
    3186                      .dwattr $C$DW$337, DW_AT_type(*$C$DW$T$38)
    3187                      .dwattr $C$DW$337, DW_AT_name("CAD")
    3188                      .dwattr $C$DW$337, DW_AT_TI_symbol_name("_CAD")
    3189                      .dwattr $C$DW$337, DW_AT_bit_offset(0x08)
    3190                      .dwattr $C$DW$337, DW_AT_bit_size(0x02)
    3191                      .dwattr $C$DW$337, DW_AT_data_member_location[DW_OP_plus_uconst 0x0]
    3192                      .dwattr $C$DW$337, DW_AT_accessibility(DW_ACCESS_public)
    3193              
    3194              $C$DW$338       .dwtag  DW_TAG_member
    3195                      .dwattr $C$DW$338, DW_AT_type(*$C$DW$T$38)
    3196                      .dwattr $C$DW$338, DW_AT_name("CBU")
    3197                      .dwattr $C$DW$338, DW_AT_TI_symbol_name("_CBU")
    3198                      .dwattr $C$DW$338, DW_AT_bit_offset(0x06)
    3199                      .dwattr $C$DW$338, DW_AT_bit_size(0x02)
    3200                      .dwattr $C$DW$338, DW_AT_data_member_location[DW_OP_plus_uconst 0x0]
    3201                      .dwattr $C$DW$338, DW_AT_accessibility(DW_ACCESS_public)
    3202              
    3203              $C$DW$339       .dwtag  DW_TAG_member
    3204                      .dwattr $C$DW$339, DW_AT_type(*$C$DW$T$38)
    3205                      .dwattr $C$DW$339, DW_AT_name("CBD")
    3206                      .dwattr $C$DW$339, DW_AT_TI_symbol_name("_CBD")
    3207                      .dwattr $C$DW$339, DW_AT_bit_offset(0x04)
    3208                      .dwattr $C$DW$339, DW_AT_bit_size(0x02)
    3209                      .dwattr $C$DW$339, DW_AT_data_member_location[DW_OP_plus_uconst 0x0]
    3210                      .dwattr $C$DW$339, DW_AT_accessibility(DW_ACCESS_public)
    3211              
    3212              $C$DW$340       .dwtag  DW_TAG_member
    3213                      .dwattr $C$DW$340, DW_AT_type(*$C$DW$T$38)
    3214                      .dwattr $C$DW$340, DW_AT_name("rsvd1")
    3215                      .dwattr $C$DW$340, DW_AT_TI_symbol_name("_rsvd1")
    3216                      .dwattr $C$DW$340, DW_AT_bit_offset(0x00)
    3217                      .dwattr $C$DW$340, DW_AT_bit_size(0x04)
    3218                      .dwattr $C$DW$340, DW_AT_data_member_location[DW_OP_plus_uconst 0x0]
    3219                      .dwattr $C$DW$340, DW_AT_accessibility(DW_ACCESS_public)
TMS320C2000 Assembler PC v20.2.5 Fri Jan  6 17:23:30 2023

Copyright (c) 1996-2018 Texas Instruments Incorporated
drv8305.asm                                                          PAGE   61

    3220              
    3221                      .dwendtag $C$DW$T$112
    3222              
    3223              
    3224              $C$DW$T$113     .dwtag  DW_TAG_union_type
    3225                      .dwattr $C$DW$T$113, DW_AT_name("AQCTLA_REG")
    3226                      .dwattr $C$DW$T$113, DW_AT_byte_size(0x01)
    3227              $C$DW$341       .dwtag  DW_TAG_member
    3228                      .dwattr $C$DW$341, DW_AT_type(*$C$DW$T$38)
    3229                      .dwattr $C$DW$341, DW_AT_name("all")
    3230                      .dwattr $C$DW$341, DW_AT_TI_symbol_name("_all")
    3231                      .dwattr $C$DW$341, DW_AT_data_member_location[DW_OP_plus_uconst 0x0]
    3232                      .dwattr $C$DW$341, DW_AT_accessibility(DW_ACCESS_public)
    3233              
    3234              $C$DW$342       .dwtag  DW_TAG_member
    3235                      .dwattr $C$DW$342, DW_AT_type(*$C$DW$T$112)
    3236                      .dwattr $C$DW$342, DW_AT_name("bit")
    3237                      .dwattr $C$DW$342, DW_AT_TI_symbol_name("_bit")
    3238                      .dwattr $C$DW$342, DW_AT_data_member_location[DW_OP_plus_uconst 0x0]
    3239                      .dwattr $C$DW$342, DW_AT_accessibility(DW_ACCESS_public)
    3240              
    3241                      .dwendtag $C$DW$T$113
    3242              
    3243              
    3244              $C$DW$T$114     .dwtag  DW_TAG_structure_type
    3245                      .dwattr $C$DW$T$114, DW_AT_name("AQCTLB2_BITS")
    3246                      .dwattr $C$DW$T$114, DW_AT_byte_size(0x01)
    3247              $C$DW$343       .dwtag  DW_TAG_member
    3248                      .dwattr $C$DW$343, DW_AT_type(*$C$DW$T$38)
    3249                      .dwattr $C$DW$343, DW_AT_name("T1U")
    3250                      .dwattr $C$DW$343, DW_AT_TI_symbol_name("_T1U")
    3251                      .dwattr $C$DW$343, DW_AT_bit_offset(0x0e)
    3252                      .dwattr $C$DW$343, DW_AT_bit_size(0x02)
    3253                      .dwattr $C$DW$343, DW_AT_data_member_location[DW_OP_plus_uconst 0x0]
    3254                      .dwattr $C$DW$343, DW_AT_accessibility(DW_ACCESS_public)
    3255              
    3256              $C$DW$344       .dwtag  DW_TAG_member
    3257                      .dwattr $C$DW$344, DW_AT_type(*$C$DW$T$38)
    3258                      .dwattr $C$DW$344, DW_AT_name("T1D")
    3259                      .dwattr $C$DW$344, DW_AT_TI_symbol_name("_T1D")
    3260                      .dwattr $C$DW$344, DW_AT_bit_offset(0x0c)
    3261                      .dwattr $C$DW$344, DW_AT_bit_size(0x02)
    3262                      .dwattr $C$DW$344, DW_AT_data_member_location[DW_OP_plus_uconst 0x0]
    3263                      .dwattr $C$DW$344, DW_AT_accessibility(DW_ACCESS_public)
    3264              
    3265              $C$DW$345       .dwtag  DW_TAG_member
    3266                      .dwattr $C$DW$345, DW_AT_type(*$C$DW$T$38)
    3267                      .dwattr $C$DW$345, DW_AT_name("T2U")
    3268                      .dwattr $C$DW$345, DW_AT_TI_symbol_name("_T2U")
    3269                      .dwattr $C$DW$345, DW_AT_bit_offset(0x0a)
    3270                      .dwattr $C$DW$345, DW_AT_bit_size(0x02)
    3271                      .dwattr $C$DW$345, DW_AT_data_member_location[DW_OP_plus_uconst 0x0]
    3272                      .dwattr $C$DW$345, DW_AT_accessibility(DW_ACCESS_public)
    3273              
    3274              $C$DW$346       .dwtag  DW_TAG_member
TMS320C2000 Assembler PC v20.2.5 Fri Jan  6 17:23:30 2023

Copyright (c) 1996-2018 Texas Instruments Incorporated
drv8305.asm                                                          PAGE   62

    3275                      .dwattr $C$DW$346, DW_AT_type(*$C$DW$T$38)
    3276                      .dwattr $C$DW$346, DW_AT_name("T2D")
    3277                      .dwattr $C$DW$346, DW_AT_TI_symbol_name("_T2D")
    3278                      .dwattr $C$DW$346, DW_AT_bit_offset(0x08)
    3279                      .dwattr $C$DW$346, DW_AT_bit_size(0x02)
    3280                      .dwattr $C$DW$346, DW_AT_data_member_location[DW_OP_plus_uconst 0x0]
    3281                      .dwattr $C$DW$346, DW_AT_accessibility(DW_ACCESS_public)
    3282              
    3283              $C$DW$347       .dwtag  DW_TAG_member
    3284                      .dwattr $C$DW$347, DW_AT_type(*$C$DW$T$38)
    3285                      .dwattr $C$DW$347, DW_AT_name("rsvd1")
    3286                      .dwattr $C$DW$347, DW_AT_TI_symbol_name("_rsvd1")
    3287                      .dwattr $C$DW$347, DW_AT_bit_offset(0x00)
    3288                      .dwattr $C$DW$347, DW_AT_bit_size(0x08)
    3289                      .dwattr $C$DW$347, DW_AT_data_member_location[DW_OP_plus_uconst 0x0]
    3290                      .dwattr $C$DW$347, DW_AT_accessibility(DW_ACCESS_public)
    3291              
    3292                      .dwendtag $C$DW$T$114
    3293              
    3294              
    3295              $C$DW$T$115     .dwtag  DW_TAG_union_type
    3296                      .dwattr $C$DW$T$115, DW_AT_name("AQCTLB2_REG")
    3297                      .dwattr $C$DW$T$115, DW_AT_byte_size(0x01)
    3298              $C$DW$348       .dwtag  DW_TAG_member
    3299                      .dwattr $C$DW$348, DW_AT_type(*$C$DW$T$38)
    3300                      .dwattr $C$DW$348, DW_AT_name("all")
    3301                      .dwattr $C$DW$348, DW_AT_TI_symbol_name("_all")
    3302                      .dwattr $C$DW$348, DW_AT_data_member_location[DW_OP_plus_uconst 0x0]
    3303                      .dwattr $C$DW$348, DW_AT_accessibility(DW_ACCESS_public)
    3304              
    3305              $C$DW$349       .dwtag  DW_TAG_member
    3306                      .dwattr $C$DW$349, DW_AT_type(*$C$DW$T$114)
    3307                      .dwattr $C$DW$349, DW_AT_name("bit")
    3308                      .dwattr $C$DW$349, DW_AT_TI_symbol_name("_bit")
    3309                      .dwattr $C$DW$349, DW_AT_data_member_location[DW_OP_plus_uconst 0x0]
    3310                      .dwattr $C$DW$349, DW_AT_accessibility(DW_ACCESS_public)
    3311              
    3312                      .dwendtag $C$DW$T$115
    3313              
    3314              
    3315              $C$DW$T$116     .dwtag  DW_TAG_structure_type
    3316                      .dwattr $C$DW$T$116, DW_AT_name("AQCTLB_BITS")
    3317                      .dwattr $C$DW$T$116, DW_AT_byte_size(0x01)
    3318              $C$DW$350       .dwtag  DW_TAG_member
    3319                      .dwattr $C$DW$350, DW_AT_type(*$C$DW$T$38)
    3320                      .dwattr $C$DW$350, DW_AT_name("ZRO")
    3321                      .dwattr $C$DW$350, DW_AT_TI_symbol_name("_ZRO")
    3322                      .dwattr $C$DW$350, DW_AT_bit_offset(0x0e)
    3323                      .dwattr $C$DW$350, DW_AT_bit_size(0x02)
    3324                      .dwattr $C$DW$350, DW_AT_data_member_location[DW_OP_plus_uconst 0x0]
    3325                      .dwattr $C$DW$350, DW_AT_accessibility(DW_ACCESS_public)
    3326              
    3327              $C$DW$351       .dwtag  DW_TAG_member
    3328                      .dwattr $C$DW$351, DW_AT_type(*$C$DW$T$38)
    3329                      .dwattr $C$DW$351, DW_AT_name("PRD")
TMS320C2000 Assembler PC v20.2.5 Fri Jan  6 17:23:30 2023

Copyright (c) 1996-2018 Texas Instruments Incorporated
drv8305.asm                                                          PAGE   63

    3330                      .dwattr $C$DW$351, DW_AT_TI_symbol_name("_PRD")
    3331                      .dwattr $C$DW$351, DW_AT_bit_offset(0x0c)
    3332                      .dwattr $C$DW$351, DW_AT_bit_size(0x02)
    3333                      .dwattr $C$DW$351, DW_AT_data_member_location[DW_OP_plus_uconst 0x0]
    3334                      .dwattr $C$DW$351, DW_AT_accessibility(DW_ACCESS_public)
    3335              
    3336              $C$DW$352       .dwtag  DW_TAG_member
    3337                      .dwattr $C$DW$352, DW_AT_type(*$C$DW$T$38)
    3338                      .dwattr $C$DW$352, DW_AT_name("CAU")
    3339                      .dwattr $C$DW$352, DW_AT_TI_symbol_name("_CAU")
    3340                      .dwattr $C$DW$352, DW_AT_bit_offset(0x0a)
    3341                      .dwattr $C$DW$352, DW_AT_bit_size(0x02)
    3342                      .dwattr $C$DW$352, DW_AT_data_member_location[DW_OP_plus_uconst 0x0]
    3343                      .dwattr $C$DW$352, DW_AT_accessibility(DW_ACCESS_public)
    3344              
    3345              $C$DW$353       .dwtag  DW_TAG_member
    3346                      .dwattr $C$DW$353, DW_AT_type(*$C$DW$T$38)
    3347                      .dwattr $C$DW$353, DW_AT_name("CAD")
    3348                      .dwattr $C$DW$353, DW_AT_TI_symbol_name("_CAD")
    3349                      .dwattr $C$DW$353, DW_AT_bit_offset(0x08)
    3350                      .dwattr $C$DW$353, DW_AT_bit_size(0x02)
    3351                      .dwattr $C$DW$353, DW_AT_data_member_location[DW_OP_plus_uconst 0x0]
    3352                      .dwattr $C$DW$353, DW_AT_accessibility(DW_ACCESS_public)
    3353              
    3354              $C$DW$354       .dwtag  DW_TAG_member
    3355                      .dwattr $C$DW$354, DW_AT_type(*$C$DW$T$38)
    3356                      .dwattr $C$DW$354, DW_AT_name("CBU")
    3357                      .dwattr $C$DW$354, DW_AT_TI_symbol_name("_CBU")
    3358                      .dwattr $C$DW$354, DW_AT_bit_offset(0x06)
    3359                      .dwattr $C$DW$354, DW_AT_bit_size(0x02)
    3360                      .dwattr $C$DW$354, DW_AT_data_member_location[DW_OP_plus_uconst 0x0]
    3361                      .dwattr $C$DW$354, DW_AT_accessibility(DW_ACCESS_public)
    3362              
    3363              $C$DW$355       .dwtag  DW_TAG_member
    3364                      .dwattr $C$DW$355, DW_AT_type(*$C$DW$T$38)
    3365                      .dwattr $C$DW$355, DW_AT_name("CBD")
    3366                      .dwattr $C$DW$355, DW_AT_TI_symbol_name("_CBD")
    3367                      .dwattr $C$DW$355, DW_AT_bit_offset(0x04)
    3368                      .dwattr $C$DW$355, DW_AT_bit_size(0x02)
    3369                      .dwattr $C$DW$355, DW_AT_data_member_location[DW_OP_plus_uconst 0x0]
    3370                      .dwattr $C$DW$355, DW_AT_accessibility(DW_ACCESS_public)
    3371              
    3372              $C$DW$356       .dwtag  DW_TAG_member
    3373                      .dwattr $C$DW$356, DW_AT_type(*$C$DW$T$38)
    3374                      .dwattr $C$DW$356, DW_AT_name("rsvd1")
    3375                      .dwattr $C$DW$356, DW_AT_TI_symbol_name("_rsvd1")
    3376                      .dwattr $C$DW$356, DW_AT_bit_offset(0x00)
    3377                      .dwattr $C$DW$356, DW_AT_bit_size(0x04)
    3378                      .dwattr $C$DW$356, DW_AT_data_member_location[DW_OP_plus_uconst 0x0]
    3379                      .dwattr $C$DW$356, DW_AT_accessibility(DW_ACCESS_public)
    3380              
    3381                      .dwendtag $C$DW$T$116
    3382              
    3383              
    3384              $C$DW$T$117     .dwtag  DW_TAG_union_type
TMS320C2000 Assembler PC v20.2.5 Fri Jan  6 17:23:30 2023

Copyright (c) 1996-2018 Texas Instruments Incorporated
drv8305.asm                                                          PAGE   64

    3385                      .dwattr $C$DW$T$117, DW_AT_name("AQCTLB_REG")
    3386                      .dwattr $C$DW$T$117, DW_AT_byte_size(0x01)
    3387              $C$DW$357       .dwtag  DW_TAG_member
    3388                      .dwattr $C$DW$357, DW_AT_type(*$C$DW$T$38)
    3389                      .dwattr $C$DW$357, DW_AT_name("all")
    3390                      .dwattr $C$DW$357, DW_AT_TI_symbol_name("_all")
    3391                      .dwattr $C$DW$357, DW_AT_data_member_location[DW_OP_plus_uconst 0x0]
    3392                      .dwattr $C$DW$357, DW_AT_accessibility(DW_ACCESS_public)
    3393              
    3394              $C$DW$358       .dwtag  DW_TAG_member
    3395                      .dwattr $C$DW$358, DW_AT_type(*$C$DW$T$116)
    3396                      .dwattr $C$DW$358, DW_AT_name("bit")
    3397                      .dwattr $C$DW$358, DW_AT_TI_symbol_name("_bit")
    3398                      .dwattr $C$DW$358, DW_AT_data_member_location[DW_OP_plus_uconst 0x0]
    3399                      .dwattr $C$DW$358, DW_AT_accessibility(DW_ACCESS_public)
    3400              
    3401                      .dwendtag $C$DW$T$117
    3402              
    3403              
    3404              $C$DW$T$118     .dwtag  DW_TAG_structure_type
    3405                      .dwattr $C$DW$T$118, DW_AT_name("AQCTL_BITS")
    3406                      .dwattr $C$DW$T$118, DW_AT_byte_size(0x01)
    3407              $C$DW$359       .dwtag  DW_TAG_member
    3408                      .dwattr $C$DW$359, DW_AT_type(*$C$DW$T$38)
    3409                      .dwattr $C$DW$359, DW_AT_name("LDAQAMODE")
    3410                      .dwattr $C$DW$359, DW_AT_TI_symbol_name("_LDAQAMODE")
    3411                      .dwattr $C$DW$359, DW_AT_bit_offset(0x0e)
    3412                      .dwattr $C$DW$359, DW_AT_bit_size(0x02)
    3413                      .dwattr $C$DW$359, DW_AT_data_member_location[DW_OP_plus_uconst 0x0]
    3414                      .dwattr $C$DW$359, DW_AT_accessibility(DW_ACCESS_public)
    3415              
    3416              $C$DW$360       .dwtag  DW_TAG_member
    3417                      .dwattr $C$DW$360, DW_AT_type(*$C$DW$T$38)
    3418                      .dwattr $C$DW$360, DW_AT_name("LDAQBMODE")
    3419                      .dwattr $C$DW$360, DW_AT_TI_symbol_name("_LDAQBMODE")
    3420                      .dwattr $C$DW$360, DW_AT_bit_offset(0x0c)
    3421                      .dwattr $C$DW$360, DW_AT_bit_size(0x02)
    3422                      .dwattr $C$DW$360, DW_AT_data_member_location[DW_OP_plus_uconst 0x0]
    3423                      .dwattr $C$DW$360, DW_AT_accessibility(DW_ACCESS_public)
    3424              
    3425              $C$DW$361       .dwtag  DW_TAG_member
    3426                      .dwattr $C$DW$361, DW_AT_type(*$C$DW$T$38)
    3427                      .dwattr $C$DW$361, DW_AT_name("SHDWAQAMODE")
    3428                      .dwattr $C$DW$361, DW_AT_TI_symbol_name("_SHDWAQAMODE")
    3429                      .dwattr $C$DW$361, DW_AT_bit_offset(0x0b)
    3430                      .dwattr $C$DW$361, DW_AT_bit_size(0x01)
    3431                      .dwattr $C$DW$361, DW_AT_data_member_location[DW_OP_plus_uconst 0x0]
    3432                      .dwattr $C$DW$361, DW_AT_accessibility(DW_ACCESS_public)
    3433              
    3434              $C$DW$362       .dwtag  DW_TAG_member
    3435                      .dwattr $C$DW$362, DW_AT_type(*$C$DW$T$38)
